
/Users/joonak/RustPico/test/faultattack.github.io/firmwares/build/flag.elf:     file format elf32-littlearm

Sections:
Idx Name          Size      VMA       LMA       File off  Algn
  0 .boot2        00000100  10000000  10000000  00001000  2**0
                  CONTENTS, ALLOC, LOAD, READONLY, CODE
  1 .text         00006d60  10000100  10000100  00001100  2**3
                  CONTENTS, ALLOC, LOAD, READONLY, CODE
  2 .rodata       000008e4  10006e60  10006e60  00007e60  2**3
                  CONTENTS, ALLOC, LOAD, READONLY, DATA
  3 .binary_info  00000020  10007744  10007744  00008744  2**2
                  CONTENTS, ALLOC, LOAD, DATA
  4 .ram_vector_table 000000c0  20000000  20000000  00009f60  2**2
                  CONTENTS
  5 .data         00000ea0  200000c0  10007764  000090c0  2**4
                  CONTENTS, ALLOC, LOAD, READONLY, CODE
  6 .uninitialized_data 00000000  20000f60  20000f60  0000a020  2**0
                  CONTENTS
  7 .scratch_x    00000000  20040000  20040000  0000a020  2**0
                  CONTENTS
  8 .scratch_y    00000000  20041000  20041000  0000a020  2**0
                  CONTENTS
  9 .bss          00000ec8  20000f60  20000f60  00009f60  2**3
                  ALLOC
 10 .heap         00000800  20001e28  20001e28  0000a020  2**2
                  CONTENTS, READONLY
 11 .stack_dummy  00000800  20041000  20041000  0000a820  2**5
                  CONTENTS, READONLY
 12 .ARM.attributes 00000028  00000000  00000000  0000b020  2**0
                  CONTENTS, READONLY
 13 .comment      00000049  00000000  00000000  0000b048  2**0
                  CONTENTS, READONLY
 14 .debug_frame  00000074  00000000  00000000  0000b094  2**2
                  CONTENTS, READONLY, DEBUGGING, OCTETS

/Users/joonak/RustPico/test/faultattack.github.io/firmwares/build/flag.elf:     file format elf32-littlearm


Disassembly of section .boot2:

10000000 <__boot2_start__>:
10000000:	4b32b500 	.word	0x4b32b500
10000004:	60582021 	.word	0x60582021
10000008:	21026898 	.word	0x21026898
1000000c:	60984388 	.word	0x60984388
10000010:	611860d8 	.word	0x611860d8
10000014:	4b2e6158 	.word	0x4b2e6158
10000018:	60992100 	.word	0x60992100
1000001c:	61592102 	.word	0x61592102
10000020:	22f02101 	.word	0x22f02101
10000024:	492b5099 	.word	0x492b5099
10000028:	21016019 	.word	0x21016019
1000002c:	20356099 	.word	0x20356099
10000030:	f844f000 	.word	0xf844f000
10000034:	42902202 	.word	0x42902202
10000038:	2106d014 	.word	0x2106d014
1000003c:	f0006619 	.word	0xf0006619
10000040:	6e19f834 	.word	0x6e19f834
10000044:	66192101 	.word	0x66192101
10000048:	66182000 	.word	0x66182000
1000004c:	f000661a 	.word	0xf000661a
10000050:	6e19f82c 	.word	0x6e19f82c
10000054:	6e196e19 	.word	0x6e196e19
10000058:	f0002005 	.word	0xf0002005
1000005c:	2101f82f 	.word	0x2101f82f
10000060:	d1f94208 	.word	0xd1f94208
10000064:	60992100 	.word	0x60992100
10000068:	6019491b 	.word	0x6019491b
1000006c:	60592100 	.word	0x60592100
10000070:	481b491a 	.word	0x481b491a
10000074:	21016001 	.word	0x21016001
10000078:	21eb6099 	.word	0x21eb6099
1000007c:	21a06619 	.word	0x21a06619
10000080:	f0006619 	.word	0xf0006619
10000084:	2100f812 	.word	0x2100f812
10000088:	49166099 	.word	0x49166099
1000008c:	60014814 	.word	0x60014814
10000090:	60992101 	.word	0x60992101
10000094:	2800bc01 	.word	0x2800bc01
10000098:	4700d000 	.word	0x4700d000
1000009c:	49134812 	.word	0x49134812
100000a0:	c8036008 	.word	0xc8036008
100000a4:	8808f380 	.word	0x8808f380
100000a8:	b5034708 	.word	0xb5034708
100000ac:	20046a99 	.word	0x20046a99
100000b0:	d0fb4201 	.word	0xd0fb4201
100000b4:	42012001 	.word	0x42012001
100000b8:	bd03d1f8 	.word	0xbd03d1f8
100000bc:	6618b502 	.word	0x6618b502
100000c0:	f7ff6618 	.word	0xf7ff6618
100000c4:	6e18fff2 	.word	0x6e18fff2
100000c8:	bd026e18 	.word	0xbd026e18
100000cc:	40020000 	.word	0x40020000
100000d0:	18000000 	.word	0x18000000
100000d4:	00070000 	.word	0x00070000
100000d8:	005f0300 	.word	0x005f0300
100000dc:	00002221 	.word	0x00002221
100000e0:	180000f4 	.word	0x180000f4
100000e4:	a0002022 	.word	0xa0002022
100000e8:	10000100 	.word	0x10000100
100000ec:	e000ed08 	.word	0xe000ed08
	...
100000fc:	7a4eb274 	.word	0x7a4eb274

Disassembly of section .text:

10000100 <__VECTOR_TABLE>:
10000100:	20042000 	.word	0x20042000
10000104:	100001f7 	.word	0x100001f7
10000108:	100001c3 	.word	0x100001c3
1000010c:	100001c5 	.word	0x100001c5
10000110:	100001c1 	.word	0x100001c1
10000114:	100001c1 	.word	0x100001c1
10000118:	100001c1 	.word	0x100001c1
1000011c:	100001c1 	.word	0x100001c1
10000120:	100001c1 	.word	0x100001c1
10000124:	100001c1 	.word	0x100001c1
10000128:	100001c1 	.word	0x100001c1
1000012c:	100001c7 	.word	0x100001c7
10000130:	100001c1 	.word	0x100001c1
10000134:	100001c1 	.word	0x100001c1
10000138:	100001c9 	.word	0x100001c9
1000013c:	100001cb 	.word	0x100001cb
10000140:	100001cd 	.word	0x100001cd
10000144:	100001cd 	.word	0x100001cd
10000148:	100001cd 	.word	0x100001cd
1000014c:	100001cd 	.word	0x100001cd
10000150:	100001cd 	.word	0x100001cd
10000154:	100001cd 	.word	0x100001cd
10000158:	100001cd 	.word	0x100001cd
1000015c:	100001cd 	.word	0x100001cd
10000160:	100001cd 	.word	0x100001cd
10000164:	100001cd 	.word	0x100001cd
10000168:	100001cd 	.word	0x100001cd
1000016c:	100001cd 	.word	0x100001cd
10000170:	100001cd 	.word	0x100001cd
10000174:	100001cd 	.word	0x100001cd
10000178:	100001cd 	.word	0x100001cd
1000017c:	100001cd 	.word	0x100001cd
10000180:	100001cd 	.word	0x100001cd
10000184:	100001cd 	.word	0x100001cd
10000188:	100001cd 	.word	0x100001cd
1000018c:	100001cd 	.word	0x100001cd
10000190:	100001cd 	.word	0x100001cd
10000194:	100001cd 	.word	0x100001cd
10000198:	100001cd 	.word	0x100001cd
1000019c:	100001cd 	.word	0x100001cd
100001a0:	100001cd 	.word	0x100001cd
100001a4:	100001cd 	.word	0x100001cd
100001a8:	100001cd 	.word	0x100001cd
100001ac:	100001cd 	.word	0x100001cd
100001b0:	100001cd 	.word	0x100001cd
100001b4:	100001cd 	.word	0x100001cd
100001b8:	100001cd 	.word	0x100001cd
100001bc:	100001cd 	.word	0x100001cd

100001c0 <isr_invalid>:
100001c0:	be00      	bkpt	0x0000

100001c2 <isr_nmi>:
100001c2:	be00      	bkpt	0x0000

100001c4 <isr_hardfault>:
100001c4:	be00      	bkpt	0x0000

100001c6 <isr_svcall>:
100001c6:	be00      	bkpt	0x0000

100001c8 <isr_pendsv>:
100001c8:	be00      	bkpt	0x0000

100001ca <isr_systick>:
100001ca:	be00      	bkpt	0x0000

100001cc <__unhandled_user_irq>:
100001cc:	f3ef 8005 	mrs	r0, IPSR
100001d0:	3810      	subs	r0, #16

100001d2 <unhandled_user_irq_num_in_r0>:
100001d2:	be00      	bkpt	0x0000

100001d4 <binary_info_header>:
100001d4:	7188ebf2 	.word	0x7188ebf2
100001d8:	10007744 	.word	0x10007744
100001dc:	10007764 	.word	0x10007764
100001e0:	10000234 	.word	0x10000234
100001e4:	e71aa390 	.word	0xe71aa390

100001e8 <_entry_point>:
100001e8:	2000      	movs	r0, #0
100001ea:	491f      	ldr	r1, [pc, #124]	; (10000268 <hold_non_core0_in_bootrom+0xa>)
100001ec:	6008      	str	r0, [r1, #0]
100001ee:	c806      	ldmia	r0!, {r1, r2}
100001f0:	f381 8808 	msr	MSP, r1
100001f4:	4710      	bx	r2

100001f6 <_reset_handler>:
100001f6:	481d      	ldr	r0, [pc, #116]	; (1000026c <hold_non_core0_in_bootrom+0xe>)
100001f8:	6800      	ldr	r0, [r0, #0]
100001fa:	2800      	cmp	r0, #0
100001fc:	d12f      	bne.n	1000025e <hold_non_core0_in_bootrom>
100001fe:	a40d      	add	r4, pc, #52	; (adr r4, 10000234 <data_cpy_table>)
10000200:	cc0e      	ldmia	r4!, {r1, r2, r3}
10000202:	2900      	cmp	r1, #0
10000204:	d002      	beq.n	1000020c <_reset_handler+0x16>
10000206:	f000 f812 	bl	1000022e <data_cpy>
1000020a:	e7f9      	b.n	10000200 <_reset_handler+0xa>
1000020c:	4918      	ldr	r1, [pc, #96]	; (10000270 <hold_non_core0_in_bootrom+0x12>)
1000020e:	4a19      	ldr	r2, [pc, #100]	; (10000274 <hold_non_core0_in_bootrom+0x16>)
10000210:	2000      	movs	r0, #0
10000212:	e000      	b.n	10000216 <bss_fill_test>

10000214 <bss_fill_loop>:
10000214:	c101      	stmia	r1!, {r0}

10000216 <bss_fill_test>:
10000216:	4291      	cmp	r1, r2
10000218:	d1fc      	bne.n	10000214 <bss_fill_loop>

1000021a <platform_entry>:
1000021a:	4917      	ldr	r1, [pc, #92]	; (10000278 <hold_non_core0_in_bootrom+0x1a>)
1000021c:	4788      	blx	r1
1000021e:	4917      	ldr	r1, [pc, #92]	; (1000027c <hold_non_core0_in_bootrom+0x1e>)
10000220:	4788      	blx	r1
10000222:	4917      	ldr	r1, [pc, #92]	; (10000280 <hold_non_core0_in_bootrom+0x22>)
10000224:	4788      	blx	r1
10000226:	be00      	bkpt	0x0000
10000228:	e7fd      	b.n	10000226 <platform_entry+0xc>

1000022a <data_cpy_loop>:
1000022a:	c901      	ldmia	r1!, {r0}
1000022c:	c201      	stmia	r2!, {r0}

1000022e <data_cpy>:
1000022e:	429a      	cmp	r2, r3
10000230:	d3fb      	bcc.n	1000022a <data_cpy_loop>
10000232:	4770      	bx	lr

10000234 <data_cpy_table>:
10000234:	10007764 	.word	0x10007764
10000238:	200000c0 	.word	0x200000c0
1000023c:	20000f60 	.word	0x20000f60
10000240:	10008604 	.word	0x10008604
10000244:	20040000 	.word	0x20040000
10000248:	20040000 	.word	0x20040000
1000024c:	10008604 	.word	0x10008604
10000250:	20041000 	.word	0x20041000
10000254:	20041000 	.word	0x20041000
10000258:	00000000 	.word	0x00000000
1000025c:	4770      	bx	lr

1000025e <hold_non_core0_in_bootrom>:
1000025e:	4809      	ldr	r0, [pc, #36]	; (10000284 <hold_non_core0_in_bootrom+0x26>)
10000260:	f003 fab4 	bl	100037cc <rom_func_lookup>
10000264:	4700      	bx	r0
10000266:	0000      	.short	0x0000
10000268:	e000ed08 	.word	0xe000ed08
1000026c:	d0000000 	.word	0xd0000000
10000270:	20000f60 	.word	0x20000f60
10000274:	20001e28 	.word	0x20001e28
10000278:	100020c1 	.word	0x100020c1
1000027c:	100005dd 	.word	0x100005dd
10000280:	100021b5 	.word	0x100021b5
10000284:	00005657 	.word	0x00005657

10000288 <__bi_50>:
10000288:	50520006 5360b3ab 10007508              ..RP..`S.u..

10000294 <__bi_38>:
10000294:	50520006 02031c86 10007518              ..RP.....u..

100002a0 <__bi_30>:
100002a0:	50520006 9da22254 10007520              ..RPT".. u..

100002ac <__bi_22>:
100002ac:	50520005 68f465de 10008604              ..RP.e.h....

100002b8 <_init>:
100002b8:	b5f8      	push	{r3, r4, r5, r6, r7, lr}
100002ba:	46c0      	nop			; (mov r8, r8)

100002bc <__do_global_dtors_aux>:
100002bc:	b510      	push	{r4, lr}
100002be:	4c06      	ldr	r4, [pc, #24]	; (100002d8 <__do_global_dtors_aux+0x1c>)
100002c0:	7823      	ldrb	r3, [r4, #0]
100002c2:	2b00      	cmp	r3, #0
100002c4:	d107      	bne.n	100002d6 <__do_global_dtors_aux+0x1a>
100002c6:	4b05      	ldr	r3, [pc, #20]	; (100002dc <__do_global_dtors_aux+0x20>)
100002c8:	2b00      	cmp	r3, #0
100002ca:	d002      	beq.n	100002d2 <__do_global_dtors_aux+0x16>
100002cc:	4804      	ldr	r0, [pc, #16]	; (100002e0 <__do_global_dtors_aux+0x24>)
100002ce:	e000      	b.n	100002d2 <__do_global_dtors_aux+0x16>
100002d0:	bf00      	nop
100002d2:	2301      	movs	r3, #1
100002d4:	7023      	strb	r3, [r4, #0]
100002d6:	bd10      	pop	{r4, pc}
100002d8:	20001268 	.word	0x20001268
100002dc:	00000000 	.word	0x00000000
100002e0:	10006e60 	.word	0x10006e60

100002e4 <frame_dummy>:
100002e4:	4b04      	ldr	r3, [pc, #16]	; (100002f8 <frame_dummy+0x14>)
100002e6:	b510      	push	{r4, lr}
100002e8:	2b00      	cmp	r3, #0
100002ea:	d003      	beq.n	100002f4 <frame_dummy+0x10>
100002ec:	4903      	ldr	r1, [pc, #12]	; (100002fc <frame_dummy+0x18>)
100002ee:	4804      	ldr	r0, [pc, #16]	; (10000300 <frame_dummy+0x1c>)
100002f0:	e000      	b.n	100002f4 <frame_dummy+0x10>
100002f2:	bf00      	nop
100002f4:	bd10      	pop	{r4, pc}
100002f6:	46c0      	nop			; (mov r8, r8)
100002f8:	00000000 	.word	0x00000000
100002fc:	2000126c 	.word	0x2000126c
10000300:	10006e60 	.word	0x10006e60

10000304 <authenticate>:
10000304:	b570      	push	{r4, r5, r6, lr}
10000306:	481d      	ldr	r0, [pc, #116]	; (1000037c <authenticate+0x78>)
10000308:	f004 fb4e 	bl	100049a8 <__wrap_printf>
1000030c:	2280      	movs	r2, #128	; 0x80
1000030e:	4d1c      	ldr	r5, [pc, #112]	; (10000380 <authenticate+0x7c>)
10000310:	2100      	movs	r1, #0
10000312:	0028      	movs	r0, r5
10000314:	0052      	lsls	r2, r2, #1
10000316:	f004 f93b 	bl	10004590 <__wrap_memset>
1000031a:	f004 fb55 	bl	100049c8 <__wrap_getchar>
1000031e:	0004      	movs	r4, r0
10000320:	1c43      	adds	r3, r0, #1
10000322:	d010      	beq.n	10000346 <authenticate+0x42>
10000324:	f004 fa52 	bl	100047cc <__wrap_putchar>
10000328:	2c0d      	cmp	r4, #13
1000032a:	d00c      	beq.n	10000346 <authenticate+0x42>
1000032c:	2c0a      	cmp	r4, #10
1000032e:	d0f4      	beq.n	1000031a <authenticate+0x16>
10000330:	0028      	movs	r0, r5
10000332:	f006 fcf3 	bl	10006d1c <strlen>
10000336:	28ff      	cmp	r0, #255	; 0xff
10000338:	d005      	beq.n	10000346 <authenticate+0x42>
1000033a:	542c      	strb	r4, [r5, r0]
1000033c:	f004 fb44 	bl	100049c8 <__wrap_getchar>
10000340:	0004      	movs	r4, r0
10000342:	1c43      	adds	r3, r0, #1
10000344:	d1ee      	bne.n	10000324 <authenticate+0x20>
10000346:	480f      	ldr	r0, [pc, #60]	; (10000384 <authenticate+0x80>)
10000348:	f004 fa8c 	bl	10004864 <__wrap_puts>
1000034c:	4c0e      	ldr	r4, [pc, #56]	; (10000388 <authenticate+0x84>)
1000034e:	0020      	movs	r0, r4
10000350:	f006 fce4 	bl	10006d1c <strlen>
10000354:	0021      	movs	r1, r4
10000356:	0002      	movs	r2, r0
10000358:	0028      	movs	r0, r5
1000035a:	f006 fd31 	bl	10006dc0 <__memcmp_veneer>
1000035e:	2800      	cmp	r0, #0
10000360:	d106      	bne.n	10000370 <authenticate+0x6c>
10000362:	4b0a      	ldr	r3, [pc, #40]	; (1000038c <authenticate+0x88>)
10000364:	6018      	str	r0, [r3, #0]
10000366:	480a      	ldr	r0, [pc, #40]	; (10000390 <authenticate+0x8c>)
10000368:	f004 fa7c 	bl	10004864 <__wrap_puts>
1000036c:	2001      	movs	r0, #1
1000036e:	bd70      	pop	{r4, r5, r6, pc}
10000370:	4808      	ldr	r0, [pc, #32]	; (10000394 <authenticate+0x90>)
10000372:	f004 fa77 	bl	10004864 <__wrap_puts>
10000376:	2000      	movs	r0, #0
10000378:	e7f9      	b.n	1000036e <authenticate+0x6a>
1000037a:	46c0      	nop			; (mov r8, r8)
1000037c:	10006e60 	.word	0x10006e60
10000380:	20001cec 	.word	0x20001cec
10000384:	10007000 	.word	0x10007000
10000388:	20001c94 	.word	0x20001c94
1000038c:	20000e60 	.word	0x20000e60
10000390:	10006e70 	.word	0x10006e70
10000394:	10006e80 	.word	0x10006e80

10000398 <print_flag>:
10000398:	4b13      	ldr	r3, [pc, #76]	; (100003e8 <print_flag+0x50>)
1000039a:	b570      	push	{r4, r5, r6, lr}
1000039c:	681b      	ldr	r3, [r3, #0]
1000039e:	2b01      	cmp	r3, #1
100003a0:	d01c      	beq.n	100003dc <print_flag+0x44>
100003a2:	25d0      	movs	r5, #208	; 0xd0
100003a4:	2680      	movs	r6, #128	; 0x80
100003a6:	4811      	ldr	r0, [pc, #68]	; (100003ec <print_flag+0x54>)
100003a8:	f004 fa5c 	bl	10004864 <__wrap_puts>
100003ac:	20fa      	movs	r0, #250	; 0xfa
100003ae:	2409      	movs	r4, #9
100003b0:	062d      	lsls	r5, r5, #24
100003b2:	04b6      	lsls	r6, r6, #18
100003b4:	616e      	str	r6, [r5, #20]
100003b6:	0040      	lsls	r0, r0, #1
100003b8:	f001 f870 	bl	1000149c <sleep_ms>
100003bc:	61ae      	str	r6, [r5, #24]
100003be:	20fa      	movs	r0, #250	; 0xfa
100003c0:	0040      	lsls	r0, r0, #1
100003c2:	f001 f86b 	bl	1000149c <sleep_ms>
100003c6:	20fa      	movs	r0, #250	; 0xfa
100003c8:	616e      	str	r6, [r5, #20]
100003ca:	0040      	lsls	r0, r0, #1
100003cc:	3c01      	subs	r4, #1
100003ce:	f001 f865 	bl	1000149c <sleep_ms>
100003d2:	61ae      	str	r6, [r5, #24]
100003d4:	2c00      	cmp	r4, #0
100003d6:	d1f2      	bne.n	100003be <print_flag+0x26>
100003d8:	2001      	movs	r0, #1
100003da:	bd70      	pop	{r4, r5, r6, pc}
100003dc:	4804      	ldr	r0, [pc, #16]	; (100003f0 <print_flag+0x58>)
100003de:	f004 fa41 	bl	10004864 <__wrap_puts>
100003e2:	2000      	movs	r0, #0
100003e4:	e7f9      	b.n	100003da <print_flag+0x42>
100003e6:	46c0      	nop			; (mov r8, r8)
100003e8:	20000e60 	.word	0x20000e60
100003ec:	10006e90 	.word	0x10006e90
100003f0:	10006e80 	.word	0x10006e80

100003f4 <crypto_flag>:
100003f4:	b5f0      	push	{r4, r5, r6, r7, lr}
100003f6:	4829      	ldr	r0, [pc, #164]	; (1000049c <crypto_flag+0xa8>)
100003f8:	b0c7      	sub	sp, #284	; 0x11c
100003fa:	f004 fa33 	bl	10004864 <__wrap_puts>
100003fe:	2280      	movs	r2, #128	; 0x80
10000400:	4e27      	ldr	r6, [pc, #156]	; (100004a0 <crypto_flag+0xac>)
10000402:	2100      	movs	r1, #0
10000404:	0030      	movs	r0, r6
10000406:	0052      	lsls	r2, r2, #1
10000408:	f004 f8c2 	bl	10004590 <__wrap_memset>
1000040c:	f004 fadc 	bl	100049c8 <__wrap_getchar>
10000410:	0004      	movs	r4, r0
10000412:	1c43      	adds	r3, r0, #1
10000414:	d010      	beq.n	10000438 <crypto_flag+0x44>
10000416:	f004 f9d9 	bl	100047cc <__wrap_putchar>
1000041a:	2c0d      	cmp	r4, #13
1000041c:	d00c      	beq.n	10000438 <crypto_flag+0x44>
1000041e:	2c0a      	cmp	r4, #10
10000420:	d0f4      	beq.n	1000040c <crypto_flag+0x18>
10000422:	0030      	movs	r0, r6
10000424:	f006 fc7a 	bl	10006d1c <strlen>
10000428:	28ff      	cmp	r0, #255	; 0xff
1000042a:	d005      	beq.n	10000438 <crypto_flag+0x44>
1000042c:	5434      	strb	r4, [r6, r0]
1000042e:	f004 facb 	bl	100049c8 <__wrap_getchar>
10000432:	0004      	movs	r4, r0
10000434:	1c43      	adds	r3, r0, #1
10000436:	d1ee      	bne.n	10000416 <crypto_flag+0x22>
10000438:	228a      	movs	r2, #138	; 0x8a
1000043a:	ad01      	add	r5, sp, #4
1000043c:	0052      	lsls	r2, r2, #1
1000043e:	0028      	movs	r0, r5
10000440:	4918      	ldr	r1, [pc, #96]	; (100004a4 <crypto_flag+0xb0>)
10000442:	f004 f8ab 	bl	1000459c <__wrap___aeabi_memcpy>
10000446:	7832      	ldrb	r2, [r6, #0]
10000448:	2a00      	cmp	r2, #0
1000044a:	d025      	beq.n	10000498 <crypto_flag+0xa4>
1000044c:	2700      	movs	r7, #0
1000044e:	3601      	adds	r6, #1
10000450:	00bb      	lsls	r3, r7, #2
10000452:	19db      	adds	r3, r3, r7
10000454:	005b      	lsls	r3, r3, #1
10000456:	189b      	adds	r3, r3, r2
10000458:	3b30      	subs	r3, #48	; 0x30
1000045a:	3601      	adds	r6, #1
1000045c:	001f      	movs	r7, r3
1000045e:	1e73      	subs	r3, r6, #1
10000460:	781a      	ldrb	r2, [r3, #0]
10000462:	2a00      	cmp	r2, #0
10000464:	d1f4      	bne.n	10000450 <crypto_flag+0x5c>
10000466:	4c10      	ldr	r4, [pc, #64]	; (100004a8 <crypto_flag+0xb4>)
10000468:	4e10      	ldr	r6, [pc, #64]	; (100004ac <crypto_flag+0xb8>)
1000046a:	2145      	movs	r1, #69	; 0x45
1000046c:	0020      	movs	r0, r4
1000046e:	f003 fa07 	bl	10003880 <__wrap___aeabi_uidiv>
10000472:	0089      	lsls	r1, r1, #2
10000474:	586b      	ldr	r3, [r5, r1]
10000476:	435e      	muls	r6, r3
10000478:	3c01      	subs	r4, #1
1000047a:	d2f6      	bcs.n	1000046a <crypto_flag+0x76>
1000047c:	42be      	cmp	r6, r7
1000047e:	d006      	beq.n	1000048e <crypto_flag+0x9a>
10000480:	0039      	movs	r1, r7
10000482:	480b      	ldr	r0, [pc, #44]	; (100004b0 <crypto_flag+0xbc>)
10000484:	f004 fa90 	bl	100049a8 <__wrap_printf>
10000488:	2000      	movs	r0, #0
1000048a:	b047      	add	sp, #284	; 0x11c
1000048c:	bdf0      	pop	{r4, r5, r6, r7, pc}
1000048e:	4809      	ldr	r0, [pc, #36]	; (100004b4 <crypto_flag+0xc0>)
10000490:	f004 f9e8 	bl	10004864 <__wrap_puts>
10000494:	2001      	movs	r0, #1
10000496:	e7f8      	b.n	1000048a <crypto_flag+0x96>
10000498:	2700      	movs	r7, #0
1000049a:	e7e4      	b.n	10000466 <crypto_flag+0x72>
1000049c:	10006ec4 	.word	0x10006ec4
100004a0:	20001cec 	.word	0x20001cec
100004a4:	10007108 	.word	0x10007108
100004a8:	00cafdff 	.word	0x00cafdff
100004ac:	00000536 	.word	0x00000536
100004b0:	10006f18 	.word	0x10006f18
100004b4:	10006ef8 	.word	0x10006ef8

100004b8 <update_password>:
100004b8:	b510      	push	{r4, lr}
100004ba:	4902      	ldr	r1, [pc, #8]	; (100004c4 <update_password+0xc>)
100004bc:	4802      	ldr	r0, [pc, #8]	; (100004c8 <update_password+0x10>)
100004be:	f006 fc25 	bl	10006d0c <strcpy>
100004c2:	bd10      	pop	{r4, pc}
100004c4:	20001cec 	.word	0x20001cec
100004c8:	20001c94 	.word	0x20001c94

100004cc <change_pin>:
100004cc:	b570      	push	{r4, r5, r6, lr}
100004ce:	4e19      	ldr	r6, [pc, #100]	; (10000534 <change_pin+0x68>)
100004d0:	6833      	ldr	r3, [r6, #0]
100004d2:	2b01      	cmp	r3, #1
100004d4:	d028      	beq.n	10000528 <change_pin+0x5c>
100004d6:	4818      	ldr	r0, [pc, #96]	; (10000538 <change_pin+0x6c>)
100004d8:	f004 fa66 	bl	100049a8 <__wrap_printf>
100004dc:	2280      	movs	r2, #128	; 0x80
100004de:	4d17      	ldr	r5, [pc, #92]	; (1000053c <change_pin+0x70>)
100004e0:	2100      	movs	r1, #0
100004e2:	0028      	movs	r0, r5
100004e4:	0052      	lsls	r2, r2, #1
100004e6:	f004 f853 	bl	10004590 <__wrap_memset>
100004ea:	f004 fa6d 	bl	100049c8 <__wrap_getchar>
100004ee:	0004      	movs	r4, r0
100004f0:	1c43      	adds	r3, r0, #1
100004f2:	d010      	beq.n	10000516 <change_pin+0x4a>
100004f4:	f004 f96a 	bl	100047cc <__wrap_putchar>
100004f8:	2c0d      	cmp	r4, #13
100004fa:	d00c      	beq.n	10000516 <change_pin+0x4a>
100004fc:	2c0a      	cmp	r4, #10
100004fe:	d0f4      	beq.n	100004ea <change_pin+0x1e>
10000500:	0028      	movs	r0, r5
10000502:	f006 fc0b 	bl	10006d1c <strlen>
10000506:	28ff      	cmp	r0, #255	; 0xff
10000508:	d005      	beq.n	10000516 <change_pin+0x4a>
1000050a:	542c      	strb	r4, [r5, r0]
1000050c:	f004 fa5c 	bl	100049c8 <__wrap_getchar>
10000510:	0004      	movs	r4, r0
10000512:	1c43      	adds	r3, r0, #1
10000514:	d1ee      	bne.n	100004f4 <change_pin+0x28>
10000516:	f7ff ffcf 	bl	100004b8 <update_password>
1000051a:	4809      	ldr	r0, [pc, #36]	; (10000540 <change_pin+0x74>)
1000051c:	f004 f9a2 	bl	10004864 <__wrap_puts>
10000520:	2301      	movs	r3, #1
10000522:	2001      	movs	r0, #1
10000524:	6033      	str	r3, [r6, #0]
10000526:	bd70      	pop	{r4, r5, r6, pc}
10000528:	4806      	ldr	r0, [pc, #24]	; (10000544 <change_pin+0x78>)
1000052a:	f004 f99b 	bl	10004864 <__wrap_puts>
1000052e:	2000      	movs	r0, #0
10000530:	e7f9      	b.n	10000526 <change_pin+0x5a>
10000532:	46c0      	nop			; (mov r8, r8)
10000534:	20000e60 	.word	0x20000e60
10000538:	10006e60 	.word	0x10006e60
1000053c:	20001cec 	.word	0x20001cec
10000540:	10007004 	.word	0x10007004
10000544:	10007010 	.word	0x10007010

10000548 <reset>:
10000548:	b510      	push	{r4, lr}
1000054a:	4804      	ldr	r0, [pc, #16]	; (1000055c <reset+0x14>)
1000054c:	f004 f98a 	bl	10004864 <__wrap_puts>
10000550:	2101      	movs	r1, #1
10000552:	2001      	movs	r0, #1
10000554:	f001 fd12 	bl	10001f7c <watchdog_enable>
10000558:	e7fe      	b.n	10000558 <reset+0x10>
1000055a:	46c0      	nop			; (mov r8, r8)
1000055c:	10007028 	.word	0x10007028

10000560 <raptor_flag>:
10000560:	4b05      	ldr	r3, [pc, #20]	; (10000578 <raptor_flag+0x18>)
10000562:	b510      	push	{r4, lr}
10000564:	681b      	ldr	r3, [r3, #0]
10000566:	2b00      	cmp	r3, #0
10000568:	d100      	bne.n	1000056c <raptor_flag+0xc>
1000056a:	e7fe      	b.n	1000056a <raptor_flag+0xa>
1000056c:	2100      	movs	r1, #0
1000056e:	4803      	ldr	r0, [pc, #12]	; (1000057c <raptor_flag+0x1c>)
10000570:	f004 fa1a 	bl	100049a8 <__wrap_printf>
10000574:	2001      	movs	r0, #1
10000576:	bd10      	pop	{r4, pc}
10000578:	20000e60 	.word	0x20000e60
1000057c:	10007034 	.word	0x10007034

10000580 <baby_flag>:
10000580:	b570      	push	{r4, r5, r6, lr}
10000582:	4a10      	ldr	r2, [pc, #64]	; (100005c4 <baby_flag+0x44>)
10000584:	6813      	ldr	r3, [r2, #0]
10000586:	2b01      	cmp	r3, #1
10000588:	d0fc      	beq.n	10000584 <baby_flag+0x4>
1000058a:	25d0      	movs	r5, #208	; 0xd0
1000058c:	2680      	movs	r6, #128	; 0x80
1000058e:	480e      	ldr	r0, [pc, #56]	; (100005c8 <baby_flag+0x48>)
10000590:	f004 f968 	bl	10004864 <__wrap_puts>
10000594:	20fa      	movs	r0, #250	; 0xfa
10000596:	2406      	movs	r4, #6
10000598:	062d      	lsls	r5, r5, #24
1000059a:	04b6      	lsls	r6, r6, #18
1000059c:	616e      	str	r6, [r5, #20]
1000059e:	0040      	lsls	r0, r0, #1
100005a0:	f000 ff7c 	bl	1000149c <sleep_ms>
100005a4:	61ae      	str	r6, [r5, #24]
100005a6:	20fa      	movs	r0, #250	; 0xfa
100005a8:	0040      	lsls	r0, r0, #1
100005aa:	f000 ff77 	bl	1000149c <sleep_ms>
100005ae:	20fa      	movs	r0, #250	; 0xfa
100005b0:	616e      	str	r6, [r5, #20]
100005b2:	0040      	lsls	r0, r0, #1
100005b4:	3c01      	subs	r4, #1
100005b6:	f000 ff71 	bl	1000149c <sleep_ms>
100005ba:	61ae      	str	r6, [r5, #24]
100005bc:	2c00      	cmp	r4, #0
100005be:	d1f2      	bne.n	100005a6 <baby_flag+0x26>
100005c0:	2001      	movs	r0, #1
100005c2:	bd70      	pop	{r4, r5, r6, pc}
100005c4:	20000e60 	.word	0x20000e60
100005c8:	10007060 	.word	0x10007060

100005cc <narnia_flag>:
100005cc:	b510      	push	{r4, lr}
100005ce:	4802      	ldr	r0, [pc, #8]	; (100005d8 <narnia_flag+0xc>)
100005d0:	f004 f948 	bl	10004864 <__wrap_puts>
100005d4:	bd10      	pop	{r4, pc}
100005d6:	46c0      	nop			; (mov r8, r8)
100005d8:	10007084 	.word	0x10007084

100005dc <main>:
100005dc:	b5f8      	push	{r3, r4, r5, r6, r7, lr}
100005de:	46ce      	mov	lr, r9
100005e0:	4647      	mov	r7, r8
100005e2:	24d0      	movs	r4, #208	; 0xd0
100005e4:	2501      	movs	r5, #1
100005e6:	0624      	lsls	r4, r4, #24
100005e8:	b580      	push	{r7, lr}
100005ea:	2000      	movs	r0, #0
100005ec:	f000 f886 	bl	100006fc <gpio_init>
100005f0:	2680      	movs	r6, #128	; 0x80
100005f2:	6265      	str	r5, [r4, #36]	; 0x24
100005f4:	2019      	movs	r0, #25
100005f6:	f000 f881 	bl	100006fc <gpio_init>
100005fa:	20fa      	movs	r0, #250	; 0xfa
100005fc:	04b6      	lsls	r6, r6, #18
100005fe:	6266      	str	r6, [r4, #36]	; 0x24
10000600:	0040      	lsls	r0, r0, #1
10000602:	6166      	str	r6, [r4, #20]
10000604:	f000 ff4a 	bl	1000149c <sleep_ms>
10000608:	2001      	movs	r0, #1
1000060a:	61a6      	str	r6, [r4, #24]
1000060c:	6165      	str	r5, [r4, #20]
1000060e:	f000 ff45 	bl	1000149c <sleep_ms>
10000612:	61a5      	str	r5, [r4, #24]
10000614:	4d34      	ldr	r5, [pc, #208]	; (100006e8 <main+0x10c>)
10000616:	4b35      	ldr	r3, [pc, #212]	; (100006ec <main+0x110>)
10000618:	002a      	movs	r2, r5
1000061a:	cb03      	ldmia	r3!, {r0, r1}
1000061c:	c203      	stmia	r2!, {r0, r1}
1000061e:	881b      	ldrh	r3, [r3, #0]
10000620:	8013      	strh	r3, [r2, #0]
10000622:	f7ff ff49 	bl	100004b8 <update_password>
10000626:	f004 f9cb 	bl	100049c0 <stdio_init_all>
1000062a:	e002      	b.n	10000632 <main+0x56>
1000062c:	2064      	movs	r0, #100	; 0x64
1000062e:	f000 ff35 	bl	1000149c <sleep_ms>
10000632:	f004 fc49 	bl	10004ec8 <stdio_usb_connected>
10000636:	2800      	cmp	r0, #0
10000638:	d0f8      	beq.n	1000062c <main+0x50>
1000063a:	4b2d      	ldr	r3, [pc, #180]	; (100006f0 <main+0x114>)
1000063c:	0018      	movs	r0, r3
1000063e:	4698      	mov	r8, r3
10000640:	f004 f910 	bl	10004864 <__wrap_puts>
10000644:	4b2b      	ldr	r3, [pc, #172]	; (100006f4 <main+0x118>)
10000646:	4f2c      	ldr	r7, [pc, #176]	; (100006f8 <main+0x11c>)
10000648:	4699      	mov	r9, r3
1000064a:	2601      	movs	r6, #1
1000064c:	2280      	movs	r2, #128	; 0x80
1000064e:	2100      	movs	r1, #0
10000650:	0028      	movs	r0, r5
10000652:	0052      	lsls	r2, r2, #1
10000654:	f003 ff9c 	bl	10004590 <__wrap_memset>
10000658:	f004 f9b6 	bl	100049c8 <__wrap_getchar>
1000065c:	0004      	movs	r4, r0
1000065e:	1c43      	adds	r3, r0, #1
10000660:	d010      	beq.n	10000684 <main+0xa8>
10000662:	f004 f8b3 	bl	100047cc <__wrap_putchar>
10000666:	2c0d      	cmp	r4, #13
10000668:	d00c      	beq.n	10000684 <main+0xa8>
1000066a:	2c0a      	cmp	r4, #10
1000066c:	d0f4      	beq.n	10000658 <main+0x7c>
1000066e:	0028      	movs	r0, r5
10000670:	f006 fb54 	bl	10006d1c <strlen>
10000674:	28ff      	cmp	r0, #255	; 0xff
10000676:	d005      	beq.n	10000684 <main+0xa8>
10000678:	542c      	strb	r4, [r5, r0]
1000067a:	f004 f9a5 	bl	100049c8 <__wrap_getchar>
1000067e:	0004      	movs	r4, r0
10000680:	1c43      	adds	r3, r0, #1
10000682:	d1ee      	bne.n	10000662 <main+0x86>
10000684:	24d0      	movs	r4, #208	; 0xd0
10000686:	0624      	lsls	r4, r4, #24
10000688:	2001      	movs	r0, #1
1000068a:	6166      	str	r6, [r4, #20]
1000068c:	f000 ff06 	bl	1000149c <sleep_ms>
10000690:	61a6      	str	r6, [r4, #24]
10000692:	782b      	ldrb	r3, [r5, #0]
10000694:	2b0a      	cmp	r3, #10
10000696:	d021      	beq.n	100006dc <main+0x100>
10000698:	3b61      	subs	r3, #97	; 0x61
1000069a:	b2db      	uxtb	r3, r3
1000069c:	2b12      	cmp	r3, #18
1000069e:	d806      	bhi.n	100006ae <main+0xd2>
100006a0:	009b      	lsls	r3, r3, #2
100006a2:	58fb      	ldr	r3, [r7, r3]
100006a4:	469f      	mov	pc, r3
100006a6:	f7ff fe77 	bl	10000398 <print_flag>
100006aa:	2800      	cmp	r0, #0
100006ac:	d1ce      	bne.n	1000064c <main+0x70>
100006ae:	4640      	mov	r0, r8
100006b0:	f004 f8d8 	bl	10004864 <__wrap_puts>
100006b4:	e7c9      	b.n	1000064a <main+0x6e>
100006b6:	4648      	mov	r0, r9
100006b8:	f004 f8d4 	bl	10004864 <__wrap_puts>
100006bc:	e7c6      	b.n	1000064c <main+0x70>
100006be:	f7ff ff4f 	bl	10000560 <raptor_flag>
100006c2:	e7f2      	b.n	100006aa <main+0xce>
100006c4:	f7ff ff02 	bl	100004cc <change_pin>
100006c8:	e7ef      	b.n	100006aa <main+0xce>
100006ca:	f7ff fe93 	bl	100003f4 <crypto_flag>
100006ce:	e7ec      	b.n	100006aa <main+0xce>
100006d0:	f7ff ff56 	bl	10000580 <baby_flag>
100006d4:	e7e9      	b.n	100006aa <main+0xce>
100006d6:	f7ff fe15 	bl	10000304 <authenticate>
100006da:	e7e6      	b.n	100006aa <main+0xce>
100006dc:	f7ff ff76 	bl	100005cc <narnia_flag>
100006e0:	e7e3      	b.n	100006aa <main+0xce>
100006e2:	f7ff ff31 	bl	10000548 <reset>
100006e6:	46c0      	nop			; (mov r8, r8)
100006e8:	20001cec 	.word	0x20001cec
100006ec:	100070b0 	.word	0x100070b0
100006f0:	10006f3c 	.word	0x10006f3c
100006f4:	10006ff0 	.word	0x10006ff0
100006f8:	100070bc 	.word	0x100070bc

100006fc <gpio_init>:
100006fc:	2301      	movs	r3, #1
100006fe:	22d0      	movs	r2, #208	; 0xd0
10000700:	4083      	lsls	r3, r0
10000702:	0612      	lsls	r2, r2, #24
10000704:	6293      	str	r3, [r2, #40]	; 0x28
10000706:	6193      	str	r3, [r2, #24]
10000708:	4a09      	ldr	r2, [pc, #36]	; (10000730 <gpio_init+0x34>)
1000070a:	0083      	lsls	r3, r0, #2
1000070c:	4694      	mov	ip, r2
1000070e:	2240      	movs	r2, #64	; 0x40
10000710:	4463      	add	r3, ip
10000712:	6819      	ldr	r1, [r3, #0]
10000714:	00c0      	lsls	r0, r0, #3
10000716:	404a      	eors	r2, r1
10000718:	21c0      	movs	r1, #192	; 0xc0
1000071a:	4011      	ands	r1, r2
1000071c:	2280      	movs	r2, #128	; 0x80
1000071e:	0152      	lsls	r2, r2, #5
10000720:	4313      	orrs	r3, r2
10000722:	6019      	str	r1, [r3, #0]
10000724:	4b03      	ldr	r3, [pc, #12]	; (10000734 <gpio_init+0x38>)
10000726:	469c      	mov	ip, r3
10000728:	2305      	movs	r3, #5
1000072a:	4460      	add	r0, ip
1000072c:	6043      	str	r3, [r0, #4]
1000072e:	4770      	bx	lr
10000730:	4001c004 	.word	0x4001c004
10000734:	40014000 	.word	0x40014000

10000738 <running_on_fpga>:
10000738:	4b02      	ldr	r3, [pc, #8]	; (10000744 <running_on_fpga+0xc>)
1000073a:	6818      	ldr	r0, [r3, #0]
1000073c:	0780      	lsls	r0, r0, #30
1000073e:	0fc0      	lsrs	r0, r0, #31
10000740:	4770      	bx	lr
10000742:	46c0      	nop			; (mov r8, r8)
10000744:	4006c000 	.word	0x4006c000

10000748 <hw_claim_or_assert>:
10000748:	b570      	push	{r4, r5, r6, lr}
1000074a:	f3ef 8c10 	mrs	ip, PRIMASK
1000074e:	b672      	cpsid	i
10000750:	4d0d      	ldr	r5, [pc, #52]	; (10000788 <hw_claim_or_assert+0x40>)
10000752:	682b      	ldr	r3, [r5, #0]
10000754:	2b00      	cmp	r3, #0
10000756:	d0fc      	beq.n	10000752 <hw_claim_or_assert+0xa>
10000758:	f3bf 8f5f 	dmb	sy
1000075c:	2407      	movs	r4, #7
1000075e:	08cb      	lsrs	r3, r1, #3
10000760:	18c6      	adds	r6, r0, r3
10000762:	5cc0      	ldrb	r0, [r0, r3]
10000764:	2301      	movs	r3, #1
10000766:	400c      	ands	r4, r1
10000768:	40a3      	lsls	r3, r4
1000076a:	001c      	movs	r4, r3
1000076c:	4004      	ands	r4, r0
1000076e:	4203      	tst	r3, r0
10000770:	d107      	bne.n	10000782 <hw_claim_or_assert+0x3a>
10000772:	4303      	orrs	r3, r0
10000774:	7033      	strb	r3, [r6, #0]
10000776:	f3bf 8f5f 	dmb	sy
1000077a:	602c      	str	r4, [r5, #0]
1000077c:	f38c 8810 	msr	PRIMASK, ip
10000780:	bd70      	pop	{r4, r5, r6, pc}
10000782:	0010      	movs	r0, r2
10000784:	f001 fd1a 	bl	100021bc <panic>
10000788:	d000012c 	.word	0xd000012c

1000078c <hw_claim_unused_from_range>:
1000078c:	b5f8      	push	{r3, r4, r5, r6, r7, lr}
1000078e:	4647      	mov	r7, r8
10000790:	46ce      	mov	lr, r9
10000792:	4688      	mov	r8, r1
10000794:	b580      	push	{r7, lr}
10000796:	f3ef 8c10 	mrs	ip, PRIMASK
1000079a:	b672      	cpsid	i
1000079c:	4d21      	ldr	r5, [pc, #132]	; (10000824 <hw_claim_unused_from_range+0x98>)
1000079e:	682c      	ldr	r4, [r5, #0]
100007a0:	2c00      	cmp	r4, #0
100007a2:	d0fc      	beq.n	1000079e <hw_claim_unused_from_range+0x12>
100007a4:	f3bf 8f5f 	dmb	sy
100007a8:	429a      	cmp	r2, r3
100007aa:	d82c      	bhi.n	10000806 <hw_claim_unused_from_range+0x7a>
100007ac:	08d4      	lsrs	r4, r2, #3
100007ae:	2707      	movs	r7, #7
100007b0:	5d05      	ldrb	r5, [r0, r4]
100007b2:	1906      	adds	r6, r0, r4
100007b4:	2401      	movs	r4, #1
100007b6:	4017      	ands	r7, r2
100007b8:	40bc      	lsls	r4, r7
100007ba:	422c      	tst	r4, r5
100007bc:	d01f      	beq.n	100007fe <hw_claim_unused_from_range+0x72>
100007be:	2107      	movs	r1, #7
100007c0:	2701      	movs	r7, #1
100007c2:	4689      	mov	r9, r1
100007c4:	e009      	b.n	100007da <hw_claim_unused_from_range+0x4e>
100007c6:	08d4      	lsrs	r4, r2, #3
100007c8:	5d05      	ldrb	r5, [r0, r4]
100007ca:	1906      	adds	r6, r0, r4
100007cc:	464c      	mov	r4, r9
100007ce:	0039      	movs	r1, r7
100007d0:	4014      	ands	r4, r2
100007d2:	40a1      	lsls	r1, r4
100007d4:	000c      	movs	r4, r1
100007d6:	4229      	tst	r1, r5
100007d8:	d011      	beq.n	100007fe <hw_claim_unused_from_range+0x72>
100007da:	3201      	adds	r2, #1
100007dc:	4293      	cmp	r3, r2
100007de:	d2f2      	bcs.n	100007c6 <hw_claim_unused_from_range+0x3a>
100007e0:	2001      	movs	r0, #1
100007e2:	4240      	negs	r0, r0
100007e4:	f3bf 8f5f 	dmb	sy
100007e8:	2200      	movs	r2, #0
100007ea:	4b0e      	ldr	r3, [pc, #56]	; (10000824 <hw_claim_unused_from_range+0x98>)
100007ec:	601a      	str	r2, [r3, #0]
100007ee:	f38c 8810 	msr	PRIMASK, ip
100007f2:	2800      	cmp	r0, #0
100007f4:	db0f      	blt.n	10000816 <hw_claim_unused_from_range+0x8a>
100007f6:	bcc0      	pop	{r6, r7}
100007f8:	46b9      	mov	r9, r7
100007fa:	46b0      	mov	r8, r6
100007fc:	bdf8      	pop	{r3, r4, r5, r6, r7, pc}
100007fe:	432c      	orrs	r4, r5
10000800:	0010      	movs	r0, r2
10000802:	7034      	strb	r4, [r6, #0]
10000804:	e7ee      	b.n	100007e4 <hw_claim_unused_from_range+0x58>
10000806:	f3bf 8f5f 	dmb	sy
1000080a:	2300      	movs	r3, #0
1000080c:	602b      	str	r3, [r5, #0]
1000080e:	f38c 8810 	msr	PRIMASK, ip
10000812:	2001      	movs	r0, #1
10000814:	4240      	negs	r0, r0
10000816:	4643      	mov	r3, r8
10000818:	2b00      	cmp	r3, #0
1000081a:	d0ec      	beq.n	100007f6 <hw_claim_unused_from_range+0x6a>
1000081c:	9808      	ldr	r0, [sp, #32]
1000081e:	f001 fccd 	bl	100021bc <panic>
10000822:	46c0      	nop			; (mov r8, r8)
10000824:	d000012c 	.word	0xd000012c

10000828 <spin_locks_reset>:
10000828:	2100      	movs	r1, #0
1000082a:	4b04      	ldr	r3, [pc, #16]	; (1000083c <spin_locks_reset+0x14>)
1000082c:	4a04      	ldr	r2, [pc, #16]	; (10000840 <spin_locks_reset+0x18>)
1000082e:	f3bf 8f5f 	dmb	sy
10000832:	c302      	stmia	r3!, {r1}
10000834:	4293      	cmp	r3, r2
10000836:	d1fa      	bne.n	1000082e <spin_locks_reset+0x6>
10000838:	4770      	bx	lr
1000083a:	46c0      	nop			; (mov r8, r8)
1000083c:	d0000100 	.word	0xd0000100
10000840:	d0000180 	.word	0xd0000180

10000844 <next_striped_spin_lock_num>:
10000844:	4a04      	ldr	r2, [pc, #16]	; (10000858 <next_striped_spin_lock_num+0x14>)
10000846:	7810      	ldrb	r0, [r2, #0]
10000848:	1c43      	adds	r3, r0, #1
1000084a:	b2db      	uxtb	r3, r3
1000084c:	2b17      	cmp	r3, #23
1000084e:	d900      	bls.n	10000852 <next_striped_spin_lock_num+0xe>
10000850:	2310      	movs	r3, #16
10000852:	7013      	strb	r3, [r2, #0]
10000854:	4770      	bx	lr
10000856:	46c0      	nop			; (mov r8, r8)
10000858:	20000e64 	.word	0x20000e64

1000085c <spin_lock_claim_unused>:
1000085c:	b500      	push	{lr}
1000085e:	4b05      	ldr	r3, [pc, #20]	; (10000874 <spin_lock_claim_unused+0x18>)
10000860:	b083      	sub	sp, #12
10000862:	0001      	movs	r1, r0
10000864:	9300      	str	r3, [sp, #0]
10000866:	2218      	movs	r2, #24
10000868:	231f      	movs	r3, #31
1000086a:	4803      	ldr	r0, [pc, #12]	; (10000878 <spin_lock_claim_unused+0x1c>)
1000086c:	f7ff ff8e 	bl	1000078c <hw_claim_unused_from_range>
10000870:	b003      	add	sp, #12
10000872:	bd00      	pop	{pc}
10000874:	1000721c 	.word	0x1000721c
10000878:	200017e0 	.word	0x200017e0

1000087c <irq_set_enabled>:
1000087c:	2301      	movs	r3, #1
1000087e:	4083      	lsls	r3, r0
10000880:	2900      	cmp	r1, #0
10000882:	d004      	beq.n	1000088e <irq_set_enabled+0x12>
10000884:	4a03      	ldr	r2, [pc, #12]	; (10000894 <irq_set_enabled+0x18>)
10000886:	6013      	str	r3, [r2, #0]
10000888:	4a03      	ldr	r2, [pc, #12]	; (10000898 <irq_set_enabled+0x1c>)
1000088a:	6013      	str	r3, [r2, #0]
1000088c:	4770      	bx	lr
1000088e:	4a03      	ldr	r2, [pc, #12]	; (1000089c <irq_set_enabled+0x20>)
10000890:	6013      	str	r3, [r2, #0]
10000892:	e7fb      	b.n	1000088c <irq_set_enabled+0x10>
10000894:	e000e280 	.word	0xe000e280
10000898:	e000e100 	.word	0xe000e100
1000089c:	e000e180 	.word	0xe000e180

100008a0 <irq_set_pending>:
100008a0:	2301      	movs	r3, #1
100008a2:	4083      	lsls	r3, r0
100008a4:	4a01      	ldr	r2, [pc, #4]	; (100008ac <irq_set_pending+0xc>)
100008a6:	6013      	str	r3, [r2, #0]
100008a8:	4770      	bx	lr
100008aa:	46c0      	nop			; (mov r8, r8)
100008ac:	e000e200 	.word	0xe000e200

100008b0 <irq_has_shared_handler>:
100008b0:	4b08      	ldr	r3, [pc, #32]	; (100008d4 <irq_has_shared_handler+0x24>)
100008b2:	3010      	adds	r0, #16
100008b4:	689b      	ldr	r3, [r3, #8]
100008b6:	0080      	lsls	r0, r0, #2
100008b8:	58c3      	ldr	r3, [r0, r3]
100008ba:	2b00      	cmp	r3, #0
100008bc:	d007      	beq.n	100008ce <irq_has_shared_handler+0x1e>
100008be:	4a06      	ldr	r2, [pc, #24]	; (100008d8 <irq_has_shared_handler+0x28>)
100008c0:	2000      	movs	r0, #0
100008c2:	1a9b      	subs	r3, r3, r2
100008c4:	222f      	movs	r2, #47	; 0x2f
100008c6:	429a      	cmp	r2, r3
100008c8:	4140      	adcs	r0, r0
100008ca:	b2c0      	uxtb	r0, r0
100008cc:	4770      	bx	lr
100008ce:	2000      	movs	r0, #0
100008d0:	e7fc      	b.n	100008cc <irq_has_shared_handler+0x1c>
100008d2:	46c0      	nop			; (mov r8, r8)
100008d4:	e000ed00 	.word	0xe000ed00
100008d8:	20000e68 	.word	0x20000e68

100008dc <irq_get_vtable_handler>:
100008dc:	4b02      	ldr	r3, [pc, #8]	; (100008e8 <irq_get_vtable_handler+0xc>)
100008de:	3010      	adds	r0, #16
100008e0:	689b      	ldr	r3, [r3, #8]
100008e2:	0080      	lsls	r0, r0, #2
100008e4:	58c0      	ldr	r0, [r0, r3]
100008e6:	4770      	bx	lr
100008e8:	e000ed00 	.word	0xe000ed00

100008ec <irq_set_exclusive_handler>:
100008ec:	b570      	push	{r4, r5, r6, lr}
100008ee:	000d      	movs	r5, r1
100008f0:	f3ef 8610 	mrs	r6, PRIMASK
100008f4:	b672      	cpsid	i
100008f6:	4a0f      	ldr	r2, [pc, #60]	; (10000934 <irq_set_exclusive_handler+0x48>)
100008f8:	6813      	ldr	r3, [r2, #0]
100008fa:	2b00      	cmp	r3, #0
100008fc:	d0fc      	beq.n	100008f8 <irq_set_exclusive_handler+0xc>
100008fe:	f3bf 8f5f 	dmb	sy
10000902:	4b0d      	ldr	r3, [pc, #52]	; (10000938 <irq_set_exclusive_handler+0x4c>)
10000904:	3010      	adds	r0, #16
10000906:	689b      	ldr	r3, [r3, #8]
10000908:	0084      	lsls	r4, r0, #2
1000090a:	591b      	ldr	r3, [r3, r4]
1000090c:	4a0b      	ldr	r2, [pc, #44]	; (1000093c <irq_set_exclusive_handler+0x50>)
1000090e:	4293      	cmp	r3, r2
10000910:	d003      	beq.n	1000091a <irq_set_exclusive_handler+0x2e>
10000912:	429d      	cmp	r5, r3
10000914:	d001      	beq.n	1000091a <irq_set_exclusive_handler+0x2e>
10000916:	f001 fc69 	bl	100021ec <hard_assertion_failure>
1000091a:	4b07      	ldr	r3, [pc, #28]	; (10000938 <irq_set_exclusive_handler+0x4c>)
1000091c:	689b      	ldr	r3, [r3, #8]
1000091e:	511d      	str	r5, [r3, r4]
10000920:	f3bf 8f5f 	dmb	sy
10000924:	f3bf 8f5f 	dmb	sy
10000928:	2200      	movs	r2, #0
1000092a:	4b02      	ldr	r3, [pc, #8]	; (10000934 <irq_set_exclusive_handler+0x48>)
1000092c:	601a      	str	r2, [r3, #0]
1000092e:	f386 8810 	msr	PRIMASK, r6
10000932:	bd70      	pop	{r4, r5, r6, pc}
10000934:	d0000124 	.word	0xd0000124
10000938:	e000ed00 	.word	0xe000ed00
1000093c:	100001cd 	.word	0x100001cd

10000940 <irq_add_shared_handler>:
10000940:	b5f0      	push	{r4, r5, r6, r7, lr}
10000942:	4657      	mov	r7, sl
10000944:	464e      	mov	r6, r9
10000946:	46de      	mov	lr, fp
10000948:	4645      	mov	r5, r8
1000094a:	b5e0      	push	{r5, r6, r7, lr}
1000094c:	b085      	sub	sp, #20
1000094e:	0006      	movs	r6, r0
10000950:	9102      	str	r1, [sp, #8]
10000952:	0017      	movs	r7, r2
10000954:	f3ef 8b10 	mrs	fp, PRIMASK
10000958:	b672      	cpsid	i
1000095a:	4a67      	ldr	r2, [pc, #412]	; (10000af8 <irq_add_shared_handler+0x1b8>)
1000095c:	6813      	ldr	r3, [r2, #0]
1000095e:	2b00      	cmp	r3, #0
10000960:	d0fc      	beq.n	1000095c <irq_add_shared_handler+0x1c>
10000962:	f3bf 8f5f 	dmb	sy
10000966:	2500      	movs	r5, #0
10000968:	4b64      	ldr	r3, [pc, #400]	; (10000afc <irq_add_shared_handler+0x1bc>)
1000096a:	575d      	ldrsb	r5, [r3, r5]
1000096c:	469a      	mov	sl, r3
1000096e:	2d00      	cmp	r5, #0
10000970:	da00      	bge.n	10000974 <irq_add_shared_handler+0x34>
10000972:	e0a4      	b.n	10000abe <irq_add_shared_handler+0x17e>
10000974:	006b      	lsls	r3, r5, #1
10000976:	4c62      	ldr	r4, [pc, #392]	; (10000b00 <irq_add_shared_handler+0x1c0>)
10000978:	9303      	str	r3, [sp, #12]
1000097a:	195b      	adds	r3, r3, r5
1000097c:	009b      	lsls	r3, r3, #2
1000097e:	4698      	mov	r8, r3
10000980:	46a1      	mov	r9, r4
10000982:	44c1      	add	r9, r8
10000984:	464b      	mov	r3, r9
10000986:	4652      	mov	r2, sl
10000988:	799b      	ldrb	r3, [r3, #6]
1000098a:	3610      	adds	r6, #16
1000098c:	7013      	strb	r3, [r2, #0]
1000098e:	4b5d      	ldr	r3, [pc, #372]	; (10000b04 <irq_add_shared_handler+0x1c4>)
10000990:	00b2      	lsls	r2, r6, #2
10000992:	689b      	ldr	r3, [r3, #8]
10000994:	9201      	str	r2, [sp, #4]
10000996:	5899      	ldr	r1, [r3, r2]
10000998:	1b0b      	subs	r3, r1, r4
1000099a:	2b2f      	cmp	r3, #47	; 0x2f
1000099c:	d934      	bls.n	10000a08 <irq_add_shared_handler+0xc8>
1000099e:	4b5a      	ldr	r3, [pc, #360]	; (10000b08 <irq_add_shared_handler+0x1c8>)
100009a0:	4299      	cmp	r1, r3
100009a2:	d000      	beq.n	100009a6 <irq_add_shared_handler+0x66>
100009a4:	e0a4      	b.n	10000af0 <irq_add_shared_handler+0x1b0>
100009a6:	9b03      	ldr	r3, [sp, #12]
100009a8:	4a58      	ldr	r2, [pc, #352]	; (10000b0c <irq_add_shared_handler+0x1cc>)
100009aa:	469c      	mov	ip, r3
100009ac:	4b58      	ldr	r3, [pc, #352]	; (10000b10 <irq_add_shared_handler+0x1d0>)
100009ae:	4465      	add	r5, ip
100009b0:	00ad      	lsls	r5, r5, #2
100009b2:	5363      	strh	r3, [r4, r5]
100009b4:	4643      	mov	r3, r8
100009b6:	3302      	adds	r3, #2
100009b8:	1965      	adds	r5, r4, r5
100009ba:	18e4      	adds	r4, r4, r3
100009bc:	4b55      	ldr	r3, [pc, #340]	; (10000b14 <irq_add_shared_handler+0x1d4>)
100009be:	2101      	movs	r1, #1
100009c0:	3b04      	subs	r3, #4
100009c2:	1b1b      	subs	r3, r3, r4
100009c4:	051b      	lsls	r3, r3, #20
100009c6:	0d5b      	lsrs	r3, r3, #21
100009c8:	4313      	orrs	r3, r2
100009ca:	806b      	strh	r3, [r5, #2]
100009cc:	4b52      	ldr	r3, [pc, #328]	; (10000b18 <irq_add_shared_handler+0x1d8>)
100009ce:	71ef      	strb	r7, [r5, #7]
100009d0:	80ab      	strh	r3, [r5, #4]
100009d2:	23ff      	movs	r3, #255	; 0xff
100009d4:	71ab      	strb	r3, [r5, #6]
100009d6:	9b02      	ldr	r3, [sp, #8]
100009d8:	60ab      	str	r3, [r5, #8]
100009da:	464b      	mov	r3, r9
100009dc:	430b      	orrs	r3, r1
100009de:	0019      	movs	r1, r3
100009e0:	4b48      	ldr	r3, [pc, #288]	; (10000b04 <irq_add_shared_handler+0x1c4>)
100009e2:	9a01      	ldr	r2, [sp, #4]
100009e4:	689b      	ldr	r3, [r3, #8]
100009e6:	5099      	str	r1, [r3, r2]
100009e8:	f3bf 8f5f 	dmb	sy
100009ec:	f3bf 8f5f 	dmb	sy
100009f0:	2200      	movs	r2, #0
100009f2:	4b41      	ldr	r3, [pc, #260]	; (10000af8 <irq_add_shared_handler+0x1b8>)
100009f4:	601a      	str	r2, [r3, #0]
100009f6:	f38b 8810 	msr	PRIMASK, fp
100009fa:	b005      	add	sp, #20
100009fc:	bcf0      	pop	{r4, r5, r6, r7}
100009fe:	46bb      	mov	fp, r7
10000a00:	46b2      	mov	sl, r6
10000a02:	46a9      	mov	r9, r5
10000a04:	46a0      	mov	r8, r4
10000a06:	bdf0      	pop	{r4, r5, r6, r7, pc}
10000a08:	2001      	movs	r0, #1
10000a0a:	000a      	movs	r2, r1
10000a0c:	4382      	bics	r2, r0
10000a0e:	79d3      	ldrb	r3, [r2, #7]
10000a10:	42bb      	cmp	r3, r7
10000a12:	d82f      	bhi.n	10000a74 <irq_add_shared_handler+0x134>
10000a14:	4645      	mov	r5, r8
10000a16:	464e      	mov	r6, r9
10000a18:	0013      	movs	r3, r2
10000a1a:	4940      	ldr	r1, [pc, #256]	; (10000b1c <irq_add_shared_handler+0x1dc>)
10000a1c:	1b1b      	subs	r3, r3, r4
10000a1e:	415b      	adcs	r3, r3
10000a20:	4359      	muls	r1, r3
10000a22:	0d09      	lsrs	r1, r1, #20
10000a24:	4b3a      	ldr	r3, [pc, #232]	; (10000b10 <irq_add_shared_handler+0x1d0>)
10000a26:	5363      	strh	r3, [r4, r5]
10000a28:	4b3a      	ldr	r3, [pc, #232]	; (10000b14 <irq_add_shared_handler+0x1d4>)
10000a2a:	3502      	adds	r5, #2
10000a2c:	1965      	adds	r5, r4, r5
10000a2e:	3b04      	subs	r3, #4
10000a30:	1b5b      	subs	r3, r3, r5
10000a32:	051b      	lsls	r3, r3, #20
10000a34:	4d35      	ldr	r5, [pc, #212]	; (10000b0c <irq_add_shared_handler+0x1cc>)
10000a36:	0d5b      	lsrs	r3, r3, #21
10000a38:	432b      	orrs	r3, r5
10000a3a:	8073      	strh	r3, [r6, #2]
10000a3c:	2604      	movs	r6, #4
10000a3e:	46b4      	mov	ip, r6
10000a40:	44e0      	add	r8, ip
10000a42:	4444      	add	r4, r8
10000a44:	1f13      	subs	r3, r2, #4
10000a46:	1b1b      	subs	r3, r3, r4
10000a48:	464c      	mov	r4, r9
10000a4a:	71a1      	strb	r1, [r4, #6]
10000a4c:	9902      	ldr	r1, [sp, #8]
10000a4e:	051b      	lsls	r3, r3, #20
10000a50:	60a1      	str	r1, [r4, #8]
10000a52:	4649      	mov	r1, r9
10000a54:	0d5b      	lsrs	r3, r3, #21
10000a56:	432b      	orrs	r3, r5
10000a58:	80a3      	strh	r3, [r4, #4]
10000a5a:	4b31      	ldr	r3, [pc, #196]	; (10000b20 <irq_add_shared_handler+0x1e0>)
10000a5c:	71e7      	strb	r7, [r4, #7]
10000a5e:	4301      	orrs	r1, r0
10000a60:	6013      	str	r3, [r2, #0]
10000a62:	e7bd      	b.n	100009e0 <irq_add_shared_handler+0xa0>
10000a64:	0058      	lsls	r0, r3, #1
10000a66:	18c0      	adds	r0, r0, r3
10000a68:	0080      	lsls	r0, r0, #2
10000a6a:	1820      	adds	r0, r4, r0
10000a6c:	79c6      	ldrb	r6, [r0, #7]
10000a6e:	42be      	cmp	r6, r7
10000a70:	d92b      	bls.n	10000aca <irq_add_shared_handler+0x18a>
10000a72:	0002      	movs	r2, r0
10000a74:	2306      	movs	r3, #6
10000a76:	56d3      	ldrsb	r3, [r2, r3]
10000a78:	2b00      	cmp	r3, #0
10000a7a:	daf3      	bge.n	10000a64 <irq_add_shared_handler+0x124>
10000a7c:	1d10      	adds	r0, r2, #4
10000a7e:	4682      	mov	sl, r0
10000a80:	4828      	ldr	r0, [pc, #160]	; (10000b24 <irq_add_shared_handler+0x1e4>)
10000a82:	4680      	mov	r8, r0
10000a84:	2604      	movs	r6, #4
10000a86:	4276      	negs	r6, r6
10000a88:	46b4      	mov	ip, r6
10000a8a:	44e1      	add	r9, ip
10000a8c:	4650      	mov	r0, sl
10000a8e:	464e      	mov	r6, r9
10000a90:	1a36      	subs	r6, r6, r0
10000a92:	0530      	lsls	r0, r6, #20
10000a94:	0d40      	lsrs	r0, r0, #21
10000a96:	4682      	mov	sl, r0
10000a98:	4656      	mov	r6, sl
10000a9a:	481c      	ldr	r0, [pc, #112]	; (10000b0c <irq_add_shared_handler+0x1cc>)
10000a9c:	7195      	strb	r5, [r2, #6]
10000a9e:	4306      	orrs	r6, r0
10000aa0:	8096      	strh	r6, [r2, #4]
10000aa2:	9a03      	ldr	r2, [sp, #12]
10000aa4:	4694      	mov	ip, r2
10000aa6:	4465      	add	r5, ip
10000aa8:	4a1d      	ldr	r2, [pc, #116]	; (10000b20 <irq_add_shared_handler+0x1e0>)
10000aaa:	00ad      	lsls	r5, r5, #2
10000aac:	1964      	adds	r4, r4, r5
10000aae:	6022      	str	r2, [r4, #0]
10000ab0:	4642      	mov	r2, r8
10000ab2:	71a3      	strb	r3, [r4, #6]
10000ab4:	9b02      	ldr	r3, [sp, #8]
10000ab6:	80a2      	strh	r2, [r4, #4]
10000ab8:	71e7      	strb	r7, [r4, #7]
10000aba:	60a3      	str	r3, [r4, #8]
10000abc:	e790      	b.n	100009e0 <irq_add_shared_handler+0xa0>
10000abe:	f001 fb95 	bl	100021ec <hard_assertion_failure>
10000ac2:	2500      	movs	r5, #0
10000ac4:	4653      	mov	r3, sl
10000ac6:	575d      	ldrsb	r5, [r3, r5]
10000ac8:	e754      	b.n	10000974 <irq_add_shared_handler+0x34>
10000aca:	1d10      	adds	r0, r2, #4
10000acc:	4682      	mov	sl, r0
10000ace:	8890      	ldrh	r0, [r2, #4]
10000ad0:	0540      	lsls	r0, r0, #21
10000ad2:	1500      	asrs	r0, r0, #20
10000ad4:	4684      	mov	ip, r0
10000ad6:	4640      	mov	r0, r8
10000ad8:	44d4      	add	ip, sl
10000ada:	4666      	mov	r6, ip
10000adc:	3004      	adds	r0, #4
10000ade:	1820      	adds	r0, r4, r0
10000ae0:	1a30      	subs	r0, r6, r0
10000ae2:	26e0      	movs	r6, #224	; 0xe0
10000ae4:	0500      	lsls	r0, r0, #20
10000ae6:	0d40      	lsrs	r0, r0, #21
10000ae8:	0236      	lsls	r6, r6, #8
10000aea:	4330      	orrs	r0, r6
10000aec:	4680      	mov	r8, r0
10000aee:	e7c9      	b.n	10000a84 <irq_add_shared_handler+0x144>
10000af0:	f001 fb7c 	bl	100021ec <hard_assertion_failure>
10000af4:	e757      	b.n	100009a6 <irq_add_shared_handler+0x66>
10000af6:	46c0      	nop			; (mov r8, r8)
10000af8:	d0000124 	.word	0xd0000124
10000afc:	20001e21 	.word	0x20001e21
10000b00:	20000e68 	.word	0x20000e68
10000b04:	e000ed00 	.word	0xe000ed00
10000b08:	100001cd 	.word	0x100001cd
10000b0c:	ffffe000 	.word	0xffffe000
10000b10:	ffffa100 	.word	0xffffa100
10000b14:	20000e98 	.word	0x20000e98
10000b18:	ffffbd01 	.word	0xffffbd01
10000b1c:	0000aaaa 	.word	0x0000aaaa
10000b20:	47804801 	.word	0x47804801
10000b24:	0000bd01 	.word	0x0000bd01

10000b28 <irq_remove_handler>:
10000b28:	b5f0      	push	{r4, r5, r6, r7, lr}
10000b2a:	46de      	mov	lr, fp
10000b2c:	4657      	mov	r7, sl
10000b2e:	464e      	mov	r6, r9
10000b30:	4645      	mov	r5, r8
10000b32:	b5e0      	push	{r5, r6, r7, lr}
10000b34:	000c      	movs	r4, r1
10000b36:	b083      	sub	sp, #12
10000b38:	f3ef 8910 	mrs	r9, PRIMASK
10000b3c:	b672      	cpsid	i
10000b3e:	4a58      	ldr	r2, [pc, #352]	; (10000ca0 <irq_remove_handler+0x178>)
10000b40:	6813      	ldr	r3, [r2, #0]
10000b42:	2b00      	cmp	r3, #0
10000b44:	d0fc      	beq.n	10000b40 <irq_remove_handler+0x18>
10000b46:	f3bf 8f5f 	dmb	sy
10000b4a:	4b56      	ldr	r3, [pc, #344]	; (10000ca4 <irq_remove_handler+0x17c>)
10000b4c:	689a      	ldr	r2, [r3, #8]
10000b4e:	0003      	movs	r3, r0
10000b50:	3310      	adds	r3, #16
10000b52:	009f      	lsls	r7, r3, #2
10000b54:	59d5      	ldr	r5, [r2, r7]
10000b56:	4a54      	ldr	r2, [pc, #336]	; (10000ca8 <irq_remove_handler+0x180>)
10000b58:	4690      	mov	r8, r2
10000b5a:	4295      	cmp	r5, r2
10000b5c:	d032      	beq.n	10000bc4 <irq_remove_handler+0x9c>
10000b5e:	42a5      	cmp	r5, r4
10000b60:	d043      	beq.n	10000bea <irq_remove_handler+0xc2>
10000b62:	4e52      	ldr	r6, [pc, #328]	; (10000cac <irq_remove_handler+0x184>)
10000b64:	1baa      	subs	r2, r5, r6
10000b66:	2a2f      	cmp	r2, #47	; 0x2f
10000b68:	d82c      	bhi.n	10000bc4 <irq_remove_handler+0x9c>
10000b6a:	2201      	movs	r2, #1
10000b6c:	4082      	lsls	r2, r0
10000b6e:	4692      	mov	sl, r2
10000b70:	4651      	mov	r1, sl
10000b72:	4a4f      	ldr	r2, [pc, #316]	; (10000cb0 <irq_remove_handler+0x188>)
10000b74:	6812      	ldr	r2, [r2, #0]
10000b76:	4011      	ands	r1, r2
10000b78:	9101      	str	r1, [sp, #4]
10000b7a:	4651      	mov	r1, sl
10000b7c:	4a4d      	ldr	r2, [pc, #308]	; (10000cb4 <irq_remove_handler+0x18c>)
10000b7e:	6011      	str	r1, [r2, #0]
10000b80:	f3bf 8f5f 	dmb	sy
10000b84:	f3ef 8205 	mrs	r2, IPSR
10000b88:	4693      	mov	fp, r2
10000b8a:	2a00      	cmp	r2, #0
10000b8c:	d133      	bne.n	10000bf6 <irq_remove_handler+0xce>
10000b8e:	2301      	movs	r3, #1
10000b90:	002a      	movs	r2, r5
10000b92:	439a      	bics	r2, r3
10000b94:	6893      	ldr	r3, [r2, #8]
10000b96:	429c      	cmp	r4, r3
10000b98:	d108      	bne.n	10000bac <irq_remove_handler+0x84>
10000b9a:	e077      	b.n	10000c8c <irq_remove_handler+0x164>
10000b9c:	004b      	lsls	r3, r1, #1
10000b9e:	185b      	adds	r3, r3, r1
10000ba0:	009b      	lsls	r3, r3, #2
10000ba2:	18f3      	adds	r3, r6, r3
10000ba4:	6899      	ldr	r1, [r3, #8]
10000ba6:	42a1      	cmp	r1, r4
10000ba8:	d02a      	beq.n	10000c00 <irq_remove_handler+0xd8>
10000baa:	001a      	movs	r2, r3
10000bac:	2106      	movs	r1, #6
10000bae:	5651      	ldrsb	r1, [r2, r1]
10000bb0:	2900      	cmp	r1, #0
10000bb2:	daf3      	bge.n	10000b9c <irq_remove_handler+0x74>
10000bb4:	9b01      	ldr	r3, [sp, #4]
10000bb6:	2b00      	cmp	r3, #0
10000bb8:	d019      	beq.n	10000bee <irq_remove_handler+0xc6>
10000bba:	4652      	mov	r2, sl
10000bbc:	4b3e      	ldr	r3, [pc, #248]	; (10000cb8 <irq_remove_handler+0x190>)
10000bbe:	601a      	str	r2, [r3, #0]
10000bc0:	4b3b      	ldr	r3, [pc, #236]	; (10000cb0 <irq_remove_handler+0x188>)
10000bc2:	601a      	str	r2, [r3, #0]
10000bc4:	4b37      	ldr	r3, [pc, #220]	; (10000ca4 <irq_remove_handler+0x17c>)
10000bc6:	689b      	ldr	r3, [r3, #8]
10000bc8:	51dd      	str	r5, [r3, r7]
10000bca:	f3bf 8f5f 	dmb	sy
10000bce:	f3bf 8f5f 	dmb	sy
10000bd2:	2200      	movs	r2, #0
10000bd4:	4b32      	ldr	r3, [pc, #200]	; (10000ca0 <irq_remove_handler+0x178>)
10000bd6:	601a      	str	r2, [r3, #0]
10000bd8:	f389 8810 	msr	PRIMASK, r9
10000bdc:	b003      	add	sp, #12
10000bde:	bcf0      	pop	{r4, r5, r6, r7}
10000be0:	46bb      	mov	fp, r7
10000be2:	46b2      	mov	sl, r6
10000be4:	46a9      	mov	r9, r5
10000be6:	46a0      	mov	r8, r4
10000be8:	bdf0      	pop	{r4, r5, r6, r7, pc}
10000bea:	0015      	movs	r5, r2
10000bec:	e7ea      	b.n	10000bc4 <irq_remove_handler+0x9c>
10000bee:	4652      	mov	r2, sl
10000bf0:	4b30      	ldr	r3, [pc, #192]	; (10000cb4 <irq_remove_handler+0x18c>)
10000bf2:	601a      	str	r2, [r3, #0]
10000bf4:	e7e6      	b.n	10000bc4 <irq_remove_handler+0x9c>
10000bf6:	4293      	cmp	r3, r2
10000bf8:	d0c9      	beq.n	10000b8e <irq_remove_handler+0x66>
10000bfa:	f001 faf7 	bl	100021ec <hard_assertion_failure>
10000bfe:	e7c6      	b.n	10000b8e <irq_remove_handler+0x66>
10000c00:	2106      	movs	r1, #6
10000c02:	5659      	ldrsb	r1, [r3, r1]
10000c04:	2900      	cmp	r1, #0
10000c06:	db21      	blt.n	10000c4c <irq_remove_handler+0x124>
10000c08:	004a      	lsls	r2, r1, #1
10000c0a:	1850      	adds	r0, r2, r1
10000c0c:	0080      	lsls	r0, r0, #2
10000c0e:	1834      	adds	r4, r6, r0
10000c10:	4680      	mov	r8, r0
10000c12:	68a0      	ldr	r0, [r4, #8]
10000c14:	6098      	str	r0, [r3, #8]
10000c16:	79e0      	ldrb	r0, [r4, #7]
10000c18:	71d8      	strb	r0, [r3, #7]
10000c1a:	2006      	movs	r0, #6
10000c1c:	5620      	ldrsb	r0, [r4, r0]
10000c1e:	7198      	strb	r0, [r3, #6]
10000c20:	2800      	cmp	r0, #0
10000c22:	db24      	blt.n	10000c6e <irq_remove_handler+0x146>
10000c24:	88a4      	ldrh	r4, [r4, #4]
10000c26:	1af0      	subs	r0, r6, r3
10000c28:	0564      	lsls	r4, r4, #21
10000c2a:	1524      	asrs	r4, r4, #20
10000c2c:	4444      	add	r4, r8
10000c2e:	1900      	adds	r0, r0, r4
10000c30:	24e0      	movs	r4, #224	; 0xe0
10000c32:	0500      	lsls	r0, r0, #20
10000c34:	0d40      	lsrs	r0, r0, #21
10000c36:	0224      	lsls	r4, r4, #8
10000c38:	4320      	orrs	r0, r4
10000c3a:	8098      	strh	r0, [r3, #4]
10000c3c:	1852      	adds	r2, r2, r1
10000c3e:	4b1f      	ldr	r3, [pc, #124]	; (10000cbc <irq_remove_handler+0x194>)
10000c40:	0092      	lsls	r2, r2, #2
10000c42:	18b6      	adds	r6, r6, r2
10000c44:	781a      	ldrb	r2, [r3, #0]
10000c46:	7019      	strb	r1, [r3, #0]
10000c48:	71b2      	strb	r2, [r6, #6]
10000c4a:	e7b3      	b.n	10000bb4 <irq_remove_handler+0x8c>
10000c4c:	4659      	mov	r1, fp
10000c4e:	2900      	cmp	r1, #0
10000c50:	d10f      	bne.n	10000c72 <irq_remove_handler+0x14a>
10000c52:	31ff      	adds	r1, #255	; 0xff
10000c54:	7191      	strb	r1, [r2, #6]
10000c56:	491a      	ldr	r1, [pc, #104]	; (10000cc0 <irq_remove_handler+0x198>)
10000c58:	8091      	strh	r1, [r2, #4]
10000c5a:	4918      	ldr	r1, [pc, #96]	; (10000cbc <irq_remove_handler+0x194>)
10000c5c:	780a      	ldrb	r2, [r1, #0]
10000c5e:	719a      	strb	r2, [r3, #6]
10000c60:	4a18      	ldr	r2, [pc, #96]	; (10000cc4 <irq_remove_handler+0x19c>)
10000c62:	1b9b      	subs	r3, r3, r6
10000c64:	415b      	adcs	r3, r3
10000c66:	435a      	muls	r2, r3
10000c68:	0d12      	lsrs	r2, r2, #20
10000c6a:	700a      	strb	r2, [r1, #0]
10000c6c:	e7a2      	b.n	10000bb4 <irq_remove_handler+0x8c>
10000c6e:	4816      	ldr	r0, [pc, #88]	; (10000cc8 <irq_remove_handler+0x1a0>)
10000c70:	e7e3      	b.n	10000c3a <irq_remove_handler+0x112>
10000c72:	4a16      	ldr	r2, [pc, #88]	; (10000ccc <irq_remove_handler+0x1a4>)
10000c74:	4916      	ldr	r1, [pc, #88]	; (10000cd0 <irq_remove_handler+0x1a8>)
10000c76:	1ad2      	subs	r2, r2, r3
10000c78:	3a08      	subs	r2, #8
10000c7a:	0250      	lsls	r0, r2, #9
10000c7c:	0d40      	lsrs	r0, r0, #21
10000c7e:	4301      	orrs	r1, r0
10000c80:	8099      	strh	r1, [r3, #4]
10000c82:	4914      	ldr	r1, [pc, #80]	; (10000cd4 <irq_remove_handler+0x1ac>)
10000c84:	0852      	lsrs	r2, r2, #1
10000c86:	430a      	orrs	r2, r1
10000c88:	80da      	strh	r2, [r3, #6]
10000c8a:	e793      	b.n	10000bb4 <irq_remove_handler+0x8c>
10000c8c:	2106      	movs	r1, #6
10000c8e:	5651      	ldrsb	r1, [r2, r1]
10000c90:	0013      	movs	r3, r2
10000c92:	2900      	cmp	r1, #0
10000c94:	dab8      	bge.n	10000c08 <irq_remove_handler+0xe0>
10000c96:	465a      	mov	r2, fp
10000c98:	2a00      	cmp	r2, #0
10000c9a:	d1ea      	bne.n	10000c72 <irq_remove_handler+0x14a>
10000c9c:	4645      	mov	r5, r8
10000c9e:	e7dc      	b.n	10000c5a <irq_remove_handler+0x132>
10000ca0:	d0000124 	.word	0xd0000124
10000ca4:	e000ed00 	.word	0xe000ed00
10000ca8:	100001cd 	.word	0x100001cd
10000cac:	20000e68 	.word	0x20000e68
10000cb0:	e000e100 	.word	0xe000e100
10000cb4:	e000e180 	.word	0xe000e180
10000cb8:	e000e280 	.word	0xe000e280
10000cbc:	20001e21 	.word	0x20001e21
10000cc0:	ffffbd01 	.word	0xffffbd01
10000cc4:	0000aaaa 	.word	0x0000aaaa
10000cc8:	0000bd01 	.word	0x0000bd01
10000ccc:	20000ea2 	.word	0x20000ea2
10000cd0:	fffff000 	.word	0xfffff000
10000cd4:	fffff800 	.word	0xfffff800

10000cd8 <irq_add_tail_to_free_list>:
10000cd8:	b570      	push	{r4, r5, r6, lr}
10000cda:	f3ef 8105 	mrs	r1, IPSR
10000cde:	2401      	movs	r4, #1
10000ce0:	4304      	orrs	r4, r0
10000ce2:	f3ef 8c10 	mrs	ip, PRIMASK
10000ce6:	b672      	cpsid	i
10000ce8:	4a21      	ldr	r2, [pc, #132]	; (10000d70 <irq_add_tail_to_free_list+0x98>)
10000cea:	6813      	ldr	r3, [r2, #0]
10000cec:	2b00      	cmp	r3, #0
10000cee:	d0fc      	beq.n	10000cea <irq_add_tail_to_free_list+0x12>
10000cf0:	f3bf 8f5f 	dmb	sy
10000cf4:	4b1f      	ldr	r3, [pc, #124]	; (10000d74 <irq_add_tail_to_free_list+0x9c>)
10000cf6:	0005      	movs	r5, r0
10000cf8:	4a1f      	ldr	r2, [pc, #124]	; (10000d78 <irq_add_tail_to_free_list+0xa0>)
10000cfa:	1aed      	subs	r5, r5, r3
10000cfc:	416d      	adcs	r5, r5
10000cfe:	436a      	muls	r2, r5
10000d00:	0d12      	lsrs	r2, r2, #20
10000d02:	4d1e      	ldr	r5, [pc, #120]	; (10000d7c <irq_add_tail_to_free_list+0xa4>)
10000d04:	0089      	lsls	r1, r1, #2
10000d06:	68ae      	ldr	r6, [r5, #8]
10000d08:	b252      	sxtb	r2, r2
10000d0a:	5876      	ldr	r6, [r6, r1]
10000d0c:	42a6      	cmp	r6, r4
10000d0e:	d01c      	beq.n	10000d4a <irq_add_tail_to_free_list+0x72>
10000d10:	2106      	movs	r1, #6
10000d12:	5659      	ldrsb	r1, [r3, r1]
10000d14:	4291      	cmp	r1, r2
10000d16:	d01c      	beq.n	10000d52 <irq_add_tail_to_free_list+0x7a>
10000d18:	2112      	movs	r1, #18
10000d1a:	5659      	ldrsb	r1, [r3, r1]
10000d1c:	4291      	cmp	r1, r2
10000d1e:	d022      	beq.n	10000d66 <irq_add_tail_to_free_list+0x8e>
10000d20:	211e      	movs	r1, #30
10000d22:	5659      	ldrsb	r1, [r3, r1]
10000d24:	4291      	cmp	r1, r2
10000d26:	d020      	beq.n	10000d6a <irq_add_tail_to_free_list+0x92>
10000d28:	212a      	movs	r1, #42	; 0x2a
10000d2a:	5659      	ldrsb	r1, [r3, r1]
10000d2c:	2403      	movs	r4, #3
10000d2e:	4291      	cmp	r1, r2
10000d30:	d010      	beq.n	10000d54 <irq_add_tail_to_free_list+0x7c>
10000d32:	4b13      	ldr	r3, [pc, #76]	; (10000d80 <irq_add_tail_to_free_list+0xa8>)
10000d34:	7819      	ldrb	r1, [r3, #0]
10000d36:	701a      	strb	r2, [r3, #0]
10000d38:	7181      	strb	r1, [r0, #6]
10000d3a:	f3bf 8f5f 	dmb	sy
10000d3e:	2200      	movs	r2, #0
10000d40:	4b0b      	ldr	r3, [pc, #44]	; (10000d70 <irq_add_tail_to_free_list+0x98>)
10000d42:	601a      	str	r2, [r3, #0]
10000d44:	f38c 8810 	msr	PRIMASK, ip
10000d48:	bd70      	pop	{r4, r5, r6, pc}
10000d4a:	68ab      	ldr	r3, [r5, #8]
10000d4c:	4c0d      	ldr	r4, [pc, #52]	; (10000d84 <irq_add_tail_to_free_list+0xac>)
10000d4e:	505c      	str	r4, [r3, r1]
10000d50:	e7ef      	b.n	10000d32 <irq_add_tail_to_free_list+0x5a>
10000d52:	2400      	movs	r4, #0
10000d54:	0061      	lsls	r1, r4, #1
10000d56:	1909      	adds	r1, r1, r4
10000d58:	0089      	lsls	r1, r1, #2
10000d5a:	185b      	adds	r3, r3, r1
10000d5c:	21ff      	movs	r1, #255	; 0xff
10000d5e:	7199      	strb	r1, [r3, #6]
10000d60:	4909      	ldr	r1, [pc, #36]	; (10000d88 <irq_add_tail_to_free_list+0xb0>)
10000d62:	8099      	strh	r1, [r3, #4]
10000d64:	e7e5      	b.n	10000d32 <irq_add_tail_to_free_list+0x5a>
10000d66:	2401      	movs	r4, #1
10000d68:	e7f4      	b.n	10000d54 <irq_add_tail_to_free_list+0x7c>
10000d6a:	2402      	movs	r4, #2
10000d6c:	e7f2      	b.n	10000d54 <irq_add_tail_to_free_list+0x7c>
10000d6e:	46c0      	nop			; (mov r8, r8)
10000d70:	d0000124 	.word	0xd0000124
10000d74:	20000e68 	.word	0x20000e68
10000d78:	0000aaaa 	.word	0x0000aaaa
10000d7c:	e000ed00 	.word	0xe000ed00
10000d80:	20001e21 	.word	0x20001e21
10000d84:	100001cd 	.word	0x100001cd
10000d88:	ffffbd01 	.word	0xffffbd01

10000d8c <irq_init_priorities>:
10000d8c:	4b05      	ldr	r3, [pc, #20]	; (10000da4 <irq_init_priorities+0x18>)
10000d8e:	4a06      	ldr	r2, [pc, #24]	; (10000da8 <irq_init_priorities+0x1c>)
10000d90:	6013      	str	r3, [r2, #0]
10000d92:	4a06      	ldr	r2, [pc, #24]	; (10000dac <irq_init_priorities+0x20>)
10000d94:	6013      	str	r3, [r2, #0]
10000d96:	6053      	str	r3, [r2, #4]
10000d98:	6093      	str	r3, [r2, #8]
10000d9a:	60d3      	str	r3, [r2, #12]
10000d9c:	6113      	str	r3, [r2, #16]
10000d9e:	6153      	str	r3, [r2, #20]
10000da0:	6193      	str	r3, [r2, #24]
10000da2:	4770      	bx	lr
10000da4:	80808080 	.word	0x80808080
10000da8:	e000e400 	.word	0xe000e400
10000dac:	e000e404 	.word	0xe000e404

10000db0 <user_irq_claim_unused>:
10000db0:	b500      	push	{lr}
10000db2:	4b07      	ldr	r3, [pc, #28]	; (10000dd0 <user_irq_claim_unused+0x20>)
10000db4:	b083      	sub	sp, #12
10000db6:	0001      	movs	r1, r0
10000db8:	9300      	str	r3, [sp, #0]
10000dba:	2200      	movs	r2, #0
10000dbc:	2305      	movs	r3, #5
10000dbe:	4805      	ldr	r0, [pc, #20]	; (10000dd4 <user_irq_claim_unused+0x24>)
10000dc0:	f7ff fce4 	bl	1000078c <hw_claim_unused_from_range>
10000dc4:	2800      	cmp	r0, #0
10000dc6:	db01      	blt.n	10000dcc <user_irq_claim_unused+0x1c>
10000dc8:	231f      	movs	r3, #31
10000dca:	1a18      	subs	r0, r3, r0
10000dcc:	b003      	add	sp, #12
10000dce:	bd00      	pop	{pc}
10000dd0:	10007238 	.word	0x10007238
10000dd4:	20001e26 	.word	0x20001e26

10000dd8 <lock_init>:
10000dd8:	4b02      	ldr	r3, [pc, #8]	; (10000de4 <lock_init+0xc>)
10000dda:	469c      	mov	ip, r3
10000ddc:	4461      	add	r1, ip
10000dde:	0089      	lsls	r1, r1, #2
10000de0:	6001      	str	r1, [r0, #0]
10000de2:	4770      	bx	lr
10000de4:	34000040 	.word	0x34000040

10000de8 <mutex_init>:
10000de8:	b510      	push	{r4, lr}
10000dea:	0004      	movs	r4, r0
10000dec:	f7ff fd2a 	bl	10000844 <next_striped_spin_lock_num>
10000df0:	0001      	movs	r1, r0
10000df2:	0020      	movs	r0, r4
10000df4:	f7ff fff0 	bl	10000dd8 <lock_init>
10000df8:	23ff      	movs	r3, #255	; 0xff
10000dfa:	7123      	strb	r3, [r4, #4]
10000dfc:	f3bf 8f5f 	dmb	sy
10000e00:	bd10      	pop	{r4, pc}
10000e02:	46c0      	nop			; (mov r8, r8)

10000e04 <recursive_mutex_init>:
10000e04:	b510      	push	{r4, lr}
10000e06:	0004      	movs	r4, r0
10000e08:	f7ff fd1c 	bl	10000844 <next_striped_spin_lock_num>
10000e0c:	0001      	movs	r1, r0
10000e0e:	0020      	movs	r0, r4
10000e10:	f7ff ffe2 	bl	10000dd8 <lock_init>
10000e14:	23ff      	movs	r3, #255	; 0xff
10000e16:	80a3      	strh	r3, [r4, #4]
10000e18:	f3bf 8f5f 	dmb	sy
10000e1c:	bd10      	pop	{r4, pc}
10000e1e:	46c0      	nop			; (mov r8, r8)

10000e20 <critical_section_init>:
10000e20:	b510      	push	{r4, lr}
10000e22:	0004      	movs	r4, r0
10000e24:	2001      	movs	r0, #1
10000e26:	f7ff fd19 	bl	1000085c <spin_lock_claim_unused>
10000e2a:	4b04      	ldr	r3, [pc, #16]	; (10000e3c <critical_section_init+0x1c>)
10000e2c:	469c      	mov	ip, r3
10000e2e:	4460      	add	r0, ip
10000e30:	0080      	lsls	r0, r0, #2
10000e32:	6020      	str	r0, [r4, #0]
10000e34:	f3bf 8f5f 	dmb	sy
10000e38:	bd10      	pop	{r4, pc}
10000e3a:	46c0      	nop			; (mov r8, r8)
10000e3c:	34000040 	.word	0x34000040

10000e40 <critical_section_init_with_lock_num>:
10000e40:	4b03      	ldr	r3, [pc, #12]	; (10000e50 <critical_section_init_with_lock_num+0x10>)
10000e42:	469c      	mov	ip, r3
10000e44:	4461      	add	r1, ip
10000e46:	0089      	lsls	r1, r1, #2
10000e48:	6001      	str	r1, [r0, #0]
10000e4a:	f3bf 8f5f 	dmb	sy
10000e4e:	4770      	bx	lr
10000e50:	34000040 	.word	0x34000040

10000e54 <timer_pool_entry_comparator>:
10000e54:	6883      	ldr	r3, [r0, #8]
10000e56:	480b      	ldr	r0, [pc, #44]	; (10000e84 <timer_pool_entry_comparator+0x30>)
10000e58:	b510      	push	{r4, lr}
10000e5a:	4684      	mov	ip, r0
10000e5c:	4461      	add	r1, ip
10000e5e:	4462      	add	r2, ip
10000e60:	0109      	lsls	r1, r1, #4
10000e62:	0112      	lsls	r2, r2, #4
10000e64:	189a      	adds	r2, r3, r2
10000e66:	1859      	adds	r1, r3, r1
10000e68:	6854      	ldr	r4, [r2, #4]
10000e6a:	684b      	ldr	r3, [r1, #4]
10000e6c:	2001      	movs	r0, #1
10000e6e:	429c      	cmp	r4, r3
10000e70:	d801      	bhi.n	10000e76 <timer_pool_entry_comparator+0x22>
10000e72:	d002      	beq.n	10000e7a <timer_pool_entry_comparator+0x26>
10000e74:	2000      	movs	r0, #0
10000e76:	b2c0      	uxtb	r0, r0
10000e78:	bd10      	pop	{r4, pc}
10000e7a:	6812      	ldr	r2, [r2, #0]
10000e7c:	680b      	ldr	r3, [r1, #0]
10000e7e:	429a      	cmp	r2, r3
10000e80:	d8f9      	bhi.n	10000e76 <timer_pool_entry_comparator+0x22>
10000e82:	e7f7      	b.n	10000e74 <timer_pool_entry_comparator+0x20>
10000e84:	0fffffff 	.word	0x0fffffff

10000e88 <sleep_until_callback>:
10000e88:	4b0a      	ldr	r3, [pc, #40]	; (10000eb4 <sleep_until_callback+0x2c>)
10000e8a:	6819      	ldr	r1, [r3, #0]
10000e8c:	f3ef 8010 	mrs	r0, PRIMASK
10000e90:	b672      	cpsid	i
10000e92:	680a      	ldr	r2, [r1, #0]
10000e94:	2a00      	cmp	r2, #0
10000e96:	d0fc      	beq.n	10000e92 <sleep_until_callback+0xa>
10000e98:	f3bf 8f5f 	dmb	sy
10000e9c:	681b      	ldr	r3, [r3, #0]
10000e9e:	f3bf 8f5f 	dmb	sy
10000ea2:	2200      	movs	r2, #0
10000ea4:	601a      	str	r2, [r3, #0]
10000ea6:	f380 8810 	msr	PRIMASK, r0
10000eaa:	bf40      	sev
10000eac:	2000      	movs	r0, #0
10000eae:	2100      	movs	r1, #0
10000eb0:	4770      	bx	lr
10000eb2:	46c0      	nop			; (mov r8, r8)
10000eb4:	20001df0 	.word	0x20001df0

10000eb8 <add_alarm_under_lock.isra.0>:
10000eb8:	b5f8      	push	{r3, r4, r5, r6, r7, lr}
10000eba:	4657      	mov	r7, sl
10000ebc:	464e      	mov	r6, r9
10000ebe:	4645      	mov	r5, r8
10000ec0:	46de      	mov	lr, fp
10000ec2:	b5e0      	push	{r5, r6, r7, lr}
10000ec4:	4699      	mov	r9, r3
10000ec6:	ab0c      	add	r3, sp, #48	; 0x30
10000ec8:	781c      	ldrb	r4, [r3, #0]
10000eca:	ab0d      	add	r3, sp, #52	; 0x34
10000ecc:	781b      	ldrb	r3, [r3, #0]
10000ece:	0006      	movs	r6, r0
10000ed0:	4690      	mov	r8, r2
10000ed2:	469a      	mov	sl, r3
10000ed4:	6807      	ldr	r7, [r0, #0]
10000ed6:	2c00      	cmp	r4, #0
10000ed8:	d111      	bne.n	10000efe <add_alarm_under_lock.isra.0+0x46>
10000eda:	7bbc      	ldrb	r4, [r7, #14]
10000edc:	2c00      	cmp	r4, #0
10000ede:	d042      	beq.n	10000f66 <add_alarm_under_lock.isra.0+0xae>
10000ee0:	0065      	lsls	r5, r4, #1
10000ee2:	683b      	ldr	r3, [r7, #0]
10000ee4:	192d      	adds	r5, r5, r4
10000ee6:	3d03      	subs	r5, #3
10000ee8:	1959      	adds	r1, r3, r5
10000eea:	784b      	ldrb	r3, [r1, #1]
10000eec:	73bb      	strb	r3, [r7, #14]
10000eee:	2b00      	cmp	r3, #0
10000ef0:	d100      	bne.n	10000ef4 <add_alarm_under_lock.isra.0+0x3c>
10000ef2:	73fb      	strb	r3, [r7, #15]
10000ef4:	2300      	movs	r3, #0
10000ef6:	708b      	strb	r3, [r1, #2]
10000ef8:	704b      	strb	r3, [r1, #1]
10000efa:	700b      	strb	r3, [r1, #0]
10000efc:	e004      	b.n	10000f08 <add_alarm_under_lock.isra.0+0x50>
10000efe:	0065      	lsls	r5, r4, #1
10000f00:	683b      	ldr	r3, [r7, #0]
10000f02:	192d      	adds	r5, r5, r4
10000f04:	3d03      	subs	r5, #3
10000f06:	1959      	adds	r1, r3, r5
10000f08:	68b2      	ldr	r2, [r6, #8]
10000f0a:	4b2a      	ldr	r3, [pc, #168]	; (10000fb4 <add_alarm_under_lock.isra.0+0xfc>)
10000f0c:	4694      	mov	ip, r2
10000f0e:	4642      	mov	r2, r8
10000f10:	18e3      	adds	r3, r4, r3
10000f12:	011b      	lsls	r3, r3, #4
10000f14:	4463      	add	r3, ip
10000f16:	601a      	str	r2, [r3, #0]
10000f18:	464a      	mov	r2, r9
10000f1a:	605a      	str	r2, [r3, #4]
10000f1c:	9a0a      	ldr	r2, [sp, #40]	; 0x28
10000f1e:	609a      	str	r2, [r3, #8]
10000f20:	9a0b      	ldr	r2, [sp, #44]	; 0x2c
10000f22:	60da      	str	r2, [r3, #12]
10000f24:	2300      	movs	r3, #0
10000f26:	708b      	strb	r3, [r1, #2]
10000f28:	704b      	strb	r3, [r1, #1]
10000f2a:	700b      	strb	r3, [r1, #0]
10000f2c:	7b7b      	ldrb	r3, [r7, #13]
10000f2e:	469b      	mov	fp, r3
10000f30:	2b00      	cmp	r3, #0
10000f32:	d02b      	beq.n	10000f8c <add_alarm_under_lock.isra.0+0xd4>
10000f34:	0022      	movs	r2, r4
10000f36:	4659      	mov	r1, fp
10000f38:	68b8      	ldr	r0, [r7, #8]
10000f3a:	687b      	ldr	r3, [r7, #4]
10000f3c:	4798      	blx	r3
10000f3e:	683a      	ldr	r2, [r7, #0]
10000f40:	2800      	cmp	r0, #0
10000f42:	d016      	beq.n	10000f72 <add_alarm_under_lock.isra.0+0xba>
10000f44:	465b      	mov	r3, fp
10000f46:	4658      	mov	r0, fp
10000f48:	005b      	lsls	r3, r3, #1
10000f4a:	445b      	add	r3, fp
10000f4c:	1955      	adds	r5, r2, r5
10000f4e:	3b03      	subs	r3, #3
10000f50:	70a8      	strb	r0, [r5, #2]
10000f52:	18d1      	adds	r1, r2, r3
10000f54:	5cd3      	ldrb	r3, [r2, r3]
10000f56:	2b00      	cmp	r3, #0
10000f58:	d000      	beq.n	10000f5c <add_alarm_under_lock.isra.0+0xa4>
10000f5a:	706b      	strb	r3, [r5, #1]
10000f5c:	465b      	mov	r3, fp
10000f5e:	700c      	strb	r4, [r1, #0]
10000f60:	737b      	strb	r3, [r7, #13]
10000f62:	45a3      	cmp	fp, r4
10000f64:	d013      	beq.n	10000f8e <add_alarm_under_lock.isra.0+0xd6>
10000f66:	bcf0      	pop	{r4, r5, r6, r7}
10000f68:	46bb      	mov	fp, r7
10000f6a:	46b2      	mov	sl, r6
10000f6c:	46a9      	mov	r9, r5
10000f6e:	46a0      	mov	r8, r4
10000f70:	bdf8      	pop	{r3, r4, r5, r6, r7, pc}
10000f72:	465b      	mov	r3, fp
10000f74:	005b      	lsls	r3, r3, #1
10000f76:	445b      	add	r3, fp
10000f78:	3b03      	subs	r3, #3
10000f7a:	18d3      	adds	r3, r2, r3
10000f7c:	709c      	strb	r4, [r3, #2]
10000f7e:	1951      	adds	r1, r2, r5
10000f80:	5d52      	ldrb	r2, [r2, r5]
10000f82:	2a00      	cmp	r2, #0
10000f84:	d000      	beq.n	10000f88 <add_alarm_under_lock.isra.0+0xd0>
10000f86:	705a      	strb	r2, [r3, #1]
10000f88:	465b      	mov	r3, fp
10000f8a:	700b      	strb	r3, [r1, #0]
10000f8c:	737c      	strb	r4, [r7, #13]
10000f8e:	4642      	mov	r2, r8
10000f90:	464b      	mov	r3, r9
10000f92:	7d30      	ldrb	r0, [r6, #20]
10000f94:	f000 fbcc 	bl	10001730 <hardware_alarm_set_target>
10000f98:	1e05      	subs	r5, r0, #0
10000f9a:	d006      	beq.n	10000faa <add_alarm_under_lock.isra.0+0xf2>
10000f9c:	4653      	mov	r3, sl
10000f9e:	2b00      	cmp	r3, #0
10000fa0:	d103      	bne.n	10000faa <add_alarm_under_lock.isra.0+0xf2>
10000fa2:	0021      	movs	r1, r4
10000fa4:	6830      	ldr	r0, [r6, #0]
10000fa6:	f000 fded 	bl	10001b84 <ph_remove_and_free_node>
10000faa:	9b0e      	ldr	r3, [sp, #56]	; 0x38
10000fac:	2b00      	cmp	r3, #0
10000fae:	d0da      	beq.n	10000f66 <add_alarm_under_lock.isra.0+0xae>
10000fb0:	701d      	strb	r5, [r3, #0]
10000fb2:	e7d8      	b.n	10000f66 <add_alarm_under_lock.isra.0+0xae>
10000fb4:	0fffffff 	.word	0x0fffffff

10000fb8 <alarm_pool_alarm_callback>:
10000fb8:	b5f0      	push	{r4, r5, r6, r7, lr}
10000fba:	46de      	mov	lr, fp
10000fbc:	4657      	mov	r7, sl
10000fbe:	464e      	mov	r6, r9
10000fc0:	4645      	mov	r5, r8
10000fc2:	2300      	movs	r3, #0
10000fc4:	b5e0      	push	{r5, r6, r7, lr}
10000fc6:	b08b      	sub	sp, #44	; 0x2c
10000fc8:	9308      	str	r3, [sp, #32]
10000fca:	4b66      	ldr	r3, [pc, #408]	; (10001164 <alarm_pool_alarm_callback+0x1ac>)
10000fcc:	0082      	lsls	r2, r0, #2
10000fce:	58d4      	ldr	r4, [r2, r3]
10000fd0:	2300      	movs	r3, #0
10000fd2:	469b      	mov	fp, r3
10000fd4:	9009      	str	r0, [sp, #36]	; 0x24
10000fd6:	f000 fb21 	bl	1000161c <time_us_64>
10000fda:	6862      	ldr	r2, [r4, #4]
10000fdc:	0006      	movs	r6, r0
10000fde:	000f      	movs	r7, r1
10000fe0:	f3ef 8510 	mrs	r5, PRIMASK
10000fe4:	b672      	cpsid	i
10000fe6:	6813      	ldr	r3, [r2, #0]
10000fe8:	2b00      	cmp	r3, #0
10000fea:	d0fc      	beq.n	10000fe6 <alarm_pool_alarm_callback+0x2e>
10000fec:	f3bf 8f5f 	dmb	sy
10000ff0:	6823      	ldr	r3, [r4, #0]
10000ff2:	469c      	mov	ip, r3
10000ff4:	7b5b      	ldrb	r3, [r3, #13]
10000ff6:	4699      	mov	r9, r3
10000ff8:	2b00      	cmp	r3, #0
10000ffa:	d068      	beq.n	100010ce <alarm_pool_alarm_callback+0x116>
10000ffc:	68a2      	ldr	r2, [r4, #8]
10000ffe:	4b5a      	ldr	r3, [pc, #360]	; (10001168 <alarm_pool_alarm_callback+0x1b0>)
10001000:	4690      	mov	r8, r2
10001002:	444b      	add	r3, r9
10001004:	011b      	lsls	r3, r3, #4
10001006:	4498      	add	r8, r3
10001008:	4643      	mov	r3, r8
1000100a:	681a      	ldr	r2, [r3, #0]
1000100c:	685b      	ldr	r3, [r3, #4]
1000100e:	0010      	movs	r0, r2
10001010:	0019      	movs	r1, r3
10001012:	1b80      	subs	r0, r0, r6
10001014:	41b9      	sbcs	r1, r7
10001016:	2900      	cmp	r1, #0
10001018:	dd63      	ble.n	100010e2 <alarm_pool_alarm_callback+0x12a>
1000101a:	9809      	ldr	r0, [sp, #36]	; 0x24
1000101c:	f000 fb88 	bl	10001730 <hardware_alarm_set_target>
10001020:	2300      	movs	r3, #0
10001022:	2200      	movs	r2, #0
10001024:	4698      	mov	r8, r3
10001026:	2300      	movs	r3, #0
10001028:	9206      	str	r2, [sp, #24]
1000102a:	9307      	str	r3, [sp, #28]
1000102c:	2300      	movs	r3, #0
1000102e:	469a      	mov	sl, r3
10001030:	6863      	ldr	r3, [r4, #4]
10001032:	f3bf 8f5f 	dmb	sy
10001036:	465a      	mov	r2, fp
10001038:	601a      	str	r2, [r3, #0]
1000103a:	f385 8810 	msr	PRIMASK, r5
1000103e:	4653      	mov	r3, sl
10001040:	2b00      	cmp	r3, #0
10001042:	d108      	bne.n	10001056 <alarm_pool_alarm_callback+0x9e>
10001044:	2800      	cmp	r0, #0
10001046:	d1c6      	bne.n	10000fd6 <alarm_pool_alarm_callback+0x1e>
10001048:	b00b      	add	sp, #44	; 0x2c
1000104a:	bcf0      	pop	{r4, r5, r6, r7}
1000104c:	46bb      	mov	fp, r7
1000104e:	46b2      	mov	sl, r6
10001050:	46a9      	mov	r9, r5
10001052:	46a0      	mov	r8, r4
10001054:	bdf0      	pop	{r4, r5, r6, r7, pc}
10001056:	9b08      	ldr	r3, [sp, #32]
10001058:	4641      	mov	r1, r8
1000105a:	0218      	lsls	r0, r3, #8
1000105c:	464b      	mov	r3, r9
1000105e:	4318      	orrs	r0, r3
10001060:	47d0      	blx	sl
10001062:	6862      	ldr	r2, [r4, #4]
10001064:	0006      	movs	r6, r0
10001066:	000f      	movs	r7, r1
10001068:	f3ef 8510 	mrs	r5, PRIMASK
1000106c:	b672      	cpsid	i
1000106e:	6813      	ldr	r3, [r2, #0]
10001070:	2b00      	cmp	r3, #0
10001072:	d0fc      	beq.n	1000106e <alarm_pool_alarm_callback+0xb6>
10001074:	f3bf 8f5f 	dmb	sy
10001078:	2f00      	cmp	r7, #0
1000107a:	db4f      	blt.n	1000111c <alarm_pool_alarm_callback+0x164>
1000107c:	0033      	movs	r3, r6
1000107e:	433b      	orrs	r3, r7
10001080:	d002      	beq.n	10001088 <alarm_pool_alarm_callback+0xd0>
10001082:	6923      	ldr	r3, [r4, #16]
10001084:	2b00      	cmp	r3, #0
10001086:	d160      	bne.n	1000114a <alarm_pool_alarm_callback+0x192>
10001088:	6823      	ldr	r3, [r4, #0]
1000108a:	7bd9      	ldrb	r1, [r3, #15]
1000108c:	2900      	cmp	r1, #0
1000108e:	d007      	beq.n	100010a0 <alarm_pool_alarm_callback+0xe8>
10001090:	004a      	lsls	r2, r1, #1
10001092:	1852      	adds	r2, r2, r1
10001094:	6819      	ldr	r1, [r3, #0]
10001096:	468c      	mov	ip, r1
10001098:	4649      	mov	r1, r9
1000109a:	4462      	add	r2, ip
1000109c:	3a03      	subs	r2, #3
1000109e:	7051      	strb	r1, [r2, #1]
100010a0:	7b9a      	ldrb	r2, [r3, #14]
100010a2:	2a00      	cmp	r2, #0
100010a4:	d101      	bne.n	100010aa <alarm_pool_alarm_callback+0xf2>
100010a6:	464a      	mov	r2, r9
100010a8:	739a      	strb	r2, [r3, #14]
100010aa:	464a      	mov	r2, r9
100010ac:	73da      	strb	r2, [r3, #15]
100010ae:	464b      	mov	r3, r9
100010b0:	68e1      	ldr	r1, [r4, #12]
100010b2:	3b01      	subs	r3, #1
100010b4:	5cca      	ldrb	r2, [r1, r3]
100010b6:	3201      	adds	r2, #1
100010b8:	54ca      	strb	r2, [r1, r3]
100010ba:	465b      	mov	r3, fp
100010bc:	6123      	str	r3, [r4, #16]
100010be:	6863      	ldr	r3, [r4, #4]
100010c0:	f3bf 8f5f 	dmb	sy
100010c4:	465a      	mov	r2, fp
100010c6:	601a      	str	r2, [r3, #0]
100010c8:	f385 8810 	msr	PRIMASK, r5
100010cc:	e783      	b.n	10000fd6 <alarm_pool_alarm_callback+0x1e>
100010ce:	2300      	movs	r3, #0
100010d0:	2200      	movs	r2, #0
100010d2:	4698      	mov	r8, r3
100010d4:	2300      	movs	r3, #0
100010d6:	9206      	str	r2, [sp, #24]
100010d8:	9307      	str	r3, [sp, #28]
100010da:	2300      	movs	r3, #0
100010dc:	2000      	movs	r0, #0
100010de:	469a      	mov	sl, r3
100010e0:	e7a6      	b.n	10001030 <alarm_pool_alarm_callback+0x78>
100010e2:	2900      	cmp	r1, #0
100010e4:	d101      	bne.n	100010ea <alarm_pool_alarm_callback+0x132>
100010e6:	2800      	cmp	r0, #0
100010e8:	d197      	bne.n	1000101a <alarm_pool_alarm_callback+0x62>
100010ea:	2100      	movs	r1, #0
100010ec:	4660      	mov	r0, ip
100010ee:	f000 fcc7 	bl	10001a80 <ph_remove_head>
100010f2:	4643      	mov	r3, r8
100010f4:	681a      	ldr	r2, [r3, #0]
100010f6:	685b      	ldr	r3, [r3, #4]
100010f8:	9206      	str	r2, [sp, #24]
100010fa:	9307      	str	r3, [sp, #28]
100010fc:	4643      	mov	r3, r8
100010fe:	689b      	ldr	r3, [r3, #8]
10001100:	469a      	mov	sl, r3
10001102:	4643      	mov	r3, r8
10001104:	68db      	ldr	r3, [r3, #12]
10001106:	4698      	mov	r8, r3
10001108:	68e3      	ldr	r3, [r4, #12]
1000110a:	444b      	add	r3, r9
1000110c:	3b01      	subs	r3, #1
1000110e:	781b      	ldrb	r3, [r3, #0]
10001110:	9308      	str	r3, [sp, #32]
10001112:	021b      	lsls	r3, r3, #8
10001114:	4303      	orrs	r3, r0
10001116:	6123      	str	r3, [r4, #16]
10001118:	2000      	movs	r0, #0
1000111a:	e789      	b.n	10001030 <alarm_pool_alarm_callback+0x78>
1000111c:	6923      	ldr	r3, [r4, #16]
1000111e:	2b00      	cmp	r3, #0
10001120:	d0b2      	beq.n	10001088 <alarm_pool_alarm_callback+0xd0>
10001122:	9a06      	ldr	r2, [sp, #24]
10001124:	9b07      	ldr	r3, [sp, #28]
10001126:	1b92      	subs	r2, r2, r6
10001128:	41bb      	sbcs	r3, r7
1000112a:	2b00      	cmp	r3, #0
1000112c:	db15      	blt.n	1000115a <alarm_pool_alarm_callback+0x1a2>
1000112e:	4659      	mov	r1, fp
10001130:	9104      	str	r1, [sp, #16]
10001132:	2101      	movs	r1, #1
10001134:	9103      	str	r1, [sp, #12]
10001136:	4649      	mov	r1, r9
10001138:	9102      	str	r1, [sp, #8]
1000113a:	4641      	mov	r1, r8
1000113c:	9101      	str	r1, [sp, #4]
1000113e:	4651      	mov	r1, sl
10001140:	0020      	movs	r0, r4
10001142:	9100      	str	r1, [sp, #0]
10001144:	f7ff feb8 	bl	10000eb8 <add_alarm_under_lock.isra.0>
10001148:	e7b7      	b.n	100010ba <alarm_pool_alarm_callback+0x102>
1000114a:	f000 fa67 	bl	1000161c <time_us_64>
1000114e:	0032      	movs	r2, r6
10001150:	003b      	movs	r3, r7
10001152:	1812      	adds	r2, r2, r0
10001154:	414b      	adcs	r3, r1
10001156:	2b00      	cmp	r3, #0
10001158:	dae9      	bge.n	1000112e <alarm_pool_alarm_callback+0x176>
1000115a:	2201      	movs	r2, #1
1000115c:	4b03      	ldr	r3, [pc, #12]	; (1000116c <alarm_pool_alarm_callback+0x1b4>)
1000115e:	4252      	negs	r2, r2
10001160:	e7e5      	b.n	1000112e <alarm_pool_alarm_callback+0x176>
10001162:	46c0      	nop			; (mov r8, r8)
10001164:	20001cd4 	.word	0x20001cd4
10001168:	0fffffff 	.word	0x0fffffff
1000116c:	7fffffff 	.word	0x7fffffff

10001170 <alarm_pool_init_default>:
10001170:	b510      	push	{r4, lr}
10001172:	4c14      	ldr	r4, [pc, #80]	; (100011c4 <alarm_pool_init_default+0x54>)
10001174:	6863      	ldr	r3, [r4, #4]
10001176:	2b00      	cmp	r3, #0
10001178:	d004      	beq.n	10001184 <alarm_pool_init_default+0x14>
1000117a:	210a      	movs	r1, #10
1000117c:	4812      	ldr	r0, [pc, #72]	; (100011c8 <alarm_pool_init_default+0x58>)
1000117e:	f7ff fe2b 	bl	10000dd8 <lock_init>
10001182:	bd10      	pop	{r4, pc}
10001184:	0023      	movs	r3, r4
10001186:	4a11      	ldr	r2, [pc, #68]	; (100011cc <alarm_pool_init_default+0x5c>)
10001188:	2110      	movs	r1, #16
1000118a:	6820      	ldr	r0, [r4, #0]
1000118c:	f000 fb92 	bl	100018b4 <ph_post_alloc_init>
10001190:	2003      	movs	r0, #3
10001192:	f000 fa37 	bl	10001604 <hardware_alarm_claim>
10001196:	2003      	movs	r0, #3
10001198:	f000 fb3a 	bl	10001810 <hardware_alarm_cancel>
1000119c:	2003      	movs	r0, #3
1000119e:	490c      	ldr	r1, [pc, #48]	; (100011d0 <alarm_pool_init_default+0x60>)
100011a0:	f000 fa80 	bl	100016a4 <hardware_alarm_set_callback>
100011a4:	f7ff fb4e 	bl	10000844 <next_striped_spin_lock_num>
100011a8:	4b0a      	ldr	r3, [pc, #40]	; (100011d4 <alarm_pool_init_default+0x64>)
100011aa:	469c      	mov	ip, r3
100011ac:	2303      	movs	r3, #3
100011ae:	7523      	strb	r3, [r4, #20]
100011b0:	23d0      	movs	r3, #208	; 0xd0
100011b2:	061b      	lsls	r3, r3, #24
100011b4:	681b      	ldr	r3, [r3, #0]
100011b6:	4460      	add	r0, ip
100011b8:	7563      	strb	r3, [r4, #21]
100011ba:	4b07      	ldr	r3, [pc, #28]	; (100011d8 <alarm_pool_init_default+0x68>)
100011bc:	0080      	lsls	r0, r0, #2
100011be:	6060      	str	r0, [r4, #4]
100011c0:	60dc      	str	r4, [r3, #12]
100011c2:	e7da      	b.n	1000117a <alarm_pool_init_default+0xa>
100011c4:	20000eb0 	.word	0x20000eb0
100011c8:	20001df0 	.word	0x20001df0
100011cc:	10000e55 	.word	0x10000e55
100011d0:	10000fb9 	.word	0x10000fb9
100011d4:	34000040 	.word	0x34000040
100011d8:	20001cd4 	.word	0x20001cd4

100011dc <alarm_pool_get_default>:
100011dc:	4800      	ldr	r0, [pc, #0]	; (100011e0 <alarm_pool_get_default+0x4>)
100011de:	4770      	bx	lr
100011e0:	20000eb0 	.word	0x20000eb0

100011e4 <alarm_pool_add_alarm_at>:
100011e4:	b5f0      	push	{r4, r5, r6, r7, lr}
100011e6:	4657      	mov	r7, sl
100011e8:	464e      	mov	r6, r9
100011ea:	4645      	mov	r5, r8
100011ec:	46de      	mov	lr, fp
100011ee:	b5e0      	push	{r5, r6, r7, lr}
100011f0:	b085      	sub	sp, #20
100011f2:	9301      	str	r3, [sp, #4]
100011f4:	ab10      	add	r3, sp, #64	; 0x40
100011f6:	781b      	ldrb	r3, [r3, #0]
100011f8:	0006      	movs	r6, r0
100011fa:	9303      	str	r3, [sp, #12]
100011fc:	2300      	movs	r3, #0
100011fe:	469a      	mov	sl, r3
10001200:	4698      	mov	r8, r3
10001202:	9200      	str	r2, [sp, #0]
10001204:	6872      	ldr	r2, [r6, #4]
10001206:	f3ef 8910 	mrs	r9, PRIMASK
1000120a:	b672      	cpsid	i
1000120c:	6813      	ldr	r3, [r2, #0]
1000120e:	2b00      	cmp	r3, #0
10001210:	d0fc      	beq.n	1000120c <alarm_pool_add_alarm_at+0x28>
10001212:	f3bf 8f5f 	dmb	sy
10001216:	6835      	ldr	r5, [r6, #0]
10001218:	7bac      	ldrb	r4, [r5, #14]
1000121a:	2c00      	cmp	r4, #0
1000121c:	d049      	beq.n	100012b2 <alarm_pool_add_alarm_at+0xce>
1000121e:	0067      	lsls	r7, r4, #1
10001220:	682b      	ldr	r3, [r5, #0]
10001222:	193f      	adds	r7, r7, r4
10001224:	3f03      	subs	r7, #3
10001226:	19db      	adds	r3, r3, r7
10001228:	785a      	ldrb	r2, [r3, #1]
1000122a:	73aa      	strb	r2, [r5, #14]
1000122c:	2a00      	cmp	r2, #0
1000122e:	d100      	bne.n	10001232 <alarm_pool_add_alarm_at+0x4e>
10001230:	73ea      	strb	r2, [r5, #15]
10001232:	68b1      	ldr	r1, [r6, #8]
10001234:	4a48      	ldr	r2, [pc, #288]	; (10001358 <alarm_pool_add_alarm_at+0x174>)
10001236:	468c      	mov	ip, r1
10001238:	9800      	ldr	r0, [sp, #0]
1000123a:	9901      	ldr	r1, [sp, #4]
1000123c:	18a2      	adds	r2, r4, r2
1000123e:	0112      	lsls	r2, r2, #4
10001240:	4462      	add	r2, ip
10001242:	6010      	str	r0, [r2, #0]
10001244:	6051      	str	r1, [r2, #4]
10001246:	990e      	ldr	r1, [sp, #56]	; 0x38
10001248:	6091      	str	r1, [r2, #8]
1000124a:	990f      	ldr	r1, [sp, #60]	; 0x3c
1000124c:	60d1      	str	r1, [r2, #12]
1000124e:	4642      	mov	r2, r8
10001250:	709a      	strb	r2, [r3, #2]
10001252:	705a      	strb	r2, [r3, #1]
10001254:	701a      	strb	r2, [r3, #0]
10001256:	7b6b      	ldrb	r3, [r5, #13]
10001258:	469b      	mov	fp, r3
1000125a:	2b00      	cmp	r3, #0
1000125c:	d045      	beq.n	100012ea <alarm_pool_add_alarm_at+0x106>
1000125e:	0022      	movs	r2, r4
10001260:	0019      	movs	r1, r3
10001262:	68a8      	ldr	r0, [r5, #8]
10001264:	686b      	ldr	r3, [r5, #4]
10001266:	4798      	blx	r3
10001268:	682a      	ldr	r2, [r5, #0]
1000126a:	2800      	cmp	r0, #0
1000126c:	d030      	beq.n	100012d0 <alarm_pool_add_alarm_at+0xec>
1000126e:	465b      	mov	r3, fp
10001270:	4658      	mov	r0, fp
10001272:	005b      	lsls	r3, r3, #1
10001274:	445b      	add	r3, fp
10001276:	19d7      	adds	r7, r2, r7
10001278:	3b03      	subs	r3, #3
1000127a:	70b8      	strb	r0, [r7, #2]
1000127c:	18d1      	adds	r1, r2, r3
1000127e:	5cd3      	ldrb	r3, [r2, r3]
10001280:	2b00      	cmp	r3, #0
10001282:	d000      	beq.n	10001286 <alarm_pool_add_alarm_at+0xa2>
10001284:	707b      	strb	r3, [r7, #1]
10001286:	465b      	mov	r3, fp
10001288:	700c      	strb	r4, [r1, #0]
1000128a:	736b      	strb	r3, [r5, #13]
1000128c:	455c      	cmp	r4, fp
1000128e:	d02d      	beq.n	100012ec <alarm_pool_add_alarm_at+0x108>
10001290:	68f3      	ldr	r3, [r6, #12]
10001292:	191b      	adds	r3, r3, r4
10001294:	3b01      	subs	r3, #1
10001296:	7818      	ldrb	r0, [r3, #0]
10001298:	6873      	ldr	r3, [r6, #4]
1000129a:	f3bf 8f5f 	dmb	sy
1000129e:	4642      	mov	r2, r8
100012a0:	601a      	str	r2, [r3, #0]
100012a2:	f389 8810 	msr	PRIMASK, r9
100012a6:	4653      	mov	r3, sl
100012a8:	2b00      	cmp	r3, #0
100012aa:	d12c      	bne.n	10001306 <alarm_pool_add_alarm_at+0x122>
100012ac:	0200      	lsls	r0, r0, #8
100012ae:	4320      	orrs	r0, r4
100012b0:	e007      	b.n	100012c2 <alarm_pool_add_alarm_at+0xde>
100012b2:	6873      	ldr	r3, [r6, #4]
100012b4:	f3bf 8f5f 	dmb	sy
100012b8:	601c      	str	r4, [r3, #0]
100012ba:	f389 8810 	msr	PRIMASK, r9
100012be:	2001      	movs	r0, #1
100012c0:	4240      	negs	r0, r0
100012c2:	b005      	add	sp, #20
100012c4:	bcf0      	pop	{r4, r5, r6, r7}
100012c6:	46bb      	mov	fp, r7
100012c8:	46b2      	mov	sl, r6
100012ca:	46a9      	mov	r9, r5
100012cc:	46a0      	mov	r8, r4
100012ce:	bdf0      	pop	{r4, r5, r6, r7, pc}
100012d0:	465b      	mov	r3, fp
100012d2:	005b      	lsls	r3, r3, #1
100012d4:	445b      	add	r3, fp
100012d6:	3b03      	subs	r3, #3
100012d8:	18d3      	adds	r3, r2, r3
100012da:	709c      	strb	r4, [r3, #2]
100012dc:	19d1      	adds	r1, r2, r7
100012de:	5dd2      	ldrb	r2, [r2, r7]
100012e0:	2a00      	cmp	r2, #0
100012e2:	d000      	beq.n	100012e6 <alarm_pool_add_alarm_at+0x102>
100012e4:	705a      	strb	r2, [r3, #1]
100012e6:	465b      	mov	r3, fp
100012e8:	700b      	strb	r3, [r1, #0]
100012ea:	736c      	strb	r4, [r5, #13]
100012ec:	7d30      	ldrb	r0, [r6, #20]
100012ee:	9a00      	ldr	r2, [sp, #0]
100012f0:	9b01      	ldr	r3, [sp, #4]
100012f2:	f000 fa1d 	bl	10001730 <hardware_alarm_set_target>
100012f6:	4682      	mov	sl, r0
100012f8:	2800      	cmp	r0, #0
100012fa:	d0c9      	beq.n	10001290 <alarm_pool_add_alarm_at+0xac>
100012fc:	0021      	movs	r1, r4
100012fe:	6830      	ldr	r0, [r6, #0]
10001300:	f000 fc40 	bl	10001b84 <ph_remove_and_free_node>
10001304:	e7c4      	b.n	10001290 <alarm_pool_add_alarm_at+0xac>
10001306:	9b03      	ldr	r3, [sp, #12]
10001308:	2b00      	cmp	r3, #0
1000130a:	d023      	beq.n	10001354 <alarm_pool_add_alarm_at+0x170>
1000130c:	9b0e      	ldr	r3, [sp, #56]	; 0x38
1000130e:	2000      	movs	r0, #0
10001310:	990f      	ldr	r1, [sp, #60]	; 0x3c
10001312:	4798      	blx	r3
10001314:	0003      	movs	r3, r0
10001316:	0004      	movs	r4, r0
10001318:	000d      	movs	r5, r1
1000131a:	430b      	orrs	r3, r1
1000131c:	d01a      	beq.n	10001354 <alarm_pool_add_alarm_at+0x170>
1000131e:	2900      	cmp	r1, #0
10001320:	da0a      	bge.n	10001338 <alarm_pool_add_alarm_at+0x154>
10001322:	9a00      	ldr	r2, [sp, #0]
10001324:	9b01      	ldr	r3, [sp, #4]
10001326:	1b12      	subs	r2, r2, r4
10001328:	41ab      	sbcs	r3, r5
1000132a:	9200      	str	r2, [sp, #0]
1000132c:	9301      	str	r3, [sp, #4]
1000132e:	2b00      	cmp	r3, #0
10001330:	db0a      	blt.n	10001348 <alarm_pool_add_alarm_at+0x164>
10001332:	9b03      	ldr	r3, [sp, #12]
10001334:	469a      	mov	sl, r3
10001336:	e765      	b.n	10001204 <alarm_pool_add_alarm_at+0x20>
10001338:	f000 f970 	bl	1000161c <time_us_64>
1000133c:	1824      	adds	r4, r4, r0
1000133e:	414d      	adcs	r5, r1
10001340:	9400      	str	r4, [sp, #0]
10001342:	9501      	str	r5, [sp, #4]
10001344:	2d00      	cmp	r5, #0
10001346:	daf4      	bge.n	10001332 <alarm_pool_add_alarm_at+0x14e>
10001348:	2301      	movs	r3, #1
1000134a:	4c04      	ldr	r4, [pc, #16]	; (1000135c <alarm_pool_add_alarm_at+0x178>)
1000134c:	425b      	negs	r3, r3
1000134e:	9300      	str	r3, [sp, #0]
10001350:	9401      	str	r4, [sp, #4]
10001352:	e7ee      	b.n	10001332 <alarm_pool_add_alarm_at+0x14e>
10001354:	2000      	movs	r0, #0
10001356:	e7b4      	b.n	100012c2 <alarm_pool_add_alarm_at+0xde>
10001358:	0fffffff 	.word	0x0fffffff
1000135c:	7fffffff 	.word	0x7fffffff

10001360 <alarm_pool_cancel_alarm>:
10001360:	b570      	push	{r4, r5, r6, lr}
10001362:	6842      	ldr	r2, [r0, #4]
10001364:	0004      	movs	r4, r0
10001366:	f3ef 8510 	mrs	r5, PRIMASK
1000136a:	b672      	cpsid	i
1000136c:	6813      	ldr	r3, [r2, #0]
1000136e:	2b00      	cmp	r3, #0
10001370:	d0fc      	beq.n	1000136c <alarm_pool_cancel_alarm+0xc>
10001372:	f3bf 8f5f 	dmb	sy
10001376:	6820      	ldr	r0, [r4, #0]
10001378:	b2ce      	uxtb	r6, r1
1000137a:	7b43      	ldrb	r3, [r0, #13]
1000137c:	42b3      	cmp	r3, r6
1000137e:	d00a      	beq.n	10001396 <alarm_pool_cancel_alarm+0x36>
10001380:	23ff      	movs	r3, #255	; 0xff
10001382:	400b      	ands	r3, r1
10001384:	005a      	lsls	r2, r3, #1
10001386:	18d3      	adds	r3, r2, r3
10001388:	6802      	ldr	r2, [r0, #0]
1000138a:	4694      	mov	ip, r2
1000138c:	4463      	add	r3, ip
1000138e:	3b03      	subs	r3, #3
10001390:	789b      	ldrb	r3, [r3, #2]
10001392:	2b00      	cmp	r3, #0
10001394:	d013      	beq.n	100013be <alarm_pool_cancel_alarm+0x5e>
10001396:	68e2      	ldr	r2, [r4, #12]
10001398:	23ff      	movs	r3, #255	; 0xff
1000139a:	4694      	mov	ip, r2
1000139c:	400b      	ands	r3, r1
1000139e:	4463      	add	r3, ip
100013a0:	3b01      	subs	r3, #1
100013a2:	0a0a      	lsrs	r2, r1, #8
100013a4:	7819      	ldrb	r1, [r3, #0]
100013a6:	b2d2      	uxtb	r2, r2
100013a8:	4291      	cmp	r1, r2
100013aa:	d00e      	beq.n	100013ca <alarm_pool_cancel_alarm+0x6a>
100013ac:	2000      	movs	r0, #0
100013ae:	6863      	ldr	r3, [r4, #4]
100013b0:	f3bf 8f5f 	dmb	sy
100013b4:	2200      	movs	r2, #0
100013b6:	601a      	str	r2, [r3, #0]
100013b8:	f385 8810 	msr	PRIMASK, r5
100013bc:	bd70      	pop	{r4, r5, r6, pc}
100013be:	6922      	ldr	r2, [r4, #16]
100013c0:	428a      	cmp	r2, r1
100013c2:	d1f3      	bne.n	100013ac <alarm_pool_cancel_alarm+0x4c>
100013c4:	2000      	movs	r0, #0
100013c6:	6123      	str	r3, [r4, #16]
100013c8:	e7f1      	b.n	100013ae <alarm_pool_cancel_alarm+0x4e>
100013ca:	0031      	movs	r1, r6
100013cc:	f000 fbda 	bl	10001b84 <ph_remove_and_free_node>
100013d0:	e7ed      	b.n	100013ae <alarm_pool_cancel_alarm+0x4e>
100013d2:	46c0      	nop			; (mov r8, r8)

100013d4 <alarm_pool_core_num>:
100013d4:	7d40      	ldrb	r0, [r0, #21]
100013d6:	4770      	bx	lr

100013d8 <sleep_until>:
100013d8:	b5f0      	push	{r4, r5, r6, r7, lr}
100013da:	0004      	movs	r4, r0
100013dc:	000d      	movs	r5, r1
100013de:	2606      	movs	r6, #6
100013e0:	4276      	negs	r6, r6
100013e2:	17f7      	asrs	r7, r6, #31
100013e4:	46c6      	mov	lr, r8
100013e6:	1936      	adds	r6, r6, r4
100013e8:	416f      	adcs	r7, r5
100013ea:	b500      	push	{lr}
100013ec:	b084      	sub	sp, #16
100013ee:	428f      	cmp	r7, r1
100013f0:	d814      	bhi.n	1000141c <sleep_until+0x44>
100013f2:	d011      	beq.n	10001418 <sleep_until+0x40>
100013f4:	f000 f912 	bl	1000161c <time_us_64>
100013f8:	0032      	movs	r2, r6
100013fa:	003b      	movs	r3, r7
100013fc:	1a12      	subs	r2, r2, r0
100013fe:	418b      	sbcs	r3, r1
10001400:	2b00      	cmp	r3, #0
10001402:	dc15      	bgt.n	10001430 <sleep_until+0x58>
10001404:	2b00      	cmp	r3, #0
10001406:	d03e      	beq.n	10001486 <sleep_until+0xae>
10001408:	0020      	movs	r0, r4
1000140a:	0029      	movs	r1, r5
1000140c:	f000 f93a 	bl	10001684 <busy_wait_until>
10001410:	b004      	add	sp, #16
10001412:	bc80      	pop	{r7}
10001414:	46b8      	mov	r8, r7
10001416:	bdf0      	pop	{r4, r5, r6, r7, pc}
10001418:	4286      	cmp	r6, r0
1000141a:	d9eb      	bls.n	100013f4 <sleep_until+0x1c>
1000141c:	2600      	movs	r6, #0
1000141e:	2700      	movs	r7, #0
10001420:	f000 f8fc 	bl	1000161c <time_us_64>
10001424:	0032      	movs	r2, r6
10001426:	003b      	movs	r3, r7
10001428:	1a12      	subs	r2, r2, r0
1000142a:	418b      	sbcs	r3, r1
1000142c:	2b00      	cmp	r3, #0
1000142e:	dde9      	ble.n	10001404 <sleep_until+0x2c>
10001430:	2300      	movs	r3, #0
10001432:	9302      	str	r3, [sp, #8]
10001434:	9301      	str	r3, [sp, #4]
10001436:	4b15      	ldr	r3, [pc, #84]	; (1000148c <sleep_until+0xb4>)
10001438:	0032      	movs	r2, r6
1000143a:	9300      	str	r3, [sp, #0]
1000143c:	4814      	ldr	r0, [pc, #80]	; (10001490 <sleep_until+0xb8>)
1000143e:	003b      	movs	r3, r7
10001440:	f7ff fed0 	bl	100011e4 <alarm_pool_add_alarm_at>
10001444:	2800      	cmp	r0, #0
10001446:	dbdf      	blt.n	10001408 <sleep_until+0x30>
10001448:	2300      	movs	r3, #0
1000144a:	4698      	mov	r8, r3
1000144c:	46bc      	mov	ip, r7
1000144e:	4a11      	ldr	r2, [pc, #68]	; (10001494 <sleep_until+0xbc>)
10001450:	4f11      	ldr	r7, [pc, #68]	; (10001498 <sleep_until+0xc0>)
10001452:	6a7b      	ldr	r3, [r7, #36]	; 0x24
10001454:	459c      	cmp	ip, r3
10001456:	d804      	bhi.n	10001462 <sleep_until+0x8a>
10001458:	6ab9      	ldr	r1, [r7, #40]	; 0x28
1000145a:	428e      	cmp	r6, r1
1000145c:	d9d4      	bls.n	10001408 <sleep_until+0x30>
1000145e:	459c      	cmp	ip, r3
10001460:	d1d2      	bne.n	10001408 <sleep_until+0x30>
10001462:	6811      	ldr	r1, [r2, #0]
10001464:	f3ef 8010 	mrs	r0, PRIMASK
10001468:	b672      	cpsid	i
1000146a:	680b      	ldr	r3, [r1, #0]
1000146c:	2b00      	cmp	r3, #0
1000146e:	d0fc      	beq.n	1000146a <sleep_until+0x92>
10001470:	f3bf 8f5f 	dmb	sy
10001474:	6813      	ldr	r3, [r2, #0]
10001476:	f3bf 8f5f 	dmb	sy
1000147a:	4641      	mov	r1, r8
1000147c:	6019      	str	r1, [r3, #0]
1000147e:	f380 8810 	msr	PRIMASK, r0
10001482:	bf20      	wfe
10001484:	e7e5      	b.n	10001452 <sleep_until+0x7a>
10001486:	2a00      	cmp	r2, #0
10001488:	d0be      	beq.n	10001408 <sleep_until+0x30>
1000148a:	e7d1      	b.n	10001430 <sleep_until+0x58>
1000148c:	10000e89 	.word	0x10000e89
10001490:	20000eb0 	.word	0x20000eb0
10001494:	20001df0 	.word	0x20001df0
10001498:	40054000 	.word	0x40054000

1000149c <sleep_ms>:
1000149c:	b570      	push	{r4, r5, r6, lr}
1000149e:	0006      	movs	r6, r0
100014a0:	f000 f8bc 	bl	1000161c <time_us_64>
100014a4:	22fa      	movs	r2, #250	; 0xfa
100014a6:	0004      	movs	r4, r0
100014a8:	000d      	movs	r5, r1
100014aa:	2300      	movs	r3, #0
100014ac:	0030      	movs	r0, r6
100014ae:	2100      	movs	r1, #0
100014b0:	0092      	lsls	r2, r2, #2
100014b2:	f003 f803 	bl	100044bc <__wrap___aeabi_lmul>
100014b6:	1900      	adds	r0, r0, r4
100014b8:	4169      	adcs	r1, r5
100014ba:	2900      	cmp	r1, #0
100014bc:	db02      	blt.n	100014c4 <sleep_ms+0x28>
100014be:	f7ff ff8b 	bl	100013d8 <sleep_until>
100014c2:	bd70      	pop	{r4, r5, r6, pc}
100014c4:	2001      	movs	r0, #1
100014c6:	4901      	ldr	r1, [pc, #4]	; (100014cc <sleep_ms+0x30>)
100014c8:	4240      	negs	r0, r0
100014ca:	e7f8      	b.n	100014be <sleep_ms+0x22>
100014cc:	7fffffff 	.word	0x7fffffff

100014d0 <best_effort_wfe_or_timeout>:
100014d0:	b570      	push	{r4, r5, r6, lr}
100014d2:	f3ef 8305 	mrs	r3, IPSR
100014d6:	0005      	movs	r5, r0
100014d8:	000c      	movs	r4, r1
100014da:	b084      	sub	sp, #16
100014dc:	2b00      	cmp	r3, #0
100014de:	d00a      	beq.n	100014f6 <best_effort_wfe_or_timeout+0x26>
100014e0:	4a16      	ldr	r2, [pc, #88]	; (1000153c <best_effort_wfe_or_timeout+0x6c>)
100014e2:	2000      	movs	r0, #0
100014e4:	6a53      	ldr	r3, [r2, #36]	; 0x24
100014e6:	429c      	cmp	r4, r3
100014e8:	d803      	bhi.n	100014f2 <best_effort_wfe_or_timeout+0x22>
100014ea:	6a92      	ldr	r2, [r2, #40]	; 0x28
100014ec:	3001      	adds	r0, #1
100014ee:	42aa      	cmp	r2, r5
100014f0:	d31f      	bcc.n	10001532 <best_effort_wfe_or_timeout+0x62>
100014f2:	b004      	add	sp, #16
100014f4:	bd70      	pop	{r4, r5, r6, pc}
100014f6:	4e12      	ldr	r6, [pc, #72]	; (10001540 <best_effort_wfe_or_timeout+0x70>)
100014f8:	9302      	str	r3, [sp, #8]
100014fa:	9301      	str	r3, [sp, #4]
100014fc:	4b11      	ldr	r3, [pc, #68]	; (10001544 <best_effort_wfe_or_timeout+0x74>)
100014fe:	0002      	movs	r2, r0
10001500:	9300      	str	r3, [sp, #0]
10001502:	0030      	movs	r0, r6
10001504:	000b      	movs	r3, r1
10001506:	f7ff fe6d 	bl	100011e4 <alarm_pool_add_alarm_at>
1000150a:	1e01      	subs	r1, r0, #0
1000150c:	dde8      	ble.n	100014e0 <best_effort_wfe_or_timeout+0x10>
1000150e:	bf20      	wfe
10001510:	0030      	movs	r0, r6
10001512:	f7ff ff25 	bl	10001360 <alarm_pool_cancel_alarm>
10001516:	4b09      	ldr	r3, [pc, #36]	; (1000153c <best_effort_wfe_or_timeout+0x6c>)
10001518:	2000      	movs	r0, #0
1000151a:	6a59      	ldr	r1, [r3, #36]	; 0x24
1000151c:	428c      	cmp	r4, r1
1000151e:	d8e8      	bhi.n	100014f2 <best_effort_wfe_or_timeout+0x22>
10001520:	6a9b      	ldr	r3, [r3, #40]	; 0x28
10001522:	3001      	adds	r0, #1
10001524:	42ab      	cmp	r3, r5
10001526:	d2e4      	bcs.n	100014f2 <best_effort_wfe_or_timeout+0x22>
10001528:	1a64      	subs	r4, r4, r1
1000152a:	1e63      	subs	r3, r4, #1
1000152c:	419c      	sbcs	r4, r3
1000152e:	b2e0      	uxtb	r0, r4
10001530:	e7df      	b.n	100014f2 <best_effort_wfe_or_timeout+0x22>
10001532:	1ae4      	subs	r4, r4, r3
10001534:	1e63      	subs	r3, r4, #1
10001536:	419c      	sbcs	r4, r3
10001538:	b2e0      	uxtb	r0, r4
1000153a:	e7da      	b.n	100014f2 <best_effort_wfe_or_timeout+0x22>
1000153c:	40054000 	.word	0x40054000
10001540:	20000eb0 	.word	0x20000eb0
10001544:	10000e89 	.word	0x10000e89

10001548 <hardware_alarm_irq_handler>:
10001548:	b5f0      	push	{r4, r5, r6, r7, lr}
1000154a:	f3ef 8205 	mrs	r2, IPSR
1000154e:	46d6      	mov	lr, sl
10001550:	464f      	mov	r7, r9
10001552:	4646      	mov	r6, r8
10001554:	0010      	movs	r0, r2
10001556:	b5c0      	push	{r6, r7, lr}
10001558:	3810      	subs	r0, #16
1000155a:	f3ef 8810 	mrs	r8, PRIMASK
1000155e:	b672      	cpsid	i
10001560:	4c21      	ldr	r4, [pc, #132]	; (100015e8 <hardware_alarm_irq_handler+0xa0>)
10001562:	6823      	ldr	r3, [r4, #0]
10001564:	2b00      	cmp	r3, #0
10001566:	d0fc      	beq.n	10001562 <hardware_alarm_irq_handler+0x1a>
10001568:	f3bf 8f5f 	dmb	sy
1000156c:	2301      	movs	r3, #1
1000156e:	0019      	movs	r1, r3
10001570:	4081      	lsls	r1, r0
10001572:	4d1e      	ldr	r5, [pc, #120]	; (100015ec <hardware_alarm_irq_handler+0xa4>)
10001574:	001f      	movs	r7, r3
10001576:	6369      	str	r1, [r5, #52]	; 0x34
10001578:	46aa      	mov	sl, r5
1000157a:	4d1d      	ldr	r5, [pc, #116]	; (100015f0 <hardware_alarm_irq_handler+0xa8>)
1000157c:	6029      	str	r1, [r5, #0]
1000157e:	4d1d      	ldr	r5, [pc, #116]	; (100015f4 <hardware_alarm_irq_handler+0xac>)
10001580:	782e      	ldrb	r6, [r5, #0]
10001582:	46ac      	mov	ip, r5
10001584:	0035      	movs	r5, r6
10001586:	40c5      	lsrs	r5, r0
10001588:	402f      	ands	r7, r5
1000158a:	422b      	tst	r3, r5
1000158c:	d109      	bne.n	100015a2 <hardware_alarm_irq_handler+0x5a>
1000158e:	f3bf 8f5f 	dmb	sy
10001592:	6027      	str	r7, [r4, #0]
10001594:	f388 8810 	msr	PRIMASK, r8
10001598:	bce0      	pop	{r5, r6, r7}
1000159a:	46ba      	mov	sl, r7
1000159c:	46b1      	mov	r9, r6
1000159e:	46a8      	mov	r8, r5
100015a0:	bdf0      	pop	{r4, r5, r6, r7, pc}
100015a2:	4653      	mov	r3, sl
100015a4:	4d14      	ldr	r5, [pc, #80]	; (100015f8 <hardware_alarm_irq_handler+0xb0>)
100015a6:	6a5f      	ldr	r7, [r3, #36]	; 0x24
100015a8:	0083      	lsls	r3, r0, #2
100015aa:	595d      	ldr	r5, [r3, r5]
100015ac:	42af      	cmp	r7, r5
100015ae:	d30e      	bcc.n	100015ce <hardware_alarm_irq_handler+0x86>
100015b0:	4a12      	ldr	r2, [pc, #72]	; (100015fc <hardware_alarm_irq_handler+0xb4>)
100015b2:	438e      	bics	r6, r1
100015b4:	589b      	ldr	r3, [r3, r2]
100015b6:	4662      	mov	r2, ip
100015b8:	7016      	strb	r6, [r2, #0]
100015ba:	f3bf 8f5f 	dmb	sy
100015be:	2200      	movs	r2, #0
100015c0:	6022      	str	r2, [r4, #0]
100015c2:	f388 8810 	msr	PRIMASK, r8
100015c6:	2b00      	cmp	r3, #0
100015c8:	d0e6      	beq.n	10001598 <hardware_alarm_irq_handler+0x50>
100015ca:	4798      	blx	r3
100015cc:	e7e4      	b.n	10001598 <hardware_alarm_irq_handler+0x50>
100015ce:	4b0c      	ldr	r3, [pc, #48]	; (10001600 <hardware_alarm_irq_handler+0xb8>)
100015d0:	0092      	lsls	r2, r2, #2
100015d2:	469c      	mov	ip, r3
100015d4:	4462      	add	r2, ip
100015d6:	6813      	ldr	r3, [r2, #0]
100015d8:	6013      	str	r3, [r2, #0]
100015da:	f3bf 8f5f 	dmb	sy
100015de:	2300      	movs	r3, #0
100015e0:	6023      	str	r3, [r4, #0]
100015e2:	f388 8810 	msr	PRIMASK, r8
100015e6:	e7d7      	b.n	10001598 <hardware_alarm_irq_handler+0x50>
100015e8:	d0000128 	.word	0xd0000128
100015ec:	40054000 	.word	0x40054000
100015f0:	4005703c 	.word	0x4005703c
100015f4:	20001e25 	.word	0x20001e25
100015f8:	20001dfc 	.word	0x20001dfc
100015fc:	200016c8 	.word	0x200016c8
10001600:	40053fd0 	.word	0x40053fd0

10001604 <hardware_alarm_claim>:
10001604:	b510      	push	{r4, lr}
10001606:	0001      	movs	r1, r0
10001608:	4a02      	ldr	r2, [pc, #8]	; (10001614 <hardware_alarm_claim+0x10>)
1000160a:	4803      	ldr	r0, [pc, #12]	; (10001618 <hardware_alarm_claim+0x14>)
1000160c:	f7ff f89c 	bl	10000748 <hw_claim_or_assert>
10001610:	bd10      	pop	{r4, pc}
10001612:	46c0      	nop			; (mov r8, r8)
10001614:	10007260 	.word	0x10007260
10001618:	20001e20 	.word	0x20001e20

1000161c <time_us_64>:
1000161c:	4b03      	ldr	r3, [pc, #12]	; (1000162c <time_us_64+0x10>)
1000161e:	6a59      	ldr	r1, [r3, #36]	; 0x24
10001620:	000a      	movs	r2, r1
10001622:	6a98      	ldr	r0, [r3, #40]	; 0x28
10001624:	6a59      	ldr	r1, [r3, #36]	; 0x24
10001626:	428a      	cmp	r2, r1
10001628:	d1fa      	bne.n	10001620 <time_us_64+0x4>
1000162a:	4770      	bx	lr
1000162c:	40054000 	.word	0x40054000

10001630 <busy_wait_us>:
10001630:	b570      	push	{r4, r5, r6, lr}
10001632:	0004      	movs	r4, r0
10001634:	000d      	movs	r5, r1
10001636:	4a12      	ldr	r2, [pc, #72]	; (10001680 <busy_wait_us+0x50>)
10001638:	6a53      	ldr	r3, [r2, #36]	; 0x24
1000163a:	0019      	movs	r1, r3
1000163c:	6a96      	ldr	r6, [r2, #40]	; 0x28
1000163e:	6a53      	ldr	r3, [r2, #36]	; 0x24
10001640:	428b      	cmp	r3, r1
10001642:	d1fa      	bne.n	1000163a <busy_wait_us+0xa>
10001644:	0030      	movs	r0, r6
10001646:	0019      	movs	r1, r3
10001648:	1824      	adds	r4, r4, r0
1000164a:	414d      	adcs	r5, r1
1000164c:	42ab      	cmp	r3, r5
1000164e:	d811      	bhi.n	10001674 <busy_wait_us+0x44>
10001650:	d00e      	beq.n	10001670 <busy_wait_us+0x40>
10001652:	002b      	movs	r3, r5
10001654:	490a      	ldr	r1, [pc, #40]	; (10001680 <busy_wait_us+0x50>)
10001656:	6a4a      	ldr	r2, [r1, #36]	; 0x24
10001658:	429a      	cmp	r2, r3
1000165a:	d3fc      	bcc.n	10001656 <busy_wait_us+0x26>
1000165c:	d107      	bne.n	1000166e <busy_wait_us+0x3e>
1000165e:	4a08      	ldr	r2, [pc, #32]	; (10001680 <busy_wait_us+0x50>)
10001660:	e002      	b.n	10001668 <busy_wait_us+0x38>
10001662:	6a51      	ldr	r1, [r2, #36]	; 0x24
10001664:	4299      	cmp	r1, r3
10001666:	d102      	bne.n	1000166e <busy_wait_us+0x3e>
10001668:	6a91      	ldr	r1, [r2, #40]	; 0x28
1000166a:	42a1      	cmp	r1, r4
1000166c:	d3f9      	bcc.n	10001662 <busy_wait_us+0x32>
1000166e:	bd70      	pop	{r4, r5, r6, pc}
10001670:	42a6      	cmp	r6, r4
10001672:	d9ee      	bls.n	10001652 <busy_wait_us+0x22>
10001674:	2301      	movs	r3, #1
10001676:	2401      	movs	r4, #1
10001678:	4264      	negs	r4, r4
1000167a:	17e5      	asrs	r5, r4, #31
1000167c:	425b      	negs	r3, r3
1000167e:	e7e9      	b.n	10001654 <busy_wait_us+0x24>
10001680:	40054000 	.word	0x40054000

10001684 <busy_wait_until>:
10001684:	4a06      	ldr	r2, [pc, #24]	; (100016a0 <busy_wait_until+0x1c>)
10001686:	6a53      	ldr	r3, [r2, #36]	; 0x24
10001688:	4299      	cmp	r1, r3
1000168a:	d8fc      	bhi.n	10001686 <busy_wait_until+0x2>
1000168c:	d107      	bne.n	1000169e <busy_wait_until+0x1a>
1000168e:	4b04      	ldr	r3, [pc, #16]	; (100016a0 <busy_wait_until+0x1c>)
10001690:	e002      	b.n	10001698 <busy_wait_until+0x14>
10001692:	6a5a      	ldr	r2, [r3, #36]	; 0x24
10001694:	4291      	cmp	r1, r2
10001696:	d102      	bne.n	1000169e <busy_wait_until+0x1a>
10001698:	6a9a      	ldr	r2, [r3, #40]	; 0x28
1000169a:	4282      	cmp	r2, r0
1000169c:	d3f9      	bcc.n	10001692 <busy_wait_until+0xe>
1000169e:	4770      	bx	lr
100016a0:	40054000 	.word	0x40054000

100016a4 <hardware_alarm_set_callback>:
100016a4:	b570      	push	{r4, r5, r6, lr}
100016a6:	0004      	movs	r4, r0
100016a8:	000d      	movs	r5, r1
100016aa:	f3ef 8610 	mrs	r6, PRIMASK
100016ae:	b672      	cpsid	i
100016b0:	4a1a      	ldr	r2, [pc, #104]	; (1000171c <hardware_alarm_set_callback+0x78>)
100016b2:	6813      	ldr	r3, [r2, #0]
100016b4:	2b00      	cmp	r3, #0
100016b6:	d0fc      	beq.n	100016b2 <hardware_alarm_set_callback+0xe>
100016b8:	f3bf 8f5f 	dmb	sy
100016bc:	2d00      	cmp	r5, #0
100016be:	d01b      	beq.n	100016f8 <hardware_alarm_set_callback+0x54>
100016c0:	0020      	movs	r0, r4
100016c2:	f7ff f90b 	bl	100008dc <irq_get_vtable_handler>
100016c6:	4916      	ldr	r1, [pc, #88]	; (10001720 <hardware_alarm_set_callback+0x7c>)
100016c8:	4281      	cmp	r1, r0
100016ca:	d00a      	beq.n	100016e2 <hardware_alarm_set_callback+0x3e>
100016cc:	0020      	movs	r0, r4
100016ce:	f7ff f90d 	bl	100008ec <irq_set_exclusive_handler>
100016d2:	2101      	movs	r1, #1
100016d4:	0020      	movs	r0, r4
100016d6:	f7ff f8d1 	bl	1000087c <irq_set_enabled>
100016da:	2301      	movs	r3, #1
100016dc:	40a3      	lsls	r3, r4
100016de:	4a11      	ldr	r2, [pc, #68]	; (10001724 <hardware_alarm_set_callback+0x80>)
100016e0:	6013      	str	r3, [r2, #0]
100016e2:	4b11      	ldr	r3, [pc, #68]	; (10001728 <hardware_alarm_set_callback+0x84>)
100016e4:	00a4      	lsls	r4, r4, #2
100016e6:	50e5      	str	r5, [r4, r3]
100016e8:	f3bf 8f5f 	dmb	sy
100016ec:	2200      	movs	r2, #0
100016ee:	4b0b      	ldr	r3, [pc, #44]	; (1000171c <hardware_alarm_set_callback+0x78>)
100016f0:	601a      	str	r2, [r3, #0]
100016f2:	f386 8810 	msr	PRIMASK, r6
100016f6:	bd70      	pop	{r4, r5, r6, pc}
100016f8:	4b0b      	ldr	r3, [pc, #44]	; (10001728 <hardware_alarm_set_callback+0x84>)
100016fa:	00a2      	lsls	r2, r4, #2
100016fc:	50d5      	str	r5, [r2, r3]
100016fe:	2201      	movs	r2, #1
10001700:	40a2      	lsls	r2, r4
10001702:	490a      	ldr	r1, [pc, #40]	; (1000172c <hardware_alarm_set_callback+0x88>)
10001704:	0020      	movs	r0, r4
10001706:	780b      	ldrb	r3, [r1, #0]
10001708:	4393      	bics	r3, r2
1000170a:	700b      	strb	r3, [r1, #0]
1000170c:	4904      	ldr	r1, [pc, #16]	; (10001720 <hardware_alarm_set_callback+0x7c>)
1000170e:	f7ff fa0b 	bl	10000b28 <irq_remove_handler>
10001712:	2100      	movs	r1, #0
10001714:	0020      	movs	r0, r4
10001716:	f7ff f8b1 	bl	1000087c <irq_set_enabled>
1000171a:	e7e5      	b.n	100016e8 <hardware_alarm_set_callback+0x44>
1000171c:	d0000128 	.word	0xd0000128
10001720:	10001549 	.word	0x10001549
10001724:	40056038 	.word	0x40056038
10001728:	200016c8 	.word	0x200016c8
1000172c:	20001e25 	.word	0x20001e25

10001730 <hardware_alarm_set_target>:
10001730:	b5f0      	push	{r4, r5, r6, r7, lr}
10001732:	464f      	mov	r7, r9
10001734:	46d6      	mov	lr, sl
10001736:	4646      	mov	r6, r8
10001738:	b5c0      	push	{r6, r7, lr}
1000173a:	0007      	movs	r7, r0
1000173c:	4c2f      	ldr	r4, [pc, #188]	; (100017fc <hardware_alarm_set_target+0xcc>)
1000173e:	6a61      	ldr	r1, [r4, #36]	; 0x24
10001740:	000d      	movs	r5, r1
10001742:	6aa6      	ldr	r6, [r4, #40]	; 0x28
10001744:	6a61      	ldr	r1, [r4, #36]	; 0x24
10001746:	42a9      	cmp	r1, r5
10001748:	d1fa      	bne.n	10001740 <hardware_alarm_set_target+0x10>
1000174a:	428b      	cmp	r3, r1
1000174c:	d808      	bhi.n	10001760 <hardware_alarm_set_target+0x30>
1000174e:	d005      	beq.n	1000175c <hardware_alarm_set_target+0x2c>
10001750:	2001      	movs	r0, #1
10001752:	bce0      	pop	{r5, r6, r7}
10001754:	46ba      	mov	sl, r7
10001756:	46b1      	mov	r9, r6
10001758:	46a8      	mov	r8, r5
1000175a:	bdf0      	pop	{r4, r5, r6, r7, pc}
1000175c:	42b2      	cmp	r2, r6
1000175e:	d9f7      	bls.n	10001750 <hardware_alarm_set_target+0x20>
10001760:	f3ef 8a10 	mrs	sl, PRIMASK
10001764:	b672      	cpsid	i
10001766:	4826      	ldr	r0, [pc, #152]	; (10001800 <hardware_alarm_set_target+0xd0>)
10001768:	6801      	ldr	r1, [r0, #0]
1000176a:	2900      	cmp	r1, #0
1000176c:	d0fc      	beq.n	10001768 <hardware_alarm_set_target+0x38>
1000176e:	f3bf 8f5f 	dmb	sy
10001772:	2501      	movs	r5, #1
10001774:	40bd      	lsls	r5, r7
10001776:	4923      	ldr	r1, [pc, #140]	; (10001804 <hardware_alarm_set_target+0xd4>)
10001778:	4c20      	ldr	r4, [pc, #128]	; (100017fc <hardware_alarm_set_target+0xcc>)
1000177a:	4688      	mov	r8, r1
1000177c:	7809      	ldrb	r1, [r1, #0]
1000177e:	4689      	mov	r9, r1
10001780:	4329      	orrs	r1, r5
10001782:	b2c9      	uxtb	r1, r1
10001784:	468c      	mov	ip, r1
10001786:	4641      	mov	r1, r8
10001788:	4660      	mov	r0, ip
1000178a:	7008      	strb	r0, [r1, #0]
1000178c:	1d39      	adds	r1, r7, #4
1000178e:	481e      	ldr	r0, [pc, #120]	; (10001808 <hardware_alarm_set_target+0xd8>)
10001790:	0089      	lsls	r1, r1, #2
10001792:	6365      	str	r5, [r4, #52]	; 0x34
10001794:	510a      	str	r2, [r1, r4]
10001796:	00b9      	lsls	r1, r7, #2
10001798:	500b      	str	r3, [r1, r0]
1000179a:	6a21      	ldr	r1, [r4, #32]
1000179c:	2000      	movs	r0, #0
1000179e:	4229      	tst	r1, r5
100017a0:	d019      	beq.n	100017d6 <hardware_alarm_set_target+0xa6>
100017a2:	6a61      	ldr	r1, [r4, #36]	; 0x24
100017a4:	0008      	movs	r0, r1
100017a6:	6aa6      	ldr	r6, [r4, #40]	; 0x28
100017a8:	6a61      	ldr	r1, [r4, #36]	; 0x24
100017aa:	4281      	cmp	r1, r0
100017ac:	d1fa      	bne.n	100017a4 <hardware_alarm_set_target+0x74>
100017ae:	428b      	cmp	r3, r1
100017b0:	d819      	bhi.n	100017e6 <hardware_alarm_set_target+0xb6>
100017b2:	d101      	bne.n	100017b8 <hardware_alarm_set_target+0x88>
100017b4:	42b2      	cmp	r2, r6
100017b6:	d816      	bhi.n	100017e6 <hardware_alarm_set_target+0xb6>
100017b8:	45cc      	cmp	ip, r9
100017ba:	d01d      	beq.n	100017f8 <hardware_alarm_set_target+0xc8>
100017bc:	4b0f      	ldr	r3, [pc, #60]	; (100017fc <hardware_alarm_set_target+0xcc>)
100017be:	201f      	movs	r0, #31
100017c0:	621d      	str	r5, [r3, #32]
100017c2:	635d      	str	r5, [r3, #52]	; 0x34
100017c4:	2301      	movs	r3, #1
100017c6:	4007      	ands	r7, r0
100017c8:	40bb      	lsls	r3, r7
100017ca:	4a10      	ldr	r2, [pc, #64]	; (1000180c <hardware_alarm_set_target+0xdc>)
100017cc:	381e      	subs	r0, #30
100017ce:	6013      	str	r3, [r2, #0]
100017d0:	4643      	mov	r3, r8
100017d2:	464a      	mov	r2, r9
100017d4:	701a      	strb	r2, [r3, #0]
100017d6:	f3bf 8f5f 	dmb	sy
100017da:	2200      	movs	r2, #0
100017dc:	4b08      	ldr	r3, [pc, #32]	; (10001800 <hardware_alarm_set_target+0xd0>)
100017de:	601a      	str	r2, [r3, #0]
100017e0:	f38a 8810 	msr	PRIMASK, sl
100017e4:	e7b5      	b.n	10001752 <hardware_alarm_set_target+0x22>
100017e6:	2000      	movs	r0, #0
100017e8:	f3bf 8f5f 	dmb	sy
100017ec:	2200      	movs	r2, #0
100017ee:	4b04      	ldr	r3, [pc, #16]	; (10001800 <hardware_alarm_set_target+0xd0>)
100017f0:	601a      	str	r2, [r3, #0]
100017f2:	f38a 8810 	msr	PRIMASK, sl
100017f6:	e7ac      	b.n	10001752 <hardware_alarm_set_target+0x22>
100017f8:	2001      	movs	r0, #1
100017fa:	e7ec      	b.n	100017d6 <hardware_alarm_set_target+0xa6>
100017fc:	40054000 	.word	0x40054000
10001800:	d0000128 	.word	0xd0000128
10001804:	20001e25 	.word	0x20001e25
10001808:	20001dfc 	.word	0x20001dfc
1000180c:	e000e280 	.word	0xe000e280

10001810 <hardware_alarm_cancel>:
10001810:	f3ef 8c10 	mrs	ip, PRIMASK
10001814:	b672      	cpsid	i
10001816:	490a      	ldr	r1, [pc, #40]	; (10001840 <hardware_alarm_cancel+0x30>)
10001818:	680b      	ldr	r3, [r1, #0]
1000181a:	2b00      	cmp	r3, #0
1000181c:	d0fc      	beq.n	10001818 <hardware_alarm_cancel+0x8>
1000181e:	f3bf 8f5f 	dmb	sy
10001822:	2301      	movs	r3, #1
10001824:	4083      	lsls	r3, r0
10001826:	4a07      	ldr	r2, [pc, #28]	; (10001844 <hardware_alarm_cancel+0x34>)
10001828:	4807      	ldr	r0, [pc, #28]	; (10001848 <hardware_alarm_cancel+0x38>)
1000182a:	6213      	str	r3, [r2, #32]
1000182c:	7802      	ldrb	r2, [r0, #0]
1000182e:	439a      	bics	r2, r3
10001830:	7002      	strb	r2, [r0, #0]
10001832:	f3bf 8f5f 	dmb	sy
10001836:	2300      	movs	r3, #0
10001838:	600b      	str	r3, [r1, #0]
1000183a:	f38c 8810 	msr	PRIMASK, ip
1000183e:	4770      	bx	lr
10001840:	d0000128 	.word	0xd0000128
10001844:	40054000 	.word	0x40054000
10001848:	20001e25 	.word	0x20001e25

1000184c <ph_merge_nodes>:
1000184c:	b570      	push	{r4, r5, r6, lr}
1000184e:	0005      	movs	r5, r0
10001850:	0014      	movs	r4, r2
10001852:	0016      	movs	r6, r2
10001854:	2900      	cmp	r1, #0
10001856:	d015      	beq.n	10001884 <ph_merge_nodes+0x38>
10001858:	000c      	movs	r4, r1
1000185a:	2a00      	cmp	r2, #0
1000185c:	d012      	beq.n	10001884 <ph_merge_nodes+0x38>
1000185e:	6880      	ldr	r0, [r0, #8]
10001860:	686b      	ldr	r3, [r5, #4]
10001862:	4798      	blx	r3
10001864:	6829      	ldr	r1, [r5, #0]
10001866:	2800      	cmp	r0, #0
10001868:	d00e      	beq.n	10001888 <ph_merge_nodes+0x3c>
1000186a:	0073      	lsls	r3, r6, #1
1000186c:	199b      	adds	r3, r3, r6
1000186e:	0062      	lsls	r2, r4, #1
10001870:	3b03      	subs	r3, #3
10001872:	1912      	adds	r2, r2, r4
10001874:	18cb      	adds	r3, r1, r3
10001876:	3a03      	subs	r2, #3
10001878:	709c      	strb	r4, [r3, #2]
1000187a:	1888      	adds	r0, r1, r2
1000187c:	5c8a      	ldrb	r2, [r1, r2]
1000187e:	2a00      	cmp	r2, #0
10001880:	d115      	bne.n	100018ae <ph_merge_nodes+0x62>
10001882:	7006      	strb	r6, [r0, #0]
10001884:	0020      	movs	r0, r4
10001886:	bd70      	pop	{r4, r5, r6, pc}
10001888:	0063      	lsls	r3, r4, #1
1000188a:	191b      	adds	r3, r3, r4
1000188c:	0072      	lsls	r2, r6, #1
1000188e:	3b03      	subs	r3, #3
10001890:	1992      	adds	r2, r2, r6
10001892:	18cb      	adds	r3, r1, r3
10001894:	3a03      	subs	r2, #3
10001896:	709e      	strb	r6, [r3, #2]
10001898:	1888      	adds	r0, r1, r2
1000189a:	5c8a      	ldrb	r2, [r1, r2]
1000189c:	2a00      	cmp	r2, #0
1000189e:	d102      	bne.n	100018a6 <ph_merge_nodes+0x5a>
100018a0:	7004      	strb	r4, [r0, #0]
100018a2:	0034      	movs	r4, r6
100018a4:	e7ee      	b.n	10001884 <ph_merge_nodes+0x38>
100018a6:	705a      	strb	r2, [r3, #1]
100018a8:	7004      	strb	r4, [r0, #0]
100018aa:	0034      	movs	r4, r6
100018ac:	e7ea      	b.n	10001884 <ph_merge_nodes+0x38>
100018ae:	705a      	strb	r2, [r3, #1]
100018b0:	7006      	strb	r6, [r0, #0]
100018b2:	e7e7      	b.n	10001884 <ph_merge_nodes+0x38>

100018b4 <ph_post_alloc_init>:
100018b4:	b530      	push	{r4, r5, lr}
100018b6:	6083      	str	r3, [r0, #8]
100018b8:	2300      	movs	r3, #0
100018ba:	b2cc      	uxtb	r4, r1
100018bc:	7343      	strb	r3, [r0, #13]
100018be:	3301      	adds	r3, #1
100018c0:	7304      	strb	r4, [r0, #12]
100018c2:	6042      	str	r2, [r0, #4]
100018c4:	7383      	strb	r3, [r0, #14]
100018c6:	73c4      	strb	r4, [r0, #15]
100018c8:	000d      	movs	r5, r1
100018ca:	6800      	ldr	r0, [r0, #0]
100018cc:	2c01      	cmp	r4, #1
100018ce:	d906      	bls.n	100018de <ph_post_alloc_init+0x2a>
100018d0:	1c42      	adds	r2, r0, #1
100018d2:	3301      	adds	r3, #1
100018d4:	b2db      	uxtb	r3, r3
100018d6:	7013      	strb	r3, [r2, #0]
100018d8:	3203      	adds	r2, #3
100018da:	429c      	cmp	r4, r3
100018dc:	d1f9      	bne.n	100018d2 <ph_post_alloc_init+0x1e>
100018de:	21ff      	movs	r1, #255	; 0xff
100018e0:	4029      	ands	r1, r5
100018e2:	004b      	lsls	r3, r1, #1
100018e4:	1859      	adds	r1, r3, r1
100018e6:	2300      	movs	r3, #0
100018e8:	1840      	adds	r0, r0, r1
100018ea:	3803      	subs	r0, #3
100018ec:	7043      	strb	r3, [r0, #1]
100018ee:	bd30      	pop	{r4, r5, pc}

100018f0 <ph_merge_two_pass>:
100018f0:	b5f8      	push	{r3, r4, r5, r6, r7, lr}
100018f2:	46ce      	mov	lr, r9
100018f4:	4647      	mov	r7, r8
100018f6:	0006      	movs	r6, r0
100018f8:	000c      	movs	r4, r1
100018fa:	b580      	push	{r7, lr}
100018fc:	2900      	cmp	r1, #0
100018fe:	d007      	beq.n	10001910 <ph_merge_two_pass+0x20>
10001900:	004d      	lsls	r5, r1, #1
10001902:	6803      	ldr	r3, [r0, #0]
10001904:	186d      	adds	r5, r5, r1
10001906:	3d03      	subs	r5, #3
10001908:	195a      	adds	r2, r3, r5
1000190a:	7857      	ldrb	r7, [r2, #1]
1000190c:	2f00      	cmp	r7, #0
1000190e:	d104      	bne.n	1000191a <ph_merge_two_pass+0x2a>
10001910:	0020      	movs	r0, r4
10001912:	bcc0      	pop	{r6, r7}
10001914:	46b9      	mov	r9, r7
10001916:	46b0      	mov	r8, r6
10001918:	bdf8      	pop	{r3, r4, r5, r6, r7, pc}
1000191a:	0079      	lsls	r1, r7, #1
1000191c:	19c9      	adds	r1, r1, r7
1000191e:	3903      	subs	r1, #3
10001920:	4688      	mov	r8, r1
10001922:	4443      	add	r3, r8
10001924:	7859      	ldrb	r1, [r3, #1]
10001926:	4689      	mov	r9, r1
10001928:	2100      	movs	r1, #0
1000192a:	7059      	strb	r1, [r3, #1]
1000192c:	7051      	strb	r1, [r2, #1]
1000192e:	6873      	ldr	r3, [r6, #4]
10001930:	003a      	movs	r2, r7
10001932:	0021      	movs	r1, r4
10001934:	6880      	ldr	r0, [r0, #8]
10001936:	4798      	blx	r3
10001938:	6833      	ldr	r3, [r6, #0]
1000193a:	2800      	cmp	r0, #0
1000193c:	d014      	beq.n	10001968 <ph_merge_two_pass+0x78>
1000193e:	4642      	mov	r2, r8
10001940:	189a      	adds	r2, r3, r2
10001942:	7094      	strb	r4, [r2, #2]
10001944:	1959      	adds	r1, r3, r5
10001946:	5d5b      	ldrb	r3, [r3, r5]
10001948:	2b00      	cmp	r3, #0
1000194a:	d000      	beq.n	1000194e <ph_merge_two_pass+0x5e>
1000194c:	7053      	strb	r3, [r2, #1]
1000194e:	700f      	strb	r7, [r1, #0]
10001950:	0027      	movs	r7, r4
10001952:	4649      	mov	r1, r9
10001954:	0030      	movs	r0, r6
10001956:	f7ff ffcb 	bl	100018f0 <ph_merge_two_pass>
1000195a:	0039      	movs	r1, r7
1000195c:	0002      	movs	r2, r0
1000195e:	0030      	movs	r0, r6
10001960:	f7ff ff74 	bl	1000184c <ph_merge_nodes>
10001964:	0004      	movs	r4, r0
10001966:	e7d3      	b.n	10001910 <ph_merge_two_pass+0x20>
10001968:	4642      	mov	r2, r8
1000196a:	4641      	mov	r1, r8
1000196c:	195d      	adds	r5, r3, r5
1000196e:	70af      	strb	r7, [r5, #2]
10001970:	189a      	adds	r2, r3, r2
10001972:	5c5b      	ldrb	r3, [r3, r1]
10001974:	2b00      	cmp	r3, #0
10001976:	d000      	beq.n	1000197a <ph_merge_two_pass+0x8a>
10001978:	706b      	strb	r3, [r5, #1]
1000197a:	7014      	strb	r4, [r2, #0]
1000197c:	e7e9      	b.n	10001952 <ph_merge_two_pass+0x62>
1000197e:	46c0      	nop			; (mov r8, r8)

10001980 <ph_remove_any_head>:
10001980:	b5f0      	push	{r4, r5, r6, r7, lr}
10001982:	4657      	mov	r7, sl
10001984:	4645      	mov	r5, r8
10001986:	46de      	mov	lr, fp
10001988:	464e      	mov	r6, r9
1000198a:	b5e0      	push	{r5, r6, r7, lr}
1000198c:	000d      	movs	r5, r1
1000198e:	006b      	lsls	r3, r5, #1
10001990:	6801      	ldr	r1, [r0, #0]
10001992:	195b      	adds	r3, r3, r5
10001994:	1edf      	subs	r7, r3, #3
10001996:	0004      	movs	r4, r0
10001998:	5dc8      	ldrb	r0, [r1, r7]
1000199a:	b083      	sub	sp, #12
1000199c:	9201      	str	r2, [sp, #4]
1000199e:	19ca      	adds	r2, r1, r7
100019a0:	2800      	cmp	r0, #0
100019a2:	d050      	beq.n	10001a46 <ph_remove_any_head+0xc6>
100019a4:	0043      	lsls	r3, r0, #1
100019a6:	181b      	adds	r3, r3, r0
100019a8:	3b03      	subs	r3, #3
100019aa:	18cb      	adds	r3, r1, r3
100019ac:	785e      	ldrb	r6, [r3, #1]
100019ae:	46b4      	mov	ip, r6
100019b0:	2e00      	cmp	r6, #0
100019b2:	d11a      	bne.n	100019ea <ph_remove_any_head+0x6a>
100019b4:	9e01      	ldr	r6, [sp, #4]
100019b6:	2e00      	cmp	r6, #0
100019b8:	d042      	beq.n	10001a40 <ph_remove_any_head+0xc0>
100019ba:	7be6      	ldrb	r6, [r4, #15]
100019bc:	2e00      	cmp	r6, #0
100019be:	d004      	beq.n	100019ca <ph_remove_any_head+0x4a>
100019c0:	0073      	lsls	r3, r6, #1
100019c2:	199b      	adds	r3, r3, r6
100019c4:	18cb      	adds	r3, r1, r3
100019c6:	3b03      	subs	r3, #3
100019c8:	705d      	strb	r5, [r3, #1]
100019ca:	7ba3      	ldrb	r3, [r4, #14]
100019cc:	2b00      	cmp	r3, #0
100019ce:	d100      	bne.n	100019d2 <ph_remove_any_head+0x52>
100019d0:	73a5      	strb	r5, [r4, #14]
100019d2:	73e5      	strb	r5, [r4, #15]
100019d4:	2800      	cmp	r0, #0
100019d6:	d12f      	bne.n	10001a38 <ph_remove_any_head+0xb8>
100019d8:	2300      	movs	r3, #0
100019da:	7053      	strb	r3, [r2, #1]
100019dc:	b003      	add	sp, #12
100019de:	bcf0      	pop	{r4, r5, r6, r7}
100019e0:	46bb      	mov	fp, r7
100019e2:	46b2      	mov	sl, r6
100019e4:	46a9      	mov	r9, r5
100019e6:	46a0      	mov	r8, r4
100019e8:	bdf0      	pop	{r4, r5, r6, r7, pc}
100019ea:	0072      	lsls	r2, r6, #1
100019ec:	4462      	add	r2, ip
100019ee:	3a03      	subs	r2, #3
100019f0:	1889      	adds	r1, r1, r2
100019f2:	784a      	ldrb	r2, [r1, #1]
100019f4:	4690      	mov	r8, r2
100019f6:	2200      	movs	r2, #0
100019f8:	704a      	strb	r2, [r1, #1]
100019fa:	4691      	mov	r9, r2
100019fc:	705a      	strb	r2, [r3, #1]
100019fe:	0001      	movs	r1, r0
10001a00:	0032      	movs	r2, r6
10001a02:	0020      	movs	r0, r4
10001a04:	f7ff ff22 	bl	1000184c <ph_merge_nodes>
10001a08:	4643      	mov	r3, r8
10001a0a:	4682      	mov	sl, r0
10001a0c:	2b00      	cmp	r3, #0
10001a0e:	d007      	beq.n	10001a20 <ph_remove_any_head+0xa0>
10001a10:	005b      	lsls	r3, r3, #1
10001a12:	6821      	ldr	r1, [r4, #0]
10001a14:	4443      	add	r3, r8
10001a16:	3b03      	subs	r3, #3
10001a18:	18cb      	adds	r3, r1, r3
10001a1a:	785a      	ldrb	r2, [r3, #1]
10001a1c:	2a00      	cmp	r2, #0
10001a1e:	d116      	bne.n	10001a4e <ph_remove_any_head+0xce>
10001a20:	4642      	mov	r2, r8
10001a22:	4651      	mov	r1, sl
10001a24:	0020      	movs	r0, r4
10001a26:	f7ff ff11 	bl	1000184c <ph_merge_nodes>
10001a2a:	6821      	ldr	r1, [r4, #0]
10001a2c:	9b01      	ldr	r3, [sp, #4]
10001a2e:	19ca      	adds	r2, r1, r7
10001a30:	2b00      	cmp	r3, #0
10001a32:	d1c2      	bne.n	100019ba <ph_remove_any_head+0x3a>
10001a34:	2800      	cmp	r0, #0
10001a36:	d0cf      	beq.n	100019d8 <ph_remove_any_head+0x58>
10001a38:	0043      	lsls	r3, r0, #1
10001a3a:	181b      	adds	r3, r3, r0
10001a3c:	3b03      	subs	r3, #3
10001a3e:	18cb      	adds	r3, r1, r3
10001a40:	2100      	movs	r1, #0
10001a42:	7099      	strb	r1, [r3, #2]
10001a44:	e7c8      	b.n	100019d8 <ph_remove_any_head+0x58>
10001a46:	9b01      	ldr	r3, [sp, #4]
10001a48:	2b00      	cmp	r3, #0
10001a4a:	d1b6      	bne.n	100019ba <ph_remove_any_head+0x3a>
10001a4c:	e7c4      	b.n	100019d8 <ph_remove_any_head+0x58>
10001a4e:	0050      	lsls	r0, r2, #1
10001a50:	1880      	adds	r0, r0, r2
10001a52:	3803      	subs	r0, #3
10001a54:	1809      	adds	r1, r1, r0
10001a56:	7848      	ldrb	r0, [r1, #1]
10001a58:	4683      	mov	fp, r0
10001a5a:	4648      	mov	r0, r9
10001a5c:	7048      	strb	r0, [r1, #1]
10001a5e:	7058      	strb	r0, [r3, #1]
10001a60:	4641      	mov	r1, r8
10001a62:	0020      	movs	r0, r4
10001a64:	f7ff fef2 	bl	1000184c <ph_merge_nodes>
10001a68:	4659      	mov	r1, fp
10001a6a:	4680      	mov	r8, r0
10001a6c:	0020      	movs	r0, r4
10001a6e:	f7ff ff3f 	bl	100018f0 <ph_merge_two_pass>
10001a72:	4641      	mov	r1, r8
10001a74:	0002      	movs	r2, r0
10001a76:	0020      	movs	r0, r4
10001a78:	f7ff fee8 	bl	1000184c <ph_merge_nodes>
10001a7c:	4680      	mov	r8, r0
10001a7e:	e7cf      	b.n	10001a20 <ph_remove_any_head+0xa0>

10001a80 <ph_remove_head>:
10001a80:	b5f0      	push	{r4, r5, r6, r7, lr}
10001a82:	4657      	mov	r7, sl
10001a84:	4645      	mov	r5, r8
10001a86:	46de      	mov	lr, fp
10001a88:	464e      	mov	r6, r9
10001a8a:	b5e0      	push	{r5, r6, r7, lr}
10001a8c:	b083      	sub	sp, #12
10001a8e:	9101      	str	r1, [sp, #4]
10001a90:	7b45      	ldrb	r5, [r0, #13]
10001a92:	0004      	movs	r4, r0
10001a94:	006b      	lsls	r3, r5, #1
10001a96:	6800      	ldr	r0, [r0, #0]
10001a98:	195b      	adds	r3, r3, r5
10001a9a:	1edf      	subs	r7, r3, #3
10001a9c:	5dc1      	ldrb	r1, [r0, r7]
10001a9e:	19c2      	adds	r2, r0, r7
10001aa0:	2900      	cmp	r1, #0
10001aa2:	d052      	beq.n	10001b4a <ph_remove_head+0xca>
10001aa4:	004b      	lsls	r3, r1, #1
10001aa6:	185b      	adds	r3, r3, r1
10001aa8:	3b03      	subs	r3, #3
10001aaa:	18c3      	adds	r3, r0, r3
10001aac:	785e      	ldrb	r6, [r3, #1]
10001aae:	46b4      	mov	ip, r6
10001ab0:	2e00      	cmp	r6, #0
10001ab2:	d11c      	bne.n	10001aee <ph_remove_head+0x6e>
10001ab4:	9e01      	ldr	r6, [sp, #4]
10001ab6:	2e00      	cmp	r6, #0
10001ab8:	d044      	beq.n	10001b44 <ph_remove_head+0xc4>
10001aba:	7be6      	ldrb	r6, [r4, #15]
10001abc:	2e00      	cmp	r6, #0
10001abe:	d004      	beq.n	10001aca <ph_remove_head+0x4a>
10001ac0:	0073      	lsls	r3, r6, #1
10001ac2:	199b      	adds	r3, r3, r6
10001ac4:	18c3      	adds	r3, r0, r3
10001ac6:	3b03      	subs	r3, #3
10001ac8:	705d      	strb	r5, [r3, #1]
10001aca:	7ba3      	ldrb	r3, [r4, #14]
10001acc:	2b00      	cmp	r3, #0
10001ace:	d100      	bne.n	10001ad2 <ph_remove_head+0x52>
10001ad0:	73a5      	strb	r5, [r4, #14]
10001ad2:	73e5      	strb	r5, [r4, #15]
10001ad4:	2900      	cmp	r1, #0
10001ad6:	d131      	bne.n	10001b3c <ph_remove_head+0xbc>
10001ad8:	2300      	movs	r3, #0
10001ada:	0028      	movs	r0, r5
10001adc:	7053      	strb	r3, [r2, #1]
10001ade:	7361      	strb	r1, [r4, #13]
10001ae0:	b003      	add	sp, #12
10001ae2:	bcf0      	pop	{r4, r5, r6, r7}
10001ae4:	46bb      	mov	fp, r7
10001ae6:	46b2      	mov	sl, r6
10001ae8:	46a9      	mov	r9, r5
10001aea:	46a0      	mov	r8, r4
10001aec:	bdf0      	pop	{r4, r5, r6, r7, pc}
10001aee:	0072      	lsls	r2, r6, #1
10001af0:	4462      	add	r2, ip
10001af2:	3a03      	subs	r2, #3
10001af4:	1880      	adds	r0, r0, r2
10001af6:	7842      	ldrb	r2, [r0, #1]
10001af8:	4690      	mov	r8, r2
10001afa:	2200      	movs	r2, #0
10001afc:	7042      	strb	r2, [r0, #1]
10001afe:	4691      	mov	r9, r2
10001b00:	705a      	strb	r2, [r3, #1]
10001b02:	0020      	movs	r0, r4
10001b04:	0032      	movs	r2, r6
10001b06:	f7ff fea1 	bl	1000184c <ph_merge_nodes>
10001b0a:	4643      	mov	r3, r8
10001b0c:	4682      	mov	sl, r0
10001b0e:	2b00      	cmp	r3, #0
10001b10:	d007      	beq.n	10001b22 <ph_remove_head+0xa2>
10001b12:	005b      	lsls	r3, r3, #1
10001b14:	6821      	ldr	r1, [r4, #0]
10001b16:	4443      	add	r3, r8
10001b18:	3b03      	subs	r3, #3
10001b1a:	18cb      	adds	r3, r1, r3
10001b1c:	785a      	ldrb	r2, [r3, #1]
10001b1e:	2a00      	cmp	r2, #0
10001b20:	d117      	bne.n	10001b52 <ph_remove_head+0xd2>
10001b22:	4642      	mov	r2, r8
10001b24:	4651      	mov	r1, sl
10001b26:	0020      	movs	r0, r4
10001b28:	f7ff fe90 	bl	1000184c <ph_merge_nodes>
10001b2c:	9b01      	ldr	r3, [sp, #4]
10001b2e:	0001      	movs	r1, r0
10001b30:	6820      	ldr	r0, [r4, #0]
10001b32:	19c2      	adds	r2, r0, r7
10001b34:	2b00      	cmp	r3, #0
10001b36:	d1c0      	bne.n	10001aba <ph_remove_head+0x3a>
10001b38:	2900      	cmp	r1, #0
10001b3a:	d0cd      	beq.n	10001ad8 <ph_remove_head+0x58>
10001b3c:	004b      	lsls	r3, r1, #1
10001b3e:	185b      	adds	r3, r3, r1
10001b40:	3b03      	subs	r3, #3
10001b42:	18c3      	adds	r3, r0, r3
10001b44:	2000      	movs	r0, #0
10001b46:	7098      	strb	r0, [r3, #2]
10001b48:	e7c6      	b.n	10001ad8 <ph_remove_head+0x58>
10001b4a:	9b01      	ldr	r3, [sp, #4]
10001b4c:	2b00      	cmp	r3, #0
10001b4e:	d1b4      	bne.n	10001aba <ph_remove_head+0x3a>
10001b50:	e7c2      	b.n	10001ad8 <ph_remove_head+0x58>
10001b52:	0050      	lsls	r0, r2, #1
10001b54:	1880      	adds	r0, r0, r2
10001b56:	3803      	subs	r0, #3
10001b58:	1809      	adds	r1, r1, r0
10001b5a:	7848      	ldrb	r0, [r1, #1]
10001b5c:	4683      	mov	fp, r0
10001b5e:	4648      	mov	r0, r9
10001b60:	7048      	strb	r0, [r1, #1]
10001b62:	7058      	strb	r0, [r3, #1]
10001b64:	4641      	mov	r1, r8
10001b66:	0020      	movs	r0, r4
10001b68:	f7ff fe70 	bl	1000184c <ph_merge_nodes>
10001b6c:	4659      	mov	r1, fp
10001b6e:	4680      	mov	r8, r0
10001b70:	0020      	movs	r0, r4
10001b72:	f7ff febd 	bl	100018f0 <ph_merge_two_pass>
10001b76:	4641      	mov	r1, r8
10001b78:	0002      	movs	r2, r0
10001b7a:	0020      	movs	r0, r4
10001b7c:	f7ff fe66 	bl	1000184c <ph_merge_nodes>
10001b80:	4680      	mov	r8, r0
10001b82:	e7ce      	b.n	10001b22 <ph_remove_head+0xa2>

10001b84 <ph_remove_and_free_node>:
10001b84:	b570      	push	{r4, r5, r6, lr}
10001b86:	0004      	movs	r4, r0
10001b88:	2900      	cmp	r1, #0
10001b8a:	d02c      	beq.n	10001be6 <ph_remove_and_free_node+0x62>
10001b8c:	7b43      	ldrb	r3, [r0, #13]
10001b8e:	428b      	cmp	r3, r1
10001b90:	d02e      	beq.n	10001bf0 <ph_remove_and_free_node+0x6c>
10001b92:	6805      	ldr	r5, [r0, #0]
10001b94:	0048      	lsls	r0, r1, #1
10001b96:	1840      	adds	r0, r0, r1
10001b98:	3803      	subs	r0, #3
10001b9a:	1828      	adds	r0, r5, r0
10001b9c:	7882      	ldrb	r2, [r0, #2]
10001b9e:	2a00      	cmp	r2, #0
10001ba0:	d021      	beq.n	10001be6 <ph_remove_and_free_node+0x62>
10001ba2:	0053      	lsls	r3, r2, #1
10001ba4:	189b      	adds	r3, r3, r2
10001ba6:	3b03      	subs	r3, #3
10001ba8:	5cea      	ldrb	r2, [r5, r3]
10001baa:	18ee      	adds	r6, r5, r3
10001bac:	428a      	cmp	r2, r1
10001bae:	d102      	bne.n	10001bb6 <ph_remove_and_free_node+0x32>
10001bb0:	e01b      	b.n	10001bea <ph_remove_and_free_node+0x66>
10001bb2:	2a00      	cmp	r2, #0
10001bb4:	d008      	beq.n	10001bc8 <ph_remove_and_free_node+0x44>
10001bb6:	0053      	lsls	r3, r2, #1
10001bb8:	189b      	adds	r3, r3, r2
10001bba:	3b03      	subs	r3, #3
10001bbc:	18eb      	adds	r3, r5, r3
10001bbe:	785a      	ldrb	r2, [r3, #1]
10001bc0:	428a      	cmp	r2, r1
10001bc2:	d1f6      	bne.n	10001bb2 <ph_remove_and_free_node+0x2e>
10001bc4:	7842      	ldrb	r2, [r0, #1]
10001bc6:	705a      	strb	r2, [r3, #1]
10001bc8:	2300      	movs	r3, #0
10001bca:	2201      	movs	r2, #1
10001bcc:	7083      	strb	r3, [r0, #2]
10001bce:	7043      	strb	r3, [r0, #1]
10001bd0:	0020      	movs	r0, r4
10001bd2:	f7ff fed5 	bl	10001980 <ph_remove_any_head>
10001bd6:	7b61      	ldrb	r1, [r4, #13]
10001bd8:	0002      	movs	r2, r0
10001bda:	0020      	movs	r0, r4
10001bdc:	f7ff fe36 	bl	1000184c <ph_merge_nodes>
10001be0:	7360      	strb	r0, [r4, #13]
10001be2:	2001      	movs	r0, #1
10001be4:	e000      	b.n	10001be8 <ph_remove_and_free_node+0x64>
10001be6:	2000      	movs	r0, #0
10001be8:	bd70      	pop	{r4, r5, r6, pc}
10001bea:	7843      	ldrb	r3, [r0, #1]
10001bec:	7033      	strb	r3, [r6, #0]
10001bee:	e7eb      	b.n	10001bc8 <ph_remove_and_free_node+0x44>
10001bf0:	2201      	movs	r2, #1
10001bf2:	0019      	movs	r1, r3
10001bf4:	f7ff fec4 	bl	10001980 <ph_remove_any_head>
10001bf8:	7360      	strb	r0, [r4, #13]
10001bfa:	2001      	movs	r0, #1
10001bfc:	e7f4      	b.n	10001be8 <ph_remove_and_free_node+0x64>
10001bfe:	46c0      	nop			; (mov r8, r8)

10001c00 <clocks_init>:
10001c00:	b530      	push	{r4, r5, lr}
10001c02:	200c      	movs	r0, #12
10001c04:	b083      	sub	sp, #12
10001c06:	f000 f9b1 	bl	10001f6c <watchdog_start_tick>
10001c0a:	f7fe fd95 	bl	10000738 <running_on_fpga>
10001c0e:	2800      	cmp	r0, #0
10001c10:	d00e      	beq.n	10001c30 <clocks_init+0x30>
10001c12:	4b94      	ldr	r3, [pc, #592]	; (10001e64 <clocks_init+0x264>)
10001c14:	4a94      	ldr	r2, [pc, #592]	; (10001e68 <clocks_init+0x268>)
10001c16:	601a      	str	r2, [r3, #0]
10001c18:	605a      	str	r2, [r3, #4]
10001c1a:	609a      	str	r2, [r3, #8]
10001c1c:	60da      	str	r2, [r3, #12]
10001c1e:	611a      	str	r2, [r3, #16]
10001c20:	615a      	str	r2, [r3, #20]
10001c22:	619a      	str	r2, [r3, #24]
10001c24:	61da      	str	r2, [r3, #28]
10001c26:	621a      	str	r2, [r3, #32]
10001c28:	4a90      	ldr	r2, [pc, #576]	; (10001e6c <clocks_init+0x26c>)
10001c2a:	625a      	str	r2, [r3, #36]	; 0x24
10001c2c:	b003      	add	sp, #12
10001c2e:	bd30      	pop	{r4, r5, pc}
10001c30:	4c8f      	ldr	r4, [pc, #572]	; (10001e70 <clocks_init+0x270>)
10001c32:	67a0      	str	r0, [r4, #120]	; 0x78
10001c34:	f000 fa30 	bl	10002098 <xosc_init>
10001c38:	2201      	movs	r2, #1
10001c3a:	4b8e      	ldr	r3, [pc, #568]	; (10001e74 <clocks_init+0x274>)
10001c3c:	601a      	str	r2, [r3, #0]
10001c3e:	6c63      	ldr	r3, [r4, #68]	; 0x44
10001c40:	2b01      	cmp	r3, #1
10001c42:	d1fc      	bne.n	10001c3e <clocks_init+0x3e>
10001c44:	2203      	movs	r2, #3
10001c46:	4b8c      	ldr	r3, [pc, #560]	; (10001e78 <clocks_init+0x278>)
10001c48:	601a      	str	r2, [r3, #0]
10001c4a:	4a89      	ldr	r2, [pc, #548]	; (10001e70 <clocks_init+0x270>)
10001c4c:	6b93      	ldr	r3, [r2, #56]	; 0x38
10001c4e:	2b01      	cmp	r3, #1
10001c50:	d1fc      	bne.n	10001c4c <clocks_init+0x4c>
10001c52:	3301      	adds	r3, #1
10001c54:	2101      	movs	r1, #1
10001c56:	4a89      	ldr	r2, [pc, #548]	; (10001e7c <clocks_init+0x27c>)
10001c58:	4889      	ldr	r0, [pc, #548]	; (10001e80 <clocks_init+0x280>)
10001c5a:	9300      	str	r3, [sp, #0]
10001c5c:	3304      	adds	r3, #4
10001c5e:	f000 f92d 	bl	10001ebc <pll_init>
10001c62:	2305      	movs	r3, #5
10001c64:	4a87      	ldr	r2, [pc, #540]	; (10001e84 <clocks_init+0x284>)
10001c66:	9300      	str	r3, [sp, #0]
10001c68:	2101      	movs	r1, #1
10001c6a:	4887      	ldr	r0, [pc, #540]	; (10001e88 <clocks_init+0x288>)
10001c6c:	f000 f926 	bl	10001ebc <pll_init>
10001c70:	4b86      	ldr	r3, [pc, #536]	; (10001e8c <clocks_init+0x28c>)
10001c72:	685a      	ldr	r2, [r3, #4]
10001c74:	2aff      	cmp	r2, #255	; 0xff
10001c76:	d802      	bhi.n	10001c7e <clocks_init+0x7e>
10001c78:	2280      	movs	r2, #128	; 0x80
10001c7a:	0052      	lsls	r2, r2, #1
10001c7c:	605a      	str	r2, [r3, #4]
10001c7e:	2280      	movs	r2, #128	; 0x80
10001c80:	4c78      	ldr	r4, [pc, #480]	; (10001e64 <clocks_init+0x264>)
10001c82:	4b7d      	ldr	r3, [pc, #500]	; (10001e78 <clocks_init+0x278>)
10001c84:	6921      	ldr	r1, [r4, #16]
10001c86:	0112      	lsls	r2, r2, #4
10001c88:	4d80      	ldr	r5, [pc, #512]	; (10001e8c <clocks_init+0x28c>)
10001c8a:	601a      	str	r2, [r3, #0]
10001c8c:	2900      	cmp	r1, #0
10001c8e:	d005      	beq.n	10001c9c <clocks_init+0x9c>
10001c90:	6960      	ldr	r0, [r4, #20]
10001c92:	f001 fdf5 	bl	10003880 <__wrap___aeabi_uidiv>
10001c96:	3001      	adds	r0, #1
10001c98:	3801      	subs	r0, #1
10001c9a:	d1fd      	bne.n	10001c98 <clocks_init+0x98>
10001c9c:	21e0      	movs	r1, #224	; 0xe0
10001c9e:	4b7b      	ldr	r3, [pc, #492]	; (10001e8c <clocks_init+0x28c>)
10001ca0:	2002      	movs	r0, #2
10001ca2:	681a      	ldr	r2, [r3, #0]
10001ca4:	4011      	ands	r1, r2
10001ca6:	2280      	movs	r2, #128	; 0x80
10001ca8:	0152      	lsls	r2, r2, #5
10001caa:	432a      	orrs	r2, r5
10001cac:	6011      	str	r1, [r2, #0]
10001cae:	6819      	ldr	r1, [r3, #0]
10001cb0:	4048      	eors	r0, r1
10001cb2:	2103      	movs	r1, #3
10001cb4:	4001      	ands	r1, r0
10001cb6:	6011      	str	r1, [r2, #0]
10001cb8:	2104      	movs	r1, #4
10001cba:	689a      	ldr	r2, [r3, #8]
10001cbc:	4211      	tst	r1, r2
10001cbe:	d0fc      	beq.n	10001cba <clocks_init+0xba>
10001cc0:	2280      	movs	r2, #128	; 0x80
10001cc2:	2180      	movs	r1, #128	; 0x80
10001cc4:	0192      	lsls	r2, r2, #6
10001cc6:	432a      	orrs	r2, r5
10001cc8:	0109      	lsls	r1, r1, #4
10001cca:	6011      	str	r1, [r2, #0]
10001ccc:	2280      	movs	r2, #128	; 0x80
10001cce:	0052      	lsls	r2, r2, #1
10001cd0:	605a      	str	r2, [r3, #4]
10001cd2:	4b6f      	ldr	r3, [pc, #444]	; (10001e90 <clocks_init+0x290>)
10001cd4:	6123      	str	r3, [r4, #16]
10001cd6:	4b6f      	ldr	r3, [pc, #444]	; (10001e94 <clocks_init+0x294>)
10001cd8:	6859      	ldr	r1, [r3, #4]
10001cda:	29ff      	cmp	r1, #255	; 0xff
10001cdc:	d800      	bhi.n	10001ce0 <clocks_init+0xe0>
10001cde:	605a      	str	r2, [r3, #4]
10001ce0:	2103      	movs	r1, #3
10001ce2:	4a64      	ldr	r2, [pc, #400]	; (10001e74 <clocks_init+0x274>)
10001ce4:	4b6b      	ldr	r3, [pc, #428]	; (10001e94 <clocks_init+0x294>)
10001ce6:	6011      	str	r1, [r2, #0]
10001ce8:	3902      	subs	r1, #2
10001cea:	689a      	ldr	r2, [r3, #8]
10001cec:	4211      	tst	r1, r2
10001cee:	d0fc      	beq.n	10001cea <clocks_init+0xea>
10001cf0:	20e0      	movs	r0, #224	; 0xe0
10001cf2:	681a      	ldr	r2, [r3, #0]
10001cf4:	4010      	ands	r0, r2
10001cf6:	2280      	movs	r2, #128	; 0x80
10001cf8:	0152      	lsls	r2, r2, #5
10001cfa:	431a      	orrs	r2, r3
10001cfc:	6010      	str	r0, [r2, #0]
10001cfe:	6818      	ldr	r0, [r3, #0]
10001d00:	4048      	eors	r0, r1
10001d02:	2103      	movs	r1, #3
10001d04:	4001      	ands	r1, r0
10001d06:	2002      	movs	r0, #2
10001d08:	6011      	str	r1, [r2, #0]
10001d0a:	4962      	ldr	r1, [pc, #392]	; (10001e94 <clocks_init+0x294>)
10001d0c:	688a      	ldr	r2, [r1, #8]
10001d0e:	4210      	tst	r0, r2
10001d10:	d0fc      	beq.n	10001d0c <clocks_init+0x10c>
10001d12:	2280      	movs	r2, #128	; 0x80
10001d14:	0192      	lsls	r2, r2, #6
10001d16:	4313      	orrs	r3, r2
10001d18:	2280      	movs	r2, #128	; 0x80
10001d1a:	0112      	lsls	r2, r2, #4
10001d1c:	601a      	str	r2, [r3, #0]
10001d1e:	2280      	movs	r2, #128	; 0x80
10001d20:	4b5d      	ldr	r3, [pc, #372]	; (10001e98 <clocks_init+0x298>)
10001d22:	0052      	lsls	r2, r2, #1
10001d24:	604a      	str	r2, [r1, #4]
10001d26:	6163      	str	r3, [r4, #20]
10001d28:	4b5c      	ldr	r3, [pc, #368]	; (10001e9c <clocks_init+0x29c>)
10001d2a:	6859      	ldr	r1, [r3, #4]
10001d2c:	29ff      	cmp	r1, #255	; 0xff
10001d2e:	d800      	bhi.n	10001d32 <clocks_init+0x132>
10001d30:	605a      	str	r2, [r3, #4]
10001d32:	2280      	movs	r2, #128	; 0x80
10001d34:	4b5a      	ldr	r3, [pc, #360]	; (10001ea0 <clocks_init+0x2a0>)
10001d36:	69e1      	ldr	r1, [r4, #28]
10001d38:	0112      	lsls	r2, r2, #4
10001d3a:	4d58      	ldr	r5, [pc, #352]	; (10001e9c <clocks_init+0x29c>)
10001d3c:	601a      	str	r2, [r3, #0]
10001d3e:	2900      	cmp	r1, #0
10001d40:	d005      	beq.n	10001d4e <clocks_init+0x14e>
10001d42:	6960      	ldr	r0, [r4, #20]
10001d44:	f001 fd9c 	bl	10003880 <__wrap___aeabi_uidiv>
10001d48:	3001      	adds	r0, #1
10001d4a:	3801      	subs	r0, #1
10001d4c:	d1fd      	bne.n	10001d4a <clocks_init+0x14a>
10001d4e:	22e0      	movs	r2, #224	; 0xe0
10001d50:	4952      	ldr	r1, [pc, #328]	; (10001e9c <clocks_init+0x29c>)
10001d52:	680b      	ldr	r3, [r1, #0]
10001d54:	401a      	ands	r2, r3
10001d56:	2380      	movs	r3, #128	; 0x80
10001d58:	015b      	lsls	r3, r3, #5
10001d5a:	432b      	orrs	r3, r5
10001d5c:	601a      	str	r2, [r3, #0]
10001d5e:	2380      	movs	r3, #128	; 0x80
10001d60:	2280      	movs	r2, #128	; 0x80
10001d62:	019b      	lsls	r3, r3, #6
10001d64:	432b      	orrs	r3, r5
10001d66:	0112      	lsls	r2, r2, #4
10001d68:	601a      	str	r2, [r3, #0]
10001d6a:	2280      	movs	r2, #128	; 0x80
10001d6c:	4b3e      	ldr	r3, [pc, #248]	; (10001e68 <clocks_init+0x268>)
10001d6e:	0052      	lsls	r2, r2, #1
10001d70:	604a      	str	r2, [r1, #4]
10001d72:	61e3      	str	r3, [r4, #28]
10001d74:	4b4b      	ldr	r3, [pc, #300]	; (10001ea4 <clocks_init+0x2a4>)
10001d76:	6859      	ldr	r1, [r3, #4]
10001d78:	29ff      	cmp	r1, #255	; 0xff
10001d7a:	d800      	bhi.n	10001d7e <clocks_init+0x17e>
10001d7c:	605a      	str	r2, [r3, #4]
10001d7e:	2280      	movs	r2, #128	; 0x80
10001d80:	4b49      	ldr	r3, [pc, #292]	; (10001ea8 <clocks_init+0x2a8>)
10001d82:	6a21      	ldr	r1, [r4, #32]
10001d84:	0112      	lsls	r2, r2, #4
10001d86:	4d47      	ldr	r5, [pc, #284]	; (10001ea4 <clocks_init+0x2a4>)
10001d88:	601a      	str	r2, [r3, #0]
10001d8a:	2900      	cmp	r1, #0
10001d8c:	d005      	beq.n	10001d9a <clocks_init+0x19a>
10001d8e:	6960      	ldr	r0, [r4, #20]
10001d90:	f001 fd76 	bl	10003880 <__wrap___aeabi_uidiv>
10001d94:	3001      	adds	r0, #1
10001d96:	3801      	subs	r0, #1
10001d98:	d1fd      	bne.n	10001d96 <clocks_init+0x196>
10001d9a:	22e0      	movs	r2, #224	; 0xe0
10001d9c:	4941      	ldr	r1, [pc, #260]	; (10001ea4 <clocks_init+0x2a4>)
10001d9e:	680b      	ldr	r3, [r1, #0]
10001da0:	401a      	ands	r2, r3
10001da2:	2380      	movs	r3, #128	; 0x80
10001da4:	015b      	lsls	r3, r3, #5
10001da6:	432b      	orrs	r3, r5
10001da8:	601a      	str	r2, [r3, #0]
10001daa:	2380      	movs	r3, #128	; 0x80
10001dac:	2280      	movs	r2, #128	; 0x80
10001dae:	019b      	lsls	r3, r3, #6
10001db0:	432b      	orrs	r3, r5
10001db2:	0112      	lsls	r2, r2, #4
10001db4:	601a      	str	r2, [r3, #0]
10001db6:	2380      	movs	r3, #128	; 0x80
10001db8:	2280      	movs	r2, #128	; 0x80
10001dba:	005b      	lsls	r3, r3, #1
10001dbc:	604b      	str	r3, [r1, #4]
10001dbe:	4b2a      	ldr	r3, [pc, #168]	; (10001e68 <clocks_init+0x268>)
10001dc0:	02d2      	lsls	r2, r2, #11
10001dc2:	6223      	str	r3, [r4, #32]
10001dc4:	4b39      	ldr	r3, [pc, #228]	; (10001eac <clocks_init+0x2ac>)
10001dc6:	6859      	ldr	r1, [r3, #4]
10001dc8:	4291      	cmp	r1, r2
10001dca:	d200      	bcs.n	10001dce <clocks_init+0x1ce>
10001dcc:	605a      	str	r2, [r3, #4]
10001dce:	2280      	movs	r2, #128	; 0x80
10001dd0:	4b37      	ldr	r3, [pc, #220]	; (10001eb0 <clocks_init+0x2b0>)
10001dd2:	6a61      	ldr	r1, [r4, #36]	; 0x24
10001dd4:	0112      	lsls	r2, r2, #4
10001dd6:	4d35      	ldr	r5, [pc, #212]	; (10001eac <clocks_init+0x2ac>)
10001dd8:	601a      	str	r2, [r3, #0]
10001dda:	2900      	cmp	r1, #0
10001ddc:	d005      	beq.n	10001dea <clocks_init+0x1ea>
10001dde:	6960      	ldr	r0, [r4, #20]
10001de0:	f001 fd4e 	bl	10003880 <__wrap___aeabi_uidiv>
10001de4:	3001      	adds	r0, #1
10001de6:	3801      	subs	r0, #1
10001de8:	d1fd      	bne.n	10001de6 <clocks_init+0x1e6>
10001dea:	22e0      	movs	r2, #224	; 0xe0
10001dec:	492f      	ldr	r1, [pc, #188]	; (10001eac <clocks_init+0x2ac>)
10001dee:	680b      	ldr	r3, [r1, #0]
10001df0:	401a      	ands	r2, r3
10001df2:	2380      	movs	r3, #128	; 0x80
10001df4:	015b      	lsls	r3, r3, #5
10001df6:	432b      	orrs	r3, r5
10001df8:	601a      	str	r2, [r3, #0]
10001dfa:	2380      	movs	r3, #128	; 0x80
10001dfc:	2280      	movs	r2, #128	; 0x80
10001dfe:	019b      	lsls	r3, r3, #6
10001e00:	432b      	orrs	r3, r5
10001e02:	0112      	lsls	r2, r2, #4
10001e04:	601a      	str	r2, [r3, #0]
10001e06:	2380      	movs	r3, #128	; 0x80
10001e08:	02db      	lsls	r3, r3, #11
10001e0a:	604b      	str	r3, [r1, #4]
10001e0c:	4b17      	ldr	r3, [pc, #92]	; (10001e6c <clocks_init+0x26c>)
10001e0e:	6263      	str	r3, [r4, #36]	; 0x24
10001e10:	4b28      	ldr	r3, [pc, #160]	; (10001eb4 <clocks_init+0x2b4>)
10001e12:	685a      	ldr	r2, [r3, #4]
10001e14:	2aff      	cmp	r2, #255	; 0xff
10001e16:	d802      	bhi.n	10001e1e <clocks_init+0x21e>
10001e18:	2280      	movs	r2, #128	; 0x80
10001e1a:	0052      	lsls	r2, r2, #1
10001e1c:	605a      	str	r2, [r3, #4]
10001e1e:	2280      	movs	r2, #128	; 0x80
10001e20:	4b25      	ldr	r3, [pc, #148]	; (10001eb8 <clocks_init+0x2b8>)
10001e22:	69a1      	ldr	r1, [r4, #24]
10001e24:	0112      	lsls	r2, r2, #4
10001e26:	4d23      	ldr	r5, [pc, #140]	; (10001eb4 <clocks_init+0x2b4>)
10001e28:	601a      	str	r2, [r3, #0]
10001e2a:	2900      	cmp	r1, #0
10001e2c:	d005      	beq.n	10001e3a <clocks_init+0x23a>
10001e2e:	6960      	ldr	r0, [r4, #20]
10001e30:	f001 fd26 	bl	10003880 <__wrap___aeabi_uidiv>
10001e34:	3001      	adds	r0, #1
10001e36:	3801      	subs	r0, #1
10001e38:	d1fd      	bne.n	10001e36 <clocks_init+0x236>
10001e3a:	22e0      	movs	r2, #224	; 0xe0
10001e3c:	491d      	ldr	r1, [pc, #116]	; (10001eb4 <clocks_init+0x2b4>)
10001e3e:	680b      	ldr	r3, [r1, #0]
10001e40:	401a      	ands	r2, r3
10001e42:	2380      	movs	r3, #128	; 0x80
10001e44:	015b      	lsls	r3, r3, #5
10001e46:	432b      	orrs	r3, r5
10001e48:	601a      	str	r2, [r3, #0]
10001e4a:	2380      	movs	r3, #128	; 0x80
10001e4c:	2280      	movs	r2, #128	; 0x80
10001e4e:	019b      	lsls	r3, r3, #6
10001e50:	432b      	orrs	r3, r5
10001e52:	0112      	lsls	r2, r2, #4
10001e54:	601a      	str	r2, [r3, #0]
10001e56:	2380      	movs	r3, #128	; 0x80
10001e58:	005b      	lsls	r3, r3, #1
10001e5a:	604b      	str	r3, [r1, #4]
10001e5c:	4b0e      	ldr	r3, [pc, #56]	; (10001e98 <clocks_init+0x298>)
10001e5e:	61a3      	str	r3, [r4, #24]
10001e60:	e6e4      	b.n	10001c2c <clocks_init+0x2c>
10001e62:	46c0      	nop			; (mov r8, r8)
10001e64:	200017e4 	.word	0x200017e4
10001e68:	02dc6c00 	.word	0x02dc6c00
10001e6c:	0000b71b 	.word	0x0000b71b
10001e70:	40008000 	.word	0x40008000
10001e74:	4000b03c 	.word	0x4000b03c
10001e78:	4000b030 	.word	0x4000b030
10001e7c:	59682f00 	.word	0x59682f00
10001e80:	40028000 	.word	0x40028000
10001e84:	47868c00 	.word	0x47868c00
10001e88:	4002c000 	.word	0x4002c000
10001e8c:	40008030 	.word	0x40008030
10001e90:	00b71b00 	.word	0x00b71b00
10001e94:	4000803c 	.word	0x4000803c
10001e98:	07735940 	.word	0x07735940
10001e9c:	40008054 	.word	0x40008054
10001ea0:	4000b054 	.word	0x4000b054
10001ea4:	40008060 	.word	0x40008060
10001ea8:	4000b060 	.word	0x4000b060
10001eac:	4000806c 	.word	0x4000806c
10001eb0:	4000b06c 	.word	0x4000b06c
10001eb4:	40008048 	.word	0x40008048
10001eb8:	4000b048 	.word	0x4000b048

10001ebc <pll_init>:
10001ebc:	b5f0      	push	{r4, r5, r6, r7, lr}
10001ebe:	46c6      	mov	lr, r8
10001ec0:	0004      	movs	r4, r0
10001ec2:	b500      	push	{lr}
10001ec4:	200c      	movs	r0, #12
10001ec6:	4690      	mov	r8, r2
10001ec8:	001f      	movs	r7, r3
10001eca:	000e      	movs	r6, r1
10001ecc:	f001 fcd8 	bl	10003880 <__wrap___aeabi_uidiv>
10001ed0:	0141      	lsls	r1, r0, #5
10001ed2:	1a09      	subs	r1, r1, r0
10001ed4:	018d      	lsls	r5, r1, #6
10001ed6:	1a69      	subs	r1, r5, r1
10001ed8:	00c9      	lsls	r1, r1, #3
10001eda:	1809      	adds	r1, r1, r0
10001edc:	0189      	lsls	r1, r1, #6
10001ede:	4640      	mov	r0, r8
10001ee0:	f001 fcce 	bl	10003880 <__wrap___aeabi_uidiv>
10001ee4:	9b06      	ldr	r3, [sp, #24]
10001ee6:	043f      	lsls	r7, r7, #16
10001ee8:	031a      	lsls	r2, r3, #12
10001eea:	6823      	ldr	r3, [r4, #0]
10001eec:	4317      	orrs	r7, r2
10001eee:	2b00      	cmp	r3, #0
10001ef0:	db22      	blt.n	10001f38 <pll_init+0x7c>
10001ef2:	4b1a      	ldr	r3, [pc, #104]	; (10001f5c <pll_init+0xa0>)
10001ef4:	4d1a      	ldr	r5, [pc, #104]	; (10001f60 <pll_init+0xa4>)
10001ef6:	18e2      	adds	r2, r4, r3
10001ef8:	4253      	negs	r3, r2
10001efa:	415a      	adcs	r2, r3
10001efc:	2380      	movs	r3, #128	; 0x80
10001efe:	015b      	lsls	r3, r3, #5
10001f00:	469c      	mov	ip, r3
10001f02:	0312      	lsls	r2, r2, #12
10001f04:	4b17      	ldr	r3, [pc, #92]	; (10001f64 <pll_init+0xa8>)
10001f06:	4462      	add	r2, ip
10001f08:	601a      	str	r2, [r3, #0]
10001f0a:	4b17      	ldr	r3, [pc, #92]	; (10001f68 <pll_init+0xac>)
10001f0c:	601a      	str	r2, [r3, #0]
10001f0e:	0011      	movs	r1, r2
10001f10:	68ab      	ldr	r3, [r5, #8]
10001f12:	4399      	bics	r1, r3
10001f14:	d1fb      	bne.n	10001f0e <pll_init+0x52>
10001f16:	22c0      	movs	r2, #192	; 0xc0
10001f18:	1d23      	adds	r3, r4, #4
10001f1a:	0192      	lsls	r2, r2, #6
10001f1c:	431a      	orrs	r2, r3
10001f1e:	2321      	movs	r3, #33	; 0x21
10001f20:	6026      	str	r6, [r4, #0]
10001f22:	60a0      	str	r0, [r4, #8]
10001f24:	6013      	str	r3, [r2, #0]
10001f26:	6823      	ldr	r3, [r4, #0]
10001f28:	2b00      	cmp	r3, #0
10001f2a:	dafc      	bge.n	10001f26 <pll_init+0x6a>
10001f2c:	2308      	movs	r3, #8
10001f2e:	60e7      	str	r7, [r4, #12]
10001f30:	6013      	str	r3, [r2, #0]
10001f32:	bc80      	pop	{r7}
10001f34:	46b8      	mov	r8, r7
10001f36:	bdf0      	pop	{r4, r5, r6, r7, pc}
10001f38:	233f      	movs	r3, #63	; 0x3f
10001f3a:	6822      	ldr	r2, [r4, #0]
10001f3c:	4013      	ands	r3, r2
10001f3e:	42b3      	cmp	r3, r6
10001f40:	d1d7      	bne.n	10001ef2 <pll_init+0x36>
10001f42:	68a3      	ldr	r3, [r4, #8]
10001f44:	051b      	lsls	r3, r3, #20
10001f46:	0d1b      	lsrs	r3, r3, #20
10001f48:	4283      	cmp	r3, r0
10001f4a:	d1d2      	bne.n	10001ef2 <pll_init+0x36>
10001f4c:	22ee      	movs	r2, #238	; 0xee
10001f4e:	68e3      	ldr	r3, [r4, #12]
10001f50:	02d2      	lsls	r2, r2, #11
10001f52:	4013      	ands	r3, r2
10001f54:	42bb      	cmp	r3, r7
10001f56:	d1cc      	bne.n	10001ef2 <pll_init+0x36>
10001f58:	e7eb      	b.n	10001f32 <pll_init+0x76>
10001f5a:	46c0      	nop			; (mov r8, r8)
10001f5c:	bffd4000 	.word	0xbffd4000
10001f60:	4000c000 	.word	0x4000c000
10001f64:	4000e000 	.word	0x4000e000
10001f68:	4000f000 	.word	0x4000f000

10001f6c <watchdog_start_tick>:
10001f6c:	2380      	movs	r3, #128	; 0x80
10001f6e:	4a02      	ldr	r2, [pc, #8]	; (10001f78 <watchdog_start_tick+0xc>)
10001f70:	009b      	lsls	r3, r3, #2
10001f72:	4303      	orrs	r3, r0
10001f74:	62d3      	str	r3, [r2, #44]	; 0x2c
10001f76:	4770      	bx	lr
10001f78:	40058000 	.word	0x40058000

10001f7c <watchdog_enable>:
10001f7c:	4b18      	ldr	r3, [pc, #96]	; (10001fe0 <watchdog_enable+0x64>)
10001f7e:	0002      	movs	r2, r0
10001f80:	4818      	ldr	r0, [pc, #96]	; (10001fe4 <watchdog_enable+0x68>)
10001f82:	b510      	push	{r4, lr}
10001f84:	61d8      	str	r0, [r3, #28]
10001f86:	2080      	movs	r0, #128	; 0x80
10001f88:	4b17      	ldr	r3, [pc, #92]	; (10001fe8 <watchdog_enable+0x6c>)
10001f8a:	05c0      	lsls	r0, r0, #23
10001f8c:	6018      	str	r0, [r3, #0]
10001f8e:	4c17      	ldr	r4, [pc, #92]	; (10001fec <watchdog_enable+0x70>)
10001f90:	4817      	ldr	r0, [pc, #92]	; (10001ff0 <watchdog_enable+0x74>)
10001f92:	6004      	str	r4, [r0, #0]
10001f94:	2900      	cmp	r1, #0
10001f96:	d00a      	beq.n	10001fae <watchdog_enable+0x32>
10001f98:	21e0      	movs	r1, #224	; 0xe0
10001f9a:	4b16      	ldr	r3, [pc, #88]	; (10001ff4 <watchdog_enable+0x78>)
10001f9c:	04c9      	lsls	r1, r1, #19
10001f9e:	6019      	str	r1, [r3, #0]
10001fa0:	2a00      	cmp	r2, #0
10001fa2:	d109      	bne.n	10001fb8 <watchdog_enable+0x3c>
10001fa4:	2280      	movs	r2, #128	; 0x80
10001fa6:	4b13      	ldr	r3, [pc, #76]	; (10001ff4 <watchdog_enable+0x78>)
10001fa8:	0612      	lsls	r2, r2, #24
10001faa:	601a      	str	r2, [r3, #0]
10001fac:	bd10      	pop	{r4, pc}
10001fae:	21e0      	movs	r1, #224	; 0xe0
10001fb0:	04c9      	lsls	r1, r1, #19
10001fb2:	6019      	str	r1, [r3, #0]
10001fb4:	2a00      	cmp	r2, #0
10001fb6:	d0f5      	beq.n	10001fa4 <watchdog_enable+0x28>
10001fb8:	0153      	lsls	r3, r2, #5
10001fba:	1a9b      	subs	r3, r3, r2
10001fbc:	0098      	lsls	r0, r3, #2
10001fbe:	2380      	movs	r3, #128	; 0x80
10001fc0:	1880      	adds	r0, r0, r2
10001fc2:	0100      	lsls	r0, r0, #4
10001fc4:	045b      	lsls	r3, r3, #17
10001fc6:	4298      	cmp	r0, r3
10001fc8:	d300      	bcc.n	10001fcc <watchdog_enable+0x50>
10001fca:	480b      	ldr	r0, [pc, #44]	; (10001ff8 <watchdog_enable+0x7c>)
10001fcc:	2280      	movs	r2, #128	; 0x80
10001fce:	4b0b      	ldr	r3, [pc, #44]	; (10001ffc <watchdog_enable+0x80>)
10001fd0:	05d2      	lsls	r2, r2, #23
10001fd2:	6018      	str	r0, [r3, #0]
10001fd4:	4b02      	ldr	r3, [pc, #8]	; (10001fe0 <watchdog_enable+0x64>)
10001fd6:	6058      	str	r0, [r3, #4]
10001fd8:	4b06      	ldr	r3, [pc, #24]	; (10001ff4 <watchdog_enable+0x78>)
10001fda:	601a      	str	r2, [r3, #0]
10001fdc:	e7e6      	b.n	10001fac <watchdog_enable+0x30>
10001fde:	46c0      	nop			; (mov r8, r8)
10001fe0:	40058000 	.word	0x40058000
10001fe4:	6ab73121 	.word	0x6ab73121
10001fe8:	4005b000 	.word	0x4005b000
10001fec:	0001fffc 	.word	0x0001fffc
10001ff0:	40012008 	.word	0x40012008
10001ff4:	4005a000 	.word	0x4005a000
10001ff8:	00ffffff 	.word	0x00ffffff
10001ffc:	20001c84 	.word	0x20001c84

10002000 <watchdog_reboot>:
10002000:	b510      	push	{r4, lr}
10002002:	0014      	movs	r4, r2
10002004:	2280      	movs	r2, #128	; 0x80
10002006:	4b1b      	ldr	r3, [pc, #108]	; (10002074 <watchdog_reboot+0x74>)
10002008:	05d2      	lsls	r2, r2, #23
1000200a:	601a      	str	r2, [r3, #0]
1000200c:	2800      	cmp	r0, #0
1000200e:	d01a      	beq.n	10002046 <watchdog_reboot+0x46>
10002010:	2301      	movs	r3, #1
10002012:	4a19      	ldr	r2, [pc, #100]	; (10002078 <watchdog_reboot+0x78>)
10002014:	4318      	orrs	r0, r3
10002016:	4b19      	ldr	r3, [pc, #100]	; (1000207c <watchdog_reboot+0x7c>)
10002018:	61da      	str	r2, [r3, #28]
1000201a:	4a19      	ldr	r2, [pc, #100]	; (10002080 <watchdog_reboot+0x80>)
1000201c:	4042      	eors	r2, r0
1000201e:	621a      	str	r2, [r3, #32]
10002020:	6259      	str	r1, [r3, #36]	; 0x24
10002022:	6298      	str	r0, [r3, #40]	; 0x28
10002024:	2280      	movs	r2, #128	; 0x80
10002026:	4b13      	ldr	r3, [pc, #76]	; (10002074 <watchdog_reboot+0x74>)
10002028:	05d2      	lsls	r2, r2, #23
1000202a:	601a      	str	r2, [r3, #0]
1000202c:	4915      	ldr	r1, [pc, #84]	; (10002084 <watchdog_reboot+0x84>)
1000202e:	4a16      	ldr	r2, [pc, #88]	; (10002088 <watchdog_reboot+0x88>)
10002030:	6011      	str	r1, [r2, #0]
10002032:	22e0      	movs	r2, #224	; 0xe0
10002034:	04d2      	lsls	r2, r2, #19
10002036:	601a      	str	r2, [r3, #0]
10002038:	2c00      	cmp	r4, #0
1000203a:	d107      	bne.n	1000204c <watchdog_reboot+0x4c>
1000203c:	2280      	movs	r2, #128	; 0x80
1000203e:	4b13      	ldr	r3, [pc, #76]	; (1000208c <watchdog_reboot+0x8c>)
10002040:	0612      	lsls	r2, r2, #24
10002042:	601a      	str	r2, [r3, #0]
10002044:	bd10      	pop	{r4, pc}
10002046:	4b0d      	ldr	r3, [pc, #52]	; (1000207c <watchdog_reboot+0x7c>)
10002048:	61d8      	str	r0, [r3, #28]
1000204a:	e7eb      	b.n	10002024 <watchdog_reboot+0x24>
1000204c:	0163      	lsls	r3, r4, #5
1000204e:	1b1b      	subs	r3, r3, r4
10002050:	009a      	lsls	r2, r3, #2
10002052:	2380      	movs	r3, #128	; 0x80
10002054:	1912      	adds	r2, r2, r4
10002056:	0112      	lsls	r2, r2, #4
10002058:	045b      	lsls	r3, r3, #17
1000205a:	429a      	cmp	r2, r3
1000205c:	d300      	bcc.n	10002060 <watchdog_reboot+0x60>
1000205e:	4a0c      	ldr	r2, [pc, #48]	; (10002090 <watchdog_reboot+0x90>)
10002060:	4b0c      	ldr	r3, [pc, #48]	; (10002094 <watchdog_reboot+0x94>)
10002062:	601a      	str	r2, [r3, #0]
10002064:	4b05      	ldr	r3, [pc, #20]	; (1000207c <watchdog_reboot+0x7c>)
10002066:	605a      	str	r2, [r3, #4]
10002068:	2280      	movs	r2, #128	; 0x80
1000206a:	4b08      	ldr	r3, [pc, #32]	; (1000208c <watchdog_reboot+0x8c>)
1000206c:	05d2      	lsls	r2, r2, #23
1000206e:	601a      	str	r2, [r3, #0]
10002070:	e7e8      	b.n	10002044 <watchdog_reboot+0x44>
10002072:	46c0      	nop			; (mov r8, r8)
10002074:	4005b000 	.word	0x4005b000
10002078:	b007c0d3 	.word	0xb007c0d3
1000207c:	40058000 	.word	0x40058000
10002080:	4ff83f2d 	.word	0x4ff83f2d
10002084:	0001fffc 	.word	0x0001fffc
10002088:	40012008 	.word	0x40012008
1000208c:	4005a000 	.word	0x4005a000
10002090:	00ffffff 	.word	0x00ffffff
10002094:	20001c84 	.word	0x20001c84

10002098 <xosc_init>:
10002098:	23aa      	movs	r3, #170	; 0xaa
1000209a:	4a06      	ldr	r2, [pc, #24]	; (100020b4 <xosc_init+0x1c>)
1000209c:	011b      	lsls	r3, r3, #4
1000209e:	6013      	str	r3, [r2, #0]
100020a0:	232f      	movs	r3, #47	; 0x2f
100020a2:	4905      	ldr	r1, [pc, #20]	; (100020b8 <xosc_init+0x20>)
100020a4:	60d3      	str	r3, [r2, #12]
100020a6:	4b05      	ldr	r3, [pc, #20]	; (100020bc <xosc_init+0x24>)
100020a8:	6019      	str	r1, [r3, #0]
100020aa:	6853      	ldr	r3, [r2, #4]
100020ac:	2b00      	cmp	r3, #0
100020ae:	dafc      	bge.n	100020aa <xosc_init+0x12>
100020b0:	4770      	bx	lr
100020b2:	46c0      	nop			; (mov r8, r8)
100020b4:	40024000 	.word	0x40024000
100020b8:	00fab000 	.word	0x00fab000
100020bc:	40026000 	.word	0x40026000

100020c0 <runtime_init>:
100020c0:	4b2c      	ldr	r3, [pc, #176]	; (10002174 <runtime_init+0xb4>)
100020c2:	4a2d      	ldr	r2, [pc, #180]	; (10002178 <runtime_init+0xb8>)
100020c4:	b570      	push	{r4, r5, r6, lr}
100020c6:	601a      	str	r2, [r3, #0]
100020c8:	4a2c      	ldr	r2, [pc, #176]	; (1000217c <runtime_init+0xbc>)
100020ca:	4b2d      	ldr	r3, [pc, #180]	; (10002180 <runtime_init+0xc0>)
100020cc:	492d      	ldr	r1, [pc, #180]	; (10002184 <runtime_init+0xc4>)
100020ce:	601a      	str	r2, [r3, #0]
100020d0:	0014      	movs	r4, r2
100020d2:	688b      	ldr	r3, [r1, #8]
100020d4:	439c      	bics	r4, r3
100020d6:	d1fb      	bne.n	100020d0 <runtime_init+0x10>
100020d8:	4d2b      	ldr	r5, [pc, #172]	; (10002188 <runtime_init+0xc8>)
100020da:	4e2c      	ldr	r6, [pc, #176]	; (1000218c <runtime_init+0xcc>)
100020dc:	42b5      	cmp	r5, r6
100020de:	d208      	bcs.n	100020f2 <runtime_init+0x32>
100020e0:	3e01      	subs	r6, #1
100020e2:	1b76      	subs	r6, r6, r5
100020e4:	08b6      	lsrs	r6, r6, #2
100020e6:	cd08      	ldmia	r5!, {r3}
100020e8:	4798      	blx	r3
100020ea:	0023      	movs	r3, r4
100020ec:	3401      	adds	r4, #1
100020ee:	42b3      	cmp	r3, r6
100020f0:	d1f9      	bne.n	100020e6 <runtime_init+0x26>
100020f2:	f7ff fd85 	bl	10001c00 <clocks_init>
100020f6:	4a26      	ldr	r2, [pc, #152]	; (10002190 <runtime_init+0xd0>)
100020f8:	4b21      	ldr	r3, [pc, #132]	; (10002180 <runtime_init+0xc0>)
100020fa:	601a      	str	r2, [r3, #0]
100020fc:	4a21      	ldr	r2, [pc, #132]	; (10002184 <runtime_init+0xc4>)
100020fe:	6893      	ldr	r3, [r2, #8]
10002100:	43db      	mvns	r3, r3
10002102:	01db      	lsls	r3, r3, #7
10002104:	09dd      	lsrs	r5, r3, #7
10002106:	2b00      	cmp	r3, #0
10002108:	d1f9      	bne.n	100020fe <runtime_init+0x3e>
1000210a:	2240      	movs	r2, #64	; 0x40
1000210c:	4b21      	ldr	r3, [pc, #132]	; (10002194 <runtime_init+0xd4>)
1000210e:	4c22      	ldr	r4, [pc, #136]	; (10002198 <runtime_init+0xd8>)
10002110:	4e22      	ldr	r6, [pc, #136]	; (1000219c <runtime_init+0xdc>)
10002112:	679a      	str	r2, [r3, #120]	; 0x78
10002114:	675a      	str	r2, [r3, #116]	; 0x74
10002116:	671a      	str	r2, [r3, #112]	; 0x70
10002118:	66da      	str	r2, [r3, #108]	; 0x6c
1000211a:	42b4      	cmp	r4, r6
1000211c:	d208      	bcs.n	10002130 <runtime_init+0x70>
1000211e:	6823      	ldr	r3, [r4, #0]
10002120:	0020      	movs	r0, r4
10002122:	2b00      	cmp	r3, #0
10002124:	d020      	beq.n	10002168 <runtime_init+0xa8>
10002126:	3408      	adds	r4, #8
10002128:	f7fe fe6c 	bl	10000e04 <recursive_mutex_init>
1000212c:	42b4      	cmp	r4, r6
1000212e:	d3f6      	bcc.n	1000211e <runtime_init+0x5e>
10002130:	4e1b      	ldr	r6, [pc, #108]	; (100021a0 <runtime_init+0xe0>)
10002132:	4c1c      	ldr	r4, [pc, #112]	; (100021a4 <runtime_init+0xe4>)
10002134:	22c0      	movs	r2, #192	; 0xc0
10002136:	68a1      	ldr	r1, [r4, #8]
10002138:	0030      	movs	r0, r6
1000213a:	f002 fa2f 	bl	1000459c <__wrap___aeabi_memcpy>
1000213e:	60a6      	str	r6, [r4, #8]
10002140:	f7fe fb72 	bl	10000828 <spin_locks_reset>
10002144:	f7fe fe22 	bl	10000d8c <irq_init_priorities>
10002148:	f7ff f812 	bl	10001170 <alarm_pool_init_default>
1000214c:	4c16      	ldr	r4, [pc, #88]	; (100021a8 <runtime_init+0xe8>)
1000214e:	4e17      	ldr	r6, [pc, #92]	; (100021ac <runtime_init+0xec>)
10002150:	42b4      	cmp	r4, r6
10002152:	d208      	bcs.n	10002166 <runtime_init+0xa6>
10002154:	3e01      	subs	r6, #1
10002156:	1b36      	subs	r6, r6, r4
10002158:	08b6      	lsrs	r6, r6, #2
1000215a:	cc08      	ldmia	r4!, {r3}
1000215c:	4798      	blx	r3
1000215e:	002b      	movs	r3, r5
10002160:	3501      	adds	r5, #1
10002162:	429e      	cmp	r6, r3
10002164:	d1f9      	bne.n	1000215a <runtime_init+0x9a>
10002166:	bd70      	pop	{r4, r5, r6, pc}
10002168:	3408      	adds	r4, #8
1000216a:	f7fe fe3d 	bl	10000de8 <mutex_init>
1000216e:	42b4      	cmp	r4, r6
10002170:	d3d5      	bcc.n	1000211e <runtime_init+0x5e>
10002172:	e7dd      	b.n	10002130 <runtime_init+0x70>
10002174:	4000e000 	.word	0x4000e000
10002178:	fefbcdbf 	.word	0xfefbcdbf
1000217c:	003c7ffe 	.word	0x003c7ffe
10002180:	4000f000 	.word	0x4000f000
10002184:	4000c000 	.word	0x4000c000
10002188:	20000f48 	.word	0x20000f48
1000218c:	20000f58 	.word	0x20000f58
10002190:	01ffffff 	.word	0x01ffffff
10002194:	4001f000 	.word	0x4001f000
10002198:	20000f40 	.word	0x20000f40
1000219c:	20000f48 	.word	0x20000f48
100021a0:	20000000 	.word	0x20000000
100021a4:	e000ed00 	.word	0xe000ed00
100021a8:	20000f58 	.word	0x20000f58
100021ac:	20000f60 	.word	0x20000f60

100021b0 <_exit>:
100021b0:	be00      	bkpt	0x0000
100021b2:	e7fd      	b.n	100021b0 <_exit>

100021b4 <exit>:
100021b4:	b510      	push	{r4, lr}
100021b6:	f7ff fffb 	bl	100021b0 <_exit>
100021ba:	46c0      	nop			; (mov r8, r8)

100021bc <panic>:
100021bc:	b40f      	push	{r0, r1, r2, r3}
100021be:	b500      	push	{lr}
100021c0:	4808      	ldr	r0, [pc, #32]	; (100021e4 <panic+0x28>)
100021c2:	b083      	sub	sp, #12
100021c4:	f002 fb4e 	bl	10004864 <__wrap_puts>
100021c8:	9b04      	ldr	r3, [sp, #16]
100021ca:	2b00      	cmp	r3, #0
100021cc:	d007      	beq.n	100021de <panic+0x22>
100021ce:	a905      	add	r1, sp, #20
100021d0:	0018      	movs	r0, r3
100021d2:	9101      	str	r1, [sp, #4]
100021d4:	f001 fada 	bl	1000378c <weak_raw_vprintf>
100021d8:	4803      	ldr	r0, [pc, #12]	; (100021e8 <panic+0x2c>)
100021da:	f002 fb43 	bl	10004864 <__wrap_puts>
100021de:	2001      	movs	r0, #1
100021e0:	f7ff ffe6 	bl	100021b0 <_exit>
100021e4:	10007284 	.word	0x10007284
100021e8:	10007294 	.word	0x10007294

100021ec <hard_assertion_failure>:
100021ec:	b510      	push	{r4, lr}
100021ee:	4801      	ldr	r0, [pc, #4]	; (100021f4 <hard_assertion_failure+0x8>)
100021f0:	f7ff ffe4 	bl	100021bc <panic>
100021f4:	10007298 	.word	0x10007298

100021f8 <_out_null>:
100021f8:	4770      	bx	lr
100021fa:	46c0      	nop			; (mov r8, r8)

100021fc <_out_rev>:
100021fc:	b5f8      	push	{r3, r4, r5, r6, r7, lr}
100021fe:	4657      	mov	r7, sl
10002200:	464e      	mov	r6, r9
10002202:	4645      	mov	r5, r8
10002204:	46de      	mov	lr, fp
10002206:	b5e0      	push	{r5, r6, r7, lr}
10002208:	4699      	mov	r9, r3
1000220a:	9b0a      	ldr	r3, [sp, #40]	; 0x28
1000220c:	0007      	movs	r7, r0
1000220e:	469a      	mov	sl, r3
10002210:	9b0d      	ldr	r3, [sp, #52]	; 0x34
10002212:	4688      	mov	r8, r1
10002214:	4693      	mov	fp, r2
10002216:	0015      	movs	r5, r2
10002218:	9e0b      	ldr	r6, [sp, #44]	; 0x2c
1000221a:	079b      	lsls	r3, r3, #30
1000221c:	d110      	bne.n	10002240 <_out_rev+0x44>
1000221e:	9b0c      	ldr	r3, [sp, #48]	; 0x30
10002220:	429e      	cmp	r6, r3
10002222:	d20d      	bcs.n	10002240 <_out_rev+0x44>
10002224:	1b9d      	subs	r5, r3, r6
10002226:	0014      	movs	r4, r2
10002228:	000e      	movs	r6, r1
1000222a:	445d      	add	r5, fp
1000222c:	0022      	movs	r2, r4
1000222e:	464b      	mov	r3, r9
10002230:	3401      	adds	r4, #1
10002232:	0031      	movs	r1, r6
10002234:	2020      	movs	r0, #32
10002236:	47b8      	blx	r7
10002238:	42a5      	cmp	r5, r4
1000223a:	d1f7      	bne.n	1000222c <_out_rev+0x30>
1000223c:	46b0      	mov	r8, r6
1000223e:	9e0b      	ldr	r6, [sp, #44]	; 0x2c
10002240:	2e00      	cmp	r6, #0
10002242:	d027      	beq.n	10002294 <_out_rev+0x98>
10002244:	4644      	mov	r4, r8
10002246:	1975      	adds	r5, r6, r5
10002248:	4653      	mov	r3, sl
1000224a:	1baa      	subs	r2, r5, r6
1000224c:	3e01      	subs	r6, #1
1000224e:	5d98      	ldrb	r0, [r3, r6]
10002250:	0021      	movs	r1, r4
10002252:	464b      	mov	r3, r9
10002254:	47b8      	blx	r7
10002256:	2e00      	cmp	r6, #0
10002258:	d1f6      	bne.n	10002248 <_out_rev+0x4c>
1000225a:	0023      	movs	r3, r4
1000225c:	002c      	movs	r4, r5
1000225e:	4698      	mov	r8, r3
10002260:	9b0d      	ldr	r3, [sp, #52]	; 0x34
10002262:	079b      	lsls	r3, r3, #30
10002264:	d50f      	bpl.n	10002286 <_out_rev+0x8a>
10002266:	465b      	mov	r3, fp
10002268:	1ae5      	subs	r5, r4, r3
1000226a:	9b0c      	ldr	r3, [sp, #48]	; 0x30
1000226c:	42ab      	cmp	r3, r5
1000226e:	d90a      	bls.n	10002286 <_out_rev+0x8a>
10002270:	4646      	mov	r6, r8
10002272:	4698      	mov	r8, r3
10002274:	0022      	movs	r2, r4
10002276:	464b      	mov	r3, r9
10002278:	0031      	movs	r1, r6
1000227a:	2020      	movs	r0, #32
1000227c:	3501      	adds	r5, #1
1000227e:	47b8      	blx	r7
10002280:	3401      	adds	r4, #1
10002282:	45a8      	cmp	r8, r5
10002284:	d8f6      	bhi.n	10002274 <_out_rev+0x78>
10002286:	0020      	movs	r0, r4
10002288:	bcf0      	pop	{r4, r5, r6, r7}
1000228a:	46bb      	mov	fp, r7
1000228c:	46b2      	mov	sl, r6
1000228e:	46a9      	mov	r9, r5
10002290:	46a0      	mov	r8, r4
10002292:	bdf8      	pop	{r3, r4, r5, r6, r7, pc}
10002294:	002c      	movs	r4, r5
10002296:	e7e3      	b.n	10002260 <_out_rev+0x64>

10002298 <_ntoa_format>:
10002298:	b5f0      	push	{r4, r5, r6, r7, lr}
1000229a:	464f      	mov	r7, r9
1000229c:	4646      	mov	r6, r8
1000229e:	46d6      	mov	lr, sl
100022a0:	b5c0      	push	{r6, r7, lr}
100022a2:	b084      	sub	sp, #16
100022a4:	4698      	mov	r8, r3
100022a6:	ab0e      	add	r3, sp, #56	; 0x38
100022a8:	781b      	ldrb	r3, [r3, #0]
100022aa:	9f12      	ldr	r7, [sp, #72]	; 0x48
100022ac:	4699      	mov	r9, r3
100022ae:	4694      	mov	ip, r2
100022b0:	9c0d      	ldr	r4, [sp, #52]	; 0x34
100022b2:	9b10      	ldr	r3, [sp, #64]	; 0x40
100022b4:	9e11      	ldr	r6, [sp, #68]	; 0x44
100022b6:	07ba      	lsls	r2, r7, #30
100022b8:	d425      	bmi.n	10002306 <_ntoa_format+0x6e>
100022ba:	2e00      	cmp	r6, #0
100022bc:	d14b      	bne.n	10002356 <_ntoa_format+0xbe>
100022be:	429c      	cmp	r4, r3
100022c0:	d300      	bcc.n	100022c4 <_ntoa_format+0x2c>
100022c2:	e0bf      	b.n	10002444 <_ntoa_format+0x1ac>
100022c4:	2201      	movs	r2, #1
100022c6:	403a      	ands	r2, r7
100022c8:	4692      	mov	sl, r2
100022ca:	2c1f      	cmp	r4, #31
100022cc:	d900      	bls.n	100022d0 <_ntoa_format+0x38>
100022ce:	e0b8      	b.n	10002442 <_ntoa_format+0x1aa>
100022d0:	9a0c      	ldr	r2, [sp, #48]	; 0x30
100022d2:	1e55      	subs	r5, r2, #1
100022d4:	2230      	movs	r2, #48	; 0x30
100022d6:	e001      	b.n	100022dc <_ntoa_format+0x44>
100022d8:	2c20      	cmp	r4, #32
100022da:	d003      	beq.n	100022e4 <_ntoa_format+0x4c>
100022dc:	3401      	adds	r4, #1
100022de:	552a      	strb	r2, [r5, r4]
100022e0:	42a3      	cmp	r3, r4
100022e2:	d8f9      	bhi.n	100022d8 <_ntoa_format+0x40>
100022e4:	4652      	mov	r2, sl
100022e6:	2a00      	cmp	r2, #0
100022e8:	d00d      	beq.n	10002306 <_ntoa_format+0x6e>
100022ea:	42a6      	cmp	r6, r4
100022ec:	d90b      	bls.n	10002306 <_ntoa_format+0x6e>
100022ee:	2c20      	cmp	r4, #32
100022f0:	d044      	beq.n	1000237c <_ntoa_format+0xe4>
100022f2:	9a0c      	ldr	r2, [sp, #48]	; 0x30
100022f4:	1e55      	subs	r5, r2, #1
100022f6:	2230      	movs	r2, #48	; 0x30
100022f8:	e001      	b.n	100022fe <_ntoa_format+0x66>
100022fa:	2c20      	cmp	r4, #32
100022fc:	d03e      	beq.n	1000237c <_ntoa_format+0xe4>
100022fe:	3401      	adds	r4, #1
10002300:	552a      	strb	r2, [r5, r4]
10002302:	42b4      	cmp	r4, r6
10002304:	d1f9      	bne.n	100022fa <_ntoa_format+0x62>
10002306:	06fa      	lsls	r2, r7, #27
10002308:	d54d      	bpl.n	100023a6 <_ntoa_format+0x10e>
1000230a:	057a      	lsls	r2, r7, #21
1000230c:	d43f      	bmi.n	1000238e <_ntoa_format+0xf6>
1000230e:	2c00      	cmp	r4, #0
10002310:	d139      	bne.n	10002386 <_ntoa_format+0xee>
10002312:	9b0f      	ldr	r3, [sp, #60]	; 0x3c
10002314:	2b10      	cmp	r3, #16
10002316:	d100      	bne.n	1000231a <_ntoa_format+0x82>
10002318:	e079      	b.n	1000240e <_ntoa_format+0x176>
1000231a:	9b0f      	ldr	r3, [sp, #60]	; 0x3c
1000231c:	2b02      	cmp	r3, #2
1000231e:	d100      	bne.n	10002322 <_ntoa_format+0x8a>
10002320:	e08a      	b.n	10002438 <_ntoa_format+0x1a0>
10002322:	2330      	movs	r3, #48	; 0x30
10002324:	9a0c      	ldr	r2, [sp, #48]	; 0x30
10002326:	2401      	movs	r4, #1
10002328:	7013      	strb	r3, [r2, #0]
1000232a:	464b      	mov	r3, r9
1000232c:	2b00      	cmp	r3, #0
1000232e:	d03f      	beq.n	100023b0 <_ntoa_format+0x118>
10002330:	232d      	movs	r3, #45	; 0x2d
10002332:	9a0c      	ldr	r2, [sp, #48]	; 0x30
10002334:	5513      	strb	r3, [r2, r4]
10002336:	3401      	adds	r4, #1
10002338:	9b0c      	ldr	r3, [sp, #48]	; 0x30
1000233a:	4662      	mov	r2, ip
1000233c:	9300      	str	r3, [sp, #0]
1000233e:	9703      	str	r7, [sp, #12]
10002340:	4643      	mov	r3, r8
10002342:	9602      	str	r6, [sp, #8]
10002344:	9401      	str	r4, [sp, #4]
10002346:	f7ff ff59 	bl	100021fc <_out_rev>
1000234a:	b004      	add	sp, #16
1000234c:	bce0      	pop	{r5, r6, r7}
1000234e:	46ba      	mov	sl, r7
10002350:	46b1      	mov	r9, r6
10002352:	46a8      	mov	r8, r5
10002354:	bdf0      	pop	{r4, r5, r6, r7, pc}
10002356:	2201      	movs	r2, #1
10002358:	0015      	movs	r5, r2
1000235a:	403d      	ands	r5, r7
1000235c:	46aa      	mov	sl, r5
1000235e:	423a      	tst	r2, r7
10002360:	d02f      	beq.n	100023c2 <_ntoa_format+0x12a>
10002362:	464a      	mov	r2, r9
10002364:	2a00      	cmp	r2, #0
10002366:	d102      	bne.n	1000236e <_ntoa_format+0xd6>
10002368:	320c      	adds	r2, #12
1000236a:	423a      	tst	r2, r7
1000236c:	d000      	beq.n	10002370 <_ntoa_format+0xd8>
1000236e:	3e01      	subs	r6, #1
10002370:	429c      	cmp	r4, r3
10002372:	d2ba      	bcs.n	100022ea <_ntoa_format+0x52>
10002374:	2c1f      	cmp	r4, #31
10002376:	d9ab      	bls.n	100022d0 <_ntoa_format+0x38>
10002378:	2e20      	cmp	r6, #32
1000237a:	d927      	bls.n	100023cc <_ntoa_format+0x134>
1000237c:	2420      	movs	r4, #32
1000237e:	06fa      	lsls	r2, r7, #27
10002380:	d5da      	bpl.n	10002338 <_ntoa_format+0xa0>
10002382:	057a      	lsls	r2, r7, #21
10002384:	d403      	bmi.n	1000238e <_ntoa_format+0xf6>
10002386:	42a3      	cmp	r3, r4
10002388:	d02d      	beq.n	100023e6 <_ntoa_format+0x14e>
1000238a:	42a6      	cmp	r6, r4
1000238c:	d02b      	beq.n	100023e6 <_ntoa_format+0x14e>
1000238e:	9b0f      	ldr	r3, [sp, #60]	; 0x3c
10002390:	2b10      	cmp	r3, #16
10002392:	d032      	beq.n	100023fa <_ntoa_format+0x162>
10002394:	2b02      	cmp	r3, #2
10002396:	d020      	beq.n	100023da <_ntoa_format+0x142>
10002398:	2c20      	cmp	r4, #32
1000239a:	d0cd      	beq.n	10002338 <_ntoa_format+0xa0>
1000239c:	2230      	movs	r2, #48	; 0x30
1000239e:	9b0c      	ldr	r3, [sp, #48]	; 0x30
100023a0:	191b      	adds	r3, r3, r4
100023a2:	701a      	strb	r2, [r3, #0]
100023a4:	3401      	adds	r4, #1
100023a6:	2c20      	cmp	r4, #32
100023a8:	d0c6      	beq.n	10002338 <_ntoa_format+0xa0>
100023aa:	464b      	mov	r3, r9
100023ac:	2b00      	cmp	r3, #0
100023ae:	d1bf      	bne.n	10002330 <_ntoa_format+0x98>
100023b0:	077b      	lsls	r3, r7, #29
100023b2:	d40d      	bmi.n	100023d0 <_ntoa_format+0x138>
100023b4:	073b      	lsls	r3, r7, #28
100023b6:	d5bf      	bpl.n	10002338 <_ntoa_format+0xa0>
100023b8:	2320      	movs	r3, #32
100023ba:	9a0c      	ldr	r2, [sp, #48]	; 0x30
100023bc:	5513      	strb	r3, [r2, r4]
100023be:	3401      	adds	r4, #1
100023c0:	e7ba      	b.n	10002338 <_ntoa_format+0xa0>
100023c2:	429c      	cmp	r4, r3
100023c4:	d29f      	bcs.n	10002306 <_ntoa_format+0x6e>
100023c6:	2c1f      	cmp	r4, #31
100023c8:	d800      	bhi.n	100023cc <_ntoa_format+0x134>
100023ca:	e781      	b.n	100022d0 <_ntoa_format+0x38>
100023cc:	2420      	movs	r4, #32
100023ce:	e79a      	b.n	10002306 <_ntoa_format+0x6e>
100023d0:	232b      	movs	r3, #43	; 0x2b
100023d2:	9a0c      	ldr	r2, [sp, #48]	; 0x30
100023d4:	5513      	strb	r3, [r2, r4]
100023d6:	3401      	adds	r4, #1
100023d8:	e7ae      	b.n	10002338 <_ntoa_format+0xa0>
100023da:	2c20      	cmp	r4, #32
100023dc:	d0ac      	beq.n	10002338 <_ntoa_format+0xa0>
100023de:	9b0c      	ldr	r3, [sp, #48]	; 0x30
100023e0:	191b      	adds	r3, r3, r4
100023e2:	3401      	adds	r4, #1
100023e4:	e03a      	b.n	1000245c <_ntoa_format+0x1c4>
100023e6:	1e63      	subs	r3, r4, #1
100023e8:	2c01      	cmp	r4, #1
100023ea:	d092      	beq.n	10002312 <_ntoa_format+0x7a>
100023ec:	9a0f      	ldr	r2, [sp, #60]	; 0x3c
100023ee:	2a10      	cmp	r2, #16
100023f0:	d02a      	beq.n	10002448 <_ntoa_format+0x1b0>
100023f2:	2a02      	cmp	r2, #2
100023f4:	d02f      	beq.n	10002456 <_ntoa_format+0x1be>
100023f6:	001c      	movs	r4, r3
100023f8:	e7d0      	b.n	1000239c <_ntoa_format+0x104>
100023fa:	06bb      	lsls	r3, r7, #26
100023fc:	d40e      	bmi.n	1000241c <_ntoa_format+0x184>
100023fe:	2c20      	cmp	r4, #32
10002400:	d09a      	beq.n	10002338 <_ntoa_format+0xa0>
10002402:	9b0c      	ldr	r3, [sp, #48]	; 0x30
10002404:	191a      	adds	r2, r3, r4
10002406:	3401      	adds	r4, #1
10002408:	2378      	movs	r3, #120	; 0x78
1000240a:	7013      	strb	r3, [r2, #0]
1000240c:	e7c4      	b.n	10002398 <_ntoa_format+0x100>
1000240e:	06bb      	lsls	r3, r7, #26
10002410:	d40d      	bmi.n	1000242e <_ntoa_format+0x196>
10002412:	2378      	movs	r3, #120	; 0x78
10002414:	9a0c      	ldr	r2, [sp, #48]	; 0x30
10002416:	2401      	movs	r4, #1
10002418:	7013      	strb	r3, [r2, #0]
1000241a:	e7bf      	b.n	1000239c <_ntoa_format+0x104>
1000241c:	2c20      	cmp	r4, #32
1000241e:	d100      	bne.n	10002422 <_ntoa_format+0x18a>
10002420:	e78a      	b.n	10002338 <_ntoa_format+0xa0>
10002422:	2258      	movs	r2, #88	; 0x58
10002424:	9b0c      	ldr	r3, [sp, #48]	; 0x30
10002426:	191b      	adds	r3, r3, r4
10002428:	701a      	strb	r2, [r3, #0]
1000242a:	3401      	adds	r4, #1
1000242c:	e7b4      	b.n	10002398 <_ntoa_format+0x100>
1000242e:	2358      	movs	r3, #88	; 0x58
10002430:	9a0c      	ldr	r2, [sp, #48]	; 0x30
10002432:	2401      	movs	r4, #1
10002434:	7013      	strb	r3, [r2, #0]
10002436:	e7b1      	b.n	1000239c <_ntoa_format+0x104>
10002438:	9a0c      	ldr	r2, [sp, #48]	; 0x30
1000243a:	3360      	adds	r3, #96	; 0x60
1000243c:	2401      	movs	r4, #1
1000243e:	7013      	strb	r3, [r2, #0]
10002440:	e7ac      	b.n	1000239c <_ntoa_format+0x104>
10002442:	2420      	movs	r4, #32
10002444:	2600      	movs	r6, #0
10002446:	e75e      	b.n	10002306 <_ntoa_format+0x6e>
10002448:	3c02      	subs	r4, #2
1000244a:	06ba      	lsls	r2, r7, #26
1000244c:	d4e9      	bmi.n	10002422 <_ntoa_format+0x18a>
1000244e:	9a0c      	ldr	r2, [sp, #48]	; 0x30
10002450:	1912      	adds	r2, r2, r4
10002452:	001c      	movs	r4, r3
10002454:	e7d8      	b.n	10002408 <_ntoa_format+0x170>
10002456:	9a0c      	ldr	r2, [sp, #48]	; 0x30
10002458:	4692      	mov	sl, r2
1000245a:	4453      	add	r3, sl
1000245c:	2262      	movs	r2, #98	; 0x62
1000245e:	701a      	strb	r2, [r3, #0]
10002460:	e79a      	b.n	10002398 <_ntoa_format+0x100>
10002462:	46c0      	nop			; (mov r8, r8)

10002464 <_out_char>:
10002464:	b510      	push	{r4, lr}
10002466:	2800      	cmp	r0, #0
10002468:	d100      	bne.n	1000246c <_out_char+0x8>
1000246a:	bd10      	pop	{r4, pc}
1000246c:	f002 f9ae 	bl	100047cc <__wrap_putchar>
10002470:	e7fb      	b.n	1000246a <_out_char+0x6>
10002472:	46c0      	nop			; (mov r8, r8)

10002474 <_out_fct>:
10002474:	000b      	movs	r3, r1
10002476:	b510      	push	{r4, lr}
10002478:	2800      	cmp	r0, #0
1000247a:	d002      	beq.n	10002482 <_out_fct+0xe>
1000247c:	6849      	ldr	r1, [r1, #4]
1000247e:	681b      	ldr	r3, [r3, #0]
10002480:	4798      	blx	r3
10002482:	bd10      	pop	{r4, pc}

10002484 <_etoa>:
10002484:	b5f0      	push	{r4, r5, r6, r7, lr}
10002486:	46de      	mov	lr, fp
10002488:	4657      	mov	r7, sl
1000248a:	464e      	mov	r6, r9
1000248c:	4645      	mov	r5, r8
1000248e:	b5e0      	push	{r5, r6, r7, lr}
10002490:	b09b      	sub	sp, #108	; 0x6c
10002492:	469b      	mov	fp, r3
10002494:	9b24      	ldr	r3, [sp, #144]	; 0x90
10002496:	4689      	mov	r9, r1
10002498:	4698      	mov	r8, r3
1000249a:	9b25      	ldr	r3, [sp, #148]	; 0x94
1000249c:	900b      	str	r0, [sp, #44]	; 0x2c
1000249e:	920c      	str	r2, [sp, #48]	; 0x30
100024a0:	4640      	mov	r0, r8
100024a2:	4642      	mov	r2, r8
100024a4:	0019      	movs	r1, r3
100024a6:	469a      	mov	sl, r3
100024a8:	f001 fcb3 	bl	10003e12 <__wrap___aeabi_dcmpun>
100024ac:	2800      	cmp	r0, #0
100024ae:	d000      	beq.n	100024b2 <_etoa+0x2e>
100024b0:	e0d8      	b.n	10002664 <_etoa+0x1e0>
100024b2:	2201      	movs	r2, #1
100024b4:	4640      	mov	r0, r8
100024b6:	4651      	mov	r1, sl
100024b8:	4b77      	ldr	r3, [pc, #476]	; (10002698 <_etoa+0x214>)
100024ba:	4252      	negs	r2, r2
100024bc:	f001 fca4 	bl	10003e08 <__wrap___aeabi_dcmpgt>
100024c0:	2800      	cmp	r0, #0
100024c2:	d000      	beq.n	100024c6 <_etoa+0x42>
100024c4:	e0ce      	b.n	10002664 <_etoa+0x1e0>
100024c6:	2201      	movs	r2, #1
100024c8:	4640      	mov	r0, r8
100024ca:	4651      	mov	r1, sl
100024cc:	4b73      	ldr	r3, [pc, #460]	; (1000269c <_etoa+0x218>)
100024ce:	4252      	negs	r2, r2
100024d0:	f001 fc84 	bl	10003ddc <__wrap___aeabi_dcmplt>
100024d4:	2800      	cmp	r0, #0
100024d6:	d000      	beq.n	100024da <_etoa+0x56>
100024d8:	e0c4      	b.n	10002664 <_etoa+0x1e0>
100024da:	2200      	movs	r2, #0
100024dc:	2300      	movs	r3, #0
100024de:	4640      	mov	r0, r8
100024e0:	4651      	mov	r1, sl
100024e2:	f001 fc7b 	bl	10003ddc <__wrap___aeabi_dcmplt>
100024e6:	2800      	cmp	r0, #0
100024e8:	d000      	beq.n	100024ec <_etoa+0x68>
100024ea:	e1b9      	b.n	10002860 <_etoa+0x3dc>
100024ec:	4642      	mov	r2, r8
100024ee:	4653      	mov	r3, sl
100024f0:	920a      	str	r2, [sp, #40]	; 0x28
100024f2:	9309      	str	r3, [sp, #36]	; 0x24
100024f4:	2380      	movs	r3, #128	; 0x80
100024f6:	9a28      	ldr	r2, [sp, #160]	; 0xa0
100024f8:	00db      	lsls	r3, r3, #3
100024fa:	401a      	ands	r2, r3
100024fc:	920e      	str	r2, [sp, #56]	; 0x38
100024fe:	9a28      	ldr	r2, [sp, #160]	; 0xa0
10002500:	421a      	tst	r2, r3
10002502:	d101      	bne.n	10002508 <_etoa+0x84>
10002504:	2306      	movs	r3, #6
10002506:	9326      	str	r3, [sp, #152]	; 0x98
10002508:	9a0a      	ldr	r2, [sp, #40]	; 0x28
1000250a:	9b09      	ldr	r3, [sp, #36]	; 0x24
1000250c:	0016      	movs	r6, r2
1000250e:	4313      	orrs	r3, r2
10002510:	d000      	beq.n	10002514 <_etoa+0x90>
10002512:	e0c7      	b.n	100026a4 <_etoa+0x220>
10002514:	9b28      	ldr	r3, [sp, #160]	; 0xa0
10002516:	2500      	movs	r5, #0
10002518:	2600      	movs	r6, #0
1000251a:	051b      	lsls	r3, r3, #20
1000251c:	d400      	bmi.n	10002520 <_etoa+0x9c>
1000251e:	e19b      	b.n	10002858 <_etoa+0x3d4>
10002520:	2300      	movs	r3, #0
10002522:	930d      	str	r3, [sp, #52]	; 0x34
10002524:	9a26      	ldr	r2, [sp, #152]	; 0x98
10002526:	9b0d      	ldr	r3, [sp, #52]	; 0x34
10002528:	429a      	cmp	r2, r3
1000252a:	dc00      	bgt.n	1000252e <_etoa+0xaa>
1000252c:	e19f      	b.n	1000286e <_etoa+0x3ea>
1000252e:	1ad0      	subs	r0, r2, r3
10002530:	1e43      	subs	r3, r0, #1
10002532:	9326      	str	r3, [sp, #152]	; 0x98
10002534:	2380      	movs	r3, #128	; 0x80
10002536:	9a28      	ldr	r2, [sp, #160]	; 0xa0
10002538:	00db      	lsls	r3, r3, #3
1000253a:	431a      	orrs	r2, r3
1000253c:	2300      	movs	r3, #0
1000253e:	2700      	movs	r7, #0
10002540:	9228      	str	r2, [sp, #160]	; 0xa0
10002542:	930d      	str	r3, [sp, #52]	; 0x34
10002544:	9b27      	ldr	r3, [sp, #156]	; 0x9c
10002546:	2400      	movs	r4, #0
10002548:	42bb      	cmp	r3, r7
1000254a:	d900      	bls.n	1000254e <_etoa+0xca>
1000254c:	1bdc      	subs	r4, r3, r7
1000254e:	2302      	movs	r3, #2
10002550:	9a28      	ldr	r2, [sp, #160]	; 0xa0
10002552:	401a      	ands	r2, r3
10002554:	920e      	str	r2, [sp, #56]	; 0x38
10002556:	9a28      	ldr	r2, [sp, #160]	; 0xa0
10002558:	4213      	tst	r3, r2
1000255a:	d003      	beq.n	10002564 <_etoa+0xe0>
1000255c:	427b      	negs	r3, r7
1000255e:	417b      	adcs	r3, r7
10002560:	425b      	negs	r3, r3
10002562:	401c      	ands	r4, r3
10002564:	9b0d      	ldr	r3, [sp, #52]	; 0x34
10002566:	2b00      	cmp	r3, #0
10002568:	d007      	beq.n	1000257a <_etoa+0xf6>
1000256a:	980a      	ldr	r0, [sp, #40]	; 0x28
1000256c:	9909      	ldr	r1, [sp, #36]	; 0x24
1000256e:	002a      	movs	r2, r5
10002570:	0033      	movs	r3, r6
10002572:	f001 fbd2 	bl	10003d1a <__wrap___aeabi_ddiv>
10002576:	900a      	str	r0, [sp, #40]	; 0x28
10002578:	9109      	str	r1, [sp, #36]	; 0x24
1000257a:	2200      	movs	r2, #0
1000257c:	2300      	movs	r3, #0
1000257e:	4640      	mov	r0, r8
10002580:	4651      	mov	r1, sl
10002582:	f001 fc2b 	bl	10003ddc <__wrap___aeabi_dcmplt>
10002586:	2800      	cmp	r0, #0
10002588:	d005      	beq.n	10002596 <_etoa+0x112>
1000258a:	2080      	movs	r0, #128	; 0x80
1000258c:	0600      	lsls	r0, r0, #24
1000258e:	4684      	mov	ip, r0
10002590:	9909      	ldr	r1, [sp, #36]	; 0x24
10002592:	4461      	add	r1, ip
10002594:	9109      	str	r1, [sp, #36]	; 0x24
10002596:	9a28      	ldr	r2, [sp, #160]	; 0xa0
10002598:	4b41      	ldr	r3, [pc, #260]	; (100026a0 <_etoa+0x21c>)
1000259a:	9d0b      	ldr	r5, [sp, #44]	; 0x2c
1000259c:	4013      	ands	r3, r2
1000259e:	9304      	str	r3, [sp, #16]
100025a0:	9b26      	ldr	r3, [sp, #152]	; 0x98
100025a2:	9a0a      	ldr	r2, [sp, #40]	; 0x28
100025a4:	9302      	str	r3, [sp, #8]
100025a6:	9b09      	ldr	r3, [sp, #36]	; 0x24
100025a8:	9403      	str	r4, [sp, #12]
100025aa:	9200      	str	r2, [sp, #0]
100025ac:	9301      	str	r3, [sp, #4]
100025ae:	4649      	mov	r1, r9
100025b0:	465b      	mov	r3, fp
100025b2:	0028      	movs	r0, r5
100025b4:	9a0c      	ldr	r2, [sp, #48]	; 0x30
100025b6:	f000 f98b 	bl	100028d0 <_ftoa>
100025ba:	0004      	movs	r4, r0
100025bc:	2f00      	cmp	r7, #0
100025be:	d062      	beq.n	10002686 <_etoa+0x202>
100025c0:	9b28      	ldr	r3, [sp, #160]	; 0xa0
100025c2:	0022      	movs	r2, r4
100025c4:	0698      	lsls	r0, r3, #26
100025c6:	231f      	movs	r3, #31
100025c8:	17c0      	asrs	r0, r0, #31
100025ca:	4398      	bics	r0, r3
100025cc:	1c63      	adds	r3, r4, #1
100025ce:	4698      	mov	r8, r3
100025d0:	4649      	mov	r1, r9
100025d2:	465b      	mov	r3, fp
100025d4:	3065      	adds	r0, #101	; 0x65
100025d6:	47a8      	blx	r5
100025d8:	9b0d      	ldr	r3, [sp, #52]	; 0x34
100025da:	2500      	movs	r5, #0
100025dc:	17da      	asrs	r2, r3, #31
100025de:	189c      	adds	r4, r3, r2
100025e0:	0fdb      	lsrs	r3, r3, #31
100025e2:	469a      	mov	sl, r3
100025e4:	4054      	eors	r4, r2
100025e6:	3f01      	subs	r7, #1
100025e8:	e001      	b.n	100025ee <_etoa+0x16a>
100025ea:	2d20      	cmp	r5, #32
100025ec:	d013      	beq.n	10002616 <_etoa+0x192>
100025ee:	aa0a      	add	r2, sp, #40	; 0x28
100025f0:	4694      	mov	ip, r2
100025f2:	231f      	movs	r3, #31
100025f4:	0020      	movs	r0, r4
100025f6:	4463      	add	r3, ip
100025f8:	210a      	movs	r1, #10
100025fa:	3501      	adds	r5, #1
100025fc:	195e      	adds	r6, r3, r5
100025fe:	f001 f93f 	bl	10003880 <__wrap___aeabi_uidiv>
10002602:	3130      	adds	r1, #48	; 0x30
10002604:	7031      	strb	r1, [r6, #0]
10002606:	0020      	movs	r0, r4
10002608:	210a      	movs	r1, #10
1000260a:	f001 f939 	bl	10003880 <__wrap___aeabi_uidiv>
1000260e:	0026      	movs	r6, r4
10002610:	0004      	movs	r4, r0
10002612:	2e09      	cmp	r6, #9
10002614:	d8e9      	bhi.n	100025ea <_etoa+0x166>
10002616:	2305      	movs	r3, #5
10002618:	9306      	str	r3, [sp, #24]
1000261a:	2300      	movs	r3, #0
1000261c:	9304      	str	r3, [sp, #16]
1000261e:	330a      	adds	r3, #10
10002620:	9303      	str	r3, [sp, #12]
10002622:	4653      	mov	r3, sl
10002624:	9705      	str	r7, [sp, #20]
10002626:	9f0b      	ldr	r7, [sp, #44]	; 0x2c
10002628:	9302      	str	r3, [sp, #8]
1000262a:	ab12      	add	r3, sp, #72	; 0x48
1000262c:	9300      	str	r3, [sp, #0]
1000262e:	4642      	mov	r2, r8
10002630:	465b      	mov	r3, fp
10002632:	4649      	mov	r1, r9
10002634:	0038      	movs	r0, r7
10002636:	9501      	str	r5, [sp, #4]
10002638:	f7ff fe2e 	bl	10002298 <_ntoa_format>
1000263c:	9b0e      	ldr	r3, [sp, #56]	; 0x38
1000263e:	0004      	movs	r4, r0
10002640:	2b00      	cmp	r3, #0
10002642:	d020      	beq.n	10002686 <_etoa+0x202>
10002644:	9b0c      	ldr	r3, [sp, #48]	; 0x30
10002646:	1ac5      	subs	r5, r0, r3
10002648:	9b27      	ldr	r3, [sp, #156]	; 0x9c
1000264a:	42ab      	cmp	r3, r5
1000264c:	d91b      	bls.n	10002686 <_etoa+0x202>
1000264e:	001e      	movs	r6, r3
10002650:	0022      	movs	r2, r4
10002652:	465b      	mov	r3, fp
10002654:	4649      	mov	r1, r9
10002656:	2020      	movs	r0, #32
10002658:	3501      	adds	r5, #1
1000265a:	47b8      	blx	r7
1000265c:	3401      	adds	r4, #1
1000265e:	42ae      	cmp	r6, r5
10002660:	d8f6      	bhi.n	10002650 <_etoa+0x1cc>
10002662:	e010      	b.n	10002686 <_etoa+0x202>
10002664:	9b28      	ldr	r3, [sp, #160]	; 0xa0
10002666:	4642      	mov	r2, r8
10002668:	9304      	str	r3, [sp, #16]
1000266a:	9b27      	ldr	r3, [sp, #156]	; 0x9c
1000266c:	4649      	mov	r1, r9
1000266e:	9303      	str	r3, [sp, #12]
10002670:	9b26      	ldr	r3, [sp, #152]	; 0x98
10002672:	980b      	ldr	r0, [sp, #44]	; 0x2c
10002674:	9302      	str	r3, [sp, #8]
10002676:	4653      	mov	r3, sl
10002678:	9200      	str	r2, [sp, #0]
1000267a:	9301      	str	r3, [sp, #4]
1000267c:	465b      	mov	r3, fp
1000267e:	9a0c      	ldr	r2, [sp, #48]	; 0x30
10002680:	f000 f926 	bl	100028d0 <_ftoa>
10002684:	0004      	movs	r4, r0
10002686:	0020      	movs	r0, r4
10002688:	b01b      	add	sp, #108	; 0x6c
1000268a:	bcf0      	pop	{r4, r5, r6, r7}
1000268c:	46bb      	mov	fp, r7
1000268e:	46b2      	mov	sl, r6
10002690:	46a9      	mov	r9, r5
10002692:	46a0      	mov	r8, r4
10002694:	bdf0      	pop	{r4, r5, r6, r7, pc}
10002696:	46c0      	nop			; (mov r8, r8)
10002698:	7fefffff 	.word	0x7fefffff
1000269c:	ffefffff 	.word	0xffefffff
100026a0:	fffff7ff 	.word	0xfffff7ff
100026a4:	4b73      	ldr	r3, [pc, #460]	; (10002874 <_etoa+0x3f0>)
100026a6:	9f09      	ldr	r7, [sp, #36]	; 0x24
100026a8:	469c      	mov	ip, r3
100026aa:	0078      	lsls	r0, r7, #1
100026ac:	0d40      	lsrs	r0, r0, #21
100026ae:	4460      	add	r0, ip
100026b0:	f001 fbc2 	bl	10003e38 <__wrap___aeabi_i2d>
100026b4:	4a70      	ldr	r2, [pc, #448]	; (10002878 <_etoa+0x3f4>)
100026b6:	4b71      	ldr	r3, [pc, #452]	; (1000287c <_etoa+0x3f8>)
100026b8:	f001 fb4d 	bl	10003d56 <__wrap___aeabi_dmul>
100026bc:	4a70      	ldr	r2, [pc, #448]	; (10002880 <_etoa+0x3fc>)
100026be:	4b71      	ldr	r3, [pc, #452]	; (10002884 <_etoa+0x400>)
100026c0:	f001 fb22 	bl	10003d08 <__wrap___aeabi_dadd>
100026c4:	033b      	lsls	r3, r7, #12
100026c6:	4a70      	ldr	r2, [pc, #448]	; (10002888 <_etoa+0x404>)
100026c8:	0b1b      	lsrs	r3, r3, #12
100026ca:	431a      	orrs	r2, r3
100026cc:	0004      	movs	r4, r0
100026ce:	000d      	movs	r5, r1
100026d0:	0030      	movs	r0, r6
100026d2:	0011      	movs	r1, r2
100026d4:	4b6d      	ldr	r3, [pc, #436]	; (1000288c <_etoa+0x408>)
100026d6:	2200      	movs	r2, #0
100026d8:	f001 fb0d 	bl	10003cf6 <__wrap___aeabi_dsub>
100026dc:	4a6c      	ldr	r2, [pc, #432]	; (10002890 <_etoa+0x40c>)
100026de:	4b6d      	ldr	r3, [pc, #436]	; (10002894 <_etoa+0x410>)
100026e0:	f001 fb39 	bl	10003d56 <__wrap___aeabi_dmul>
100026e4:	0002      	movs	r2, r0
100026e6:	000b      	movs	r3, r1
100026e8:	0020      	movs	r0, r4
100026ea:	0029      	movs	r1, r5
100026ec:	f001 fb0c 	bl	10003d08 <__wrap___aeabi_dadd>
100026f0:	f001 fbba 	bl	10003e68 <__wrap___aeabi_d2iz>
100026f4:	900d      	str	r0, [sp, #52]	; 0x34
100026f6:	f001 fb9f 	bl	10003e38 <__wrap___aeabi_i2d>
100026fa:	4a67      	ldr	r2, [pc, #412]	; (10002898 <_etoa+0x414>)
100026fc:	4b67      	ldr	r3, [pc, #412]	; (1000289c <_etoa+0x418>)
100026fe:	0004      	movs	r4, r0
10002700:	000d      	movs	r5, r1
10002702:	f001 fb28 	bl	10003d56 <__wrap___aeabi_dmul>
10002706:	2200      	movs	r2, #0
10002708:	4b65      	ldr	r3, [pc, #404]	; (100028a0 <_etoa+0x41c>)
1000270a:	f001 fafd 	bl	10003d08 <__wrap___aeabi_dadd>
1000270e:	f001 fbab 	bl	10003e68 <__wrap___aeabi_d2iz>
10002712:	4a64      	ldr	r2, [pc, #400]	; (100028a4 <_etoa+0x420>)
10002714:	0006      	movs	r6, r0
10002716:	4b64      	ldr	r3, [pc, #400]	; (100028a8 <_etoa+0x424>)
10002718:	0020      	movs	r0, r4
1000271a:	0029      	movs	r1, r5
1000271c:	f001 fb1b 	bl	10003d56 <__wrap___aeabi_dmul>
10002720:	0004      	movs	r4, r0
10002722:	0030      	movs	r0, r6
10002724:	000d      	movs	r5, r1
10002726:	960f      	str	r6, [sp, #60]	; 0x3c
10002728:	f001 fb86 	bl	10003e38 <__wrap___aeabi_i2d>
1000272c:	4a5f      	ldr	r2, [pc, #380]	; (100028ac <_etoa+0x428>)
1000272e:	4b60      	ldr	r3, [pc, #384]	; (100028b0 <_etoa+0x42c>)
10002730:	f001 fb11 	bl	10003d56 <__wrap___aeabi_dmul>
10002734:	0002      	movs	r2, r0
10002736:	000b      	movs	r3, r1
10002738:	0020      	movs	r0, r4
1000273a:	0029      	movs	r1, r5
1000273c:	f001 fadb 	bl	10003cf6 <__wrap___aeabi_dsub>
10002740:	0002      	movs	r2, r0
10002742:	000b      	movs	r3, r1
10002744:	0006      	movs	r6, r0
10002746:	000f      	movs	r7, r1
10002748:	f001 fb05 	bl	10003d56 <__wrap___aeabi_dmul>
1000274c:	0032      	movs	r2, r6
1000274e:	0004      	movs	r4, r0
10002750:	000d      	movs	r5, r1
10002752:	003b      	movs	r3, r7
10002754:	0030      	movs	r0, r6
10002756:	0039      	movs	r1, r7
10002758:	f001 fad6 	bl	10003d08 <__wrap___aeabi_dadd>
1000275c:	2200      	movs	r2, #0
1000275e:	9010      	str	r0, [sp, #64]	; 0x40
10002760:	9111      	str	r1, [sp, #68]	; 0x44
10002762:	4b54      	ldr	r3, [pc, #336]	; (100028b4 <_etoa+0x430>)
10002764:	0020      	movs	r0, r4
10002766:	0029      	movs	r1, r5
10002768:	f001 fad7 	bl	10003d1a <__wrap___aeabi_ddiv>
1000276c:	2200      	movs	r2, #0
1000276e:	4b52      	ldr	r3, [pc, #328]	; (100028b8 <_etoa+0x434>)
10002770:	f001 faca 	bl	10003d08 <__wrap___aeabi_dadd>
10002774:	0002      	movs	r2, r0
10002776:	000b      	movs	r3, r1
10002778:	0020      	movs	r0, r4
1000277a:	0029      	movs	r1, r5
1000277c:	f001 facd 	bl	10003d1a <__wrap___aeabi_ddiv>
10002780:	2200      	movs	r2, #0
10002782:	4b4e      	ldr	r3, [pc, #312]	; (100028bc <_etoa+0x438>)
10002784:	f001 fac0 	bl	10003d08 <__wrap___aeabi_dadd>
10002788:	0002      	movs	r2, r0
1000278a:	000b      	movs	r3, r1
1000278c:	0020      	movs	r0, r4
1000278e:	0029      	movs	r1, r5
10002790:	f001 fac3 	bl	10003d1a <__wrap___aeabi_ddiv>
10002794:	000d      	movs	r5, r1
10002796:	2180      	movs	r1, #128	; 0x80
10002798:	0004      	movs	r4, r0
1000279a:	0032      	movs	r2, r6
1000279c:	003b      	movs	r3, r7
1000279e:	2000      	movs	r0, #0
100027a0:	05c9      	lsls	r1, r1, #23
100027a2:	f001 faa8 	bl	10003cf6 <__wrap___aeabi_dsub>
100027a6:	0002      	movs	r2, r0
100027a8:	000b      	movs	r3, r1
100027aa:	0020      	movs	r0, r4
100027ac:	0029      	movs	r1, r5
100027ae:	f001 faab 	bl	10003d08 <__wrap___aeabi_dadd>
100027b2:	0002      	movs	r2, r0
100027b4:	000b      	movs	r3, r1
100027b6:	9810      	ldr	r0, [sp, #64]	; 0x40
100027b8:	9911      	ldr	r1, [sp, #68]	; 0x44
100027ba:	f001 faae 	bl	10003d1a <__wrap___aeabi_ddiv>
100027be:	2200      	movs	r2, #0
100027c0:	4b31      	ldr	r3, [pc, #196]	; (10002888 <_etoa+0x404>)
100027c2:	f001 faa1 	bl	10003d08 <__wrap___aeabi_dadd>
100027c6:	4b3e      	ldr	r3, [pc, #248]	; (100028c0 <_etoa+0x43c>)
100027c8:	9c0f      	ldr	r4, [sp, #60]	; 0x3c
100027ca:	469c      	mov	ip, r3
100027cc:	4464      	add	r4, ip
100027ce:	2200      	movs	r2, #0
100027d0:	0523      	lsls	r3, r4, #20
100027d2:	f001 fac0 	bl	10003d56 <__wrap___aeabi_dmul>
100027d6:	0005      	movs	r5, r0
100027d8:	000e      	movs	r6, r1
100027da:	0002      	movs	r2, r0
100027dc:	000b      	movs	r3, r1
100027de:	980a      	ldr	r0, [sp, #40]	; 0x28
100027e0:	9909      	ldr	r1, [sp, #36]	; 0x24
100027e2:	f001 fafb 	bl	10003ddc <__wrap___aeabi_dcmplt>
100027e6:	2800      	cmp	r0, #0
100027e8:	d00a      	beq.n	10002800 <_etoa+0x37c>
100027ea:	9b0d      	ldr	r3, [sp, #52]	; 0x34
100027ec:	0028      	movs	r0, r5
100027ee:	3b01      	subs	r3, #1
100027f0:	0031      	movs	r1, r6
100027f2:	930d      	str	r3, [sp, #52]	; 0x34
100027f4:	2200      	movs	r2, #0
100027f6:	4b30      	ldr	r3, [pc, #192]	; (100028b8 <_etoa+0x434>)
100027f8:	f001 fa8f 	bl	10003d1a <__wrap___aeabi_ddiv>
100027fc:	0005      	movs	r5, r0
100027fe:	000e      	movs	r6, r1
10002800:	27c6      	movs	r7, #198	; 0xc6
10002802:	990d      	ldr	r1, [sp, #52]	; 0x34
10002804:	002b      	movs	r3, r5
10002806:	3163      	adds	r1, #99	; 0x63
10002808:	428f      	cmp	r7, r1
1000280a:	41bf      	sbcs	r7, r7
1000280c:	9928      	ldr	r1, [sp, #160]	; 0xa0
1000280e:	427f      	negs	r7, r7
10002810:	3704      	adds	r7, #4
10002812:	0509      	lsls	r1, r1, #20
10002814:	d400      	bmi.n	10002818 <_etoa+0x394>
10002816:	e695      	b.n	10002544 <_etoa+0xc0>
10002818:	4333      	orrs	r3, r6
1000281a:	d100      	bne.n	1000281e <_etoa+0x39a>
1000281c:	e682      	b.n	10002524 <_etoa+0xa0>
1000281e:	9c09      	ldr	r4, [sp, #36]	; 0x24
10002820:	4a28      	ldr	r2, [pc, #160]	; (100028c4 <_etoa+0x440>)
10002822:	0021      	movs	r1, r4
10002824:	4b28      	ldr	r3, [pc, #160]	; (100028c8 <_etoa+0x444>)
10002826:	980a      	ldr	r0, [sp, #40]	; 0x28
10002828:	f001 fae6 	bl	10003df8 <__wrap___aeabi_dcmpge>
1000282c:	2800      	cmp	r0, #0
1000282e:	d008      	beq.n	10002842 <_etoa+0x3be>
10002830:	2200      	movs	r2, #0
10002832:	0021      	movs	r1, r4
10002834:	4b25      	ldr	r3, [pc, #148]	; (100028cc <_etoa+0x448>)
10002836:	980a      	ldr	r0, [sp, #40]	; 0x28
10002838:	f001 fad0 	bl	10003ddc <__wrap___aeabi_dcmplt>
1000283c:	2800      	cmp	r0, #0
1000283e:	d000      	beq.n	10002842 <_etoa+0x3be>
10002840:	e670      	b.n	10002524 <_etoa+0xa0>
10002842:	9b26      	ldr	r3, [sp, #152]	; 0x98
10002844:	2b00      	cmp	r3, #0
10002846:	d100      	bne.n	1000284a <_etoa+0x3c6>
10002848:	e67c      	b.n	10002544 <_etoa+0xc0>
1000284a:	9b0e      	ldr	r3, [sp, #56]	; 0x38
1000284c:	1e5a      	subs	r2, r3, #1
1000284e:	4193      	sbcs	r3, r2
10002850:	9a26      	ldr	r2, [sp, #152]	; 0x98
10002852:	1ad3      	subs	r3, r2, r3
10002854:	9326      	str	r3, [sp, #152]	; 0x98
10002856:	e675      	b.n	10002544 <_etoa+0xc0>
10002858:	2300      	movs	r3, #0
1000285a:	2704      	movs	r7, #4
1000285c:	930d      	str	r3, [sp, #52]	; 0x34
1000285e:	e671      	b.n	10002544 <_etoa+0xc0>
10002860:	4643      	mov	r3, r8
10002862:	930a      	str	r3, [sp, #40]	; 0x28
10002864:	2380      	movs	r3, #128	; 0x80
10002866:	061b      	lsls	r3, r3, #24
10002868:	4453      	add	r3, sl
1000286a:	9309      	str	r3, [sp, #36]	; 0x24
1000286c:	e642      	b.n	100024f4 <_etoa+0x70>
1000286e:	2300      	movs	r3, #0
10002870:	9326      	str	r3, [sp, #152]	; 0x98
10002872:	e65f      	b.n	10002534 <_etoa+0xb0>
10002874:	fffffc01 	.word	0xfffffc01
10002878:	509f79fb 	.word	0x509f79fb
1000287c:	3fd34413 	.word	0x3fd34413
10002880:	8b60c8b3 	.word	0x8b60c8b3
10002884:	3fc68a28 	.word	0x3fc68a28
10002888:	3ff00000 	.word	0x3ff00000
1000288c:	3ff80000 	.word	0x3ff80000
10002890:	636f4361 	.word	0x636f4361
10002894:	3fd287a7 	.word	0x3fd287a7
10002898:	0979a371 	.word	0x0979a371
1000289c:	400a934f 	.word	0x400a934f
100028a0:	3fe00000 	.word	0x3fe00000
100028a4:	bbb55516 	.word	0xbbb55516
100028a8:	40026bb1 	.word	0x40026bb1
100028ac:	fefa39ef 	.word	0xfefa39ef
100028b0:	3fe62e42 	.word	0x3fe62e42
100028b4:	402c0000 	.word	0x402c0000
100028b8:	40240000 	.word	0x40240000
100028bc:	40180000 	.word	0x40180000
100028c0:	000003ff 	.word	0x000003ff
100028c4:	eb1c432d 	.word	0xeb1c432d
100028c8:	3f1a36e2 	.word	0x3f1a36e2
100028cc:	412e8480 	.word	0x412e8480

100028d0 <_ftoa>:
100028d0:	b5f0      	push	{r4, r5, r6, r7, lr}
100028d2:	464e      	mov	r6, r9
100028d4:	46de      	mov	lr, fp
100028d6:	4657      	mov	r7, sl
100028d8:	4645      	mov	r5, r8
100028da:	b5e0      	push	{r5, r6, r7, lr}
100028dc:	b097      	sub	sp, #92	; 0x5c
100028de:	4699      	mov	r9, r3
100028e0:	9e20      	ldr	r6, [sp, #128]	; 0x80
100028e2:	9f21      	ldr	r7, [sp, #132]	; 0x84
100028e4:	9b22      	ldr	r3, [sp, #136]	; 0x88
100028e6:	4683      	mov	fp, r0
100028e8:	4698      	mov	r8, r3
100028ea:	9107      	str	r1, [sp, #28]
100028ec:	920c      	str	r2, [sp, #48]	; 0x30
100028ee:	003b      	movs	r3, r7
100028f0:	0032      	movs	r2, r6
100028f2:	0030      	movs	r0, r6
100028f4:	0039      	movs	r1, r7
100028f6:	f001 fa8c 	bl	10003e12 <__wrap___aeabi_dcmpun>
100028fa:	2800      	cmp	r0, #0
100028fc:	d000      	beq.n	10002900 <_ftoa+0x30>
100028fe:	e1a9      	b.n	10002c54 <_ftoa+0x384>
10002900:	2201      	movs	r2, #1
10002902:	0030      	movs	r0, r6
10002904:	0039      	movs	r1, r7
10002906:	4bca      	ldr	r3, [pc, #808]	; (10002c30 <_ftoa+0x360>)
10002908:	4252      	negs	r2, r2
1000290a:	f001 fa67 	bl	10003ddc <__wrap___aeabi_dcmplt>
1000290e:	2800      	cmp	r0, #0
10002910:	d000      	beq.n	10002914 <_ftoa+0x44>
10002912:	e0e1      	b.n	10002ad8 <_ftoa+0x208>
10002914:	2201      	movs	r2, #1
10002916:	0030      	movs	r0, r6
10002918:	0039      	movs	r1, r7
1000291a:	4bc6      	ldr	r3, [pc, #792]	; (10002c34 <_ftoa+0x364>)
1000291c:	4252      	negs	r2, r2
1000291e:	f001 fa73 	bl	10003e08 <__wrap___aeabi_dcmpgt>
10002922:	2800      	cmp	r0, #0
10002924:	d000      	beq.n	10002928 <_ftoa+0x58>
10002926:	e0b7      	b.n	10002a98 <_ftoa+0x1c8>
10002928:	2200      	movs	r2, #0
1000292a:	0030      	movs	r0, r6
1000292c:	0039      	movs	r1, r7
1000292e:	4bc2      	ldr	r3, [pc, #776]	; (10002c38 <_ftoa+0x368>)
10002930:	f001 fa6a 	bl	10003e08 <__wrap___aeabi_dcmpgt>
10002934:	2800      	cmp	r0, #0
10002936:	d000      	beq.n	1000293a <_ftoa+0x6a>
10002938:	e099      	b.n	10002a6e <_ftoa+0x19e>
1000293a:	2200      	movs	r2, #0
1000293c:	0030      	movs	r0, r6
1000293e:	0039      	movs	r1, r7
10002940:	4bbe      	ldr	r3, [pc, #760]	; (10002c3c <_ftoa+0x36c>)
10002942:	f001 fa4b 	bl	10003ddc <__wrap___aeabi_dcmplt>
10002946:	2800      	cmp	r0, #0
10002948:	d000      	beq.n	1000294c <_ftoa+0x7c>
1000294a:	e090      	b.n	10002a6e <_ftoa+0x19e>
1000294c:	2200      	movs	r2, #0
1000294e:	2300      	movs	r3, #0
10002950:	0030      	movs	r0, r6
10002952:	0039      	movs	r1, r7
10002954:	f001 fa42 	bl	10003ddc <__wrap___aeabi_dcmplt>
10002958:	2800      	cmp	r0, #0
1000295a:	d000      	beq.n	1000295e <_ftoa+0x8e>
1000295c:	e0b1      	b.n	10002ac2 <_ftoa+0x1f2>
1000295e:	2300      	movs	r3, #0
10002960:	930d      	str	r3, [sp, #52]	; 0x34
10002962:	9b24      	ldr	r3, [sp, #144]	; 0x90
10002964:	055b      	lsls	r3, r3, #21
10002966:	d401      	bmi.n	1000296c <_ftoa+0x9c>
10002968:	2306      	movs	r3, #6
1000296a:	4698      	mov	r8, r3
1000296c:	ab08      	add	r3, sp, #32
1000296e:	469c      	mov	ip, r3
10002970:	2217      	movs	r2, #23
10002972:	2400      	movs	r4, #0
10002974:	2330      	movs	r3, #48	; 0x30
10002976:	4641      	mov	r1, r8
10002978:	4462      	add	r2, ip
1000297a:	e004      	b.n	10002986 <_ftoa+0xb6>
1000297c:	3401      	adds	r4, #1
1000297e:	5513      	strb	r3, [r2, r4]
10002980:	3901      	subs	r1, #1
10002982:	2c20      	cmp	r4, #32
10002984:	d001      	beq.n	1000298a <_ftoa+0xba>
10002986:	2909      	cmp	r1, #9
10002988:	d8f8      	bhi.n	1000297c <_ftoa+0xac>
1000298a:	4688      	mov	r8, r1
1000298c:	0030      	movs	r0, r6
1000298e:	0039      	movs	r1, r7
10002990:	f001 fa6a 	bl	10003e68 <__wrap___aeabi_d2iz>
10002994:	4643      	mov	r3, r8
10002996:	00da      	lsls	r2, r3, #3
10002998:	4ba9      	ldr	r3, [pc, #676]	; (10002c40 <_ftoa+0x370>)
1000299a:	0005      	movs	r5, r0
1000299c:	189b      	adds	r3, r3, r2
1000299e:	681a      	ldr	r2, [r3, #0]
100029a0:	685b      	ldr	r3, [r3, #4]
100029a2:	9208      	str	r2, [sp, #32]
100029a4:	9309      	str	r3, [sp, #36]	; 0x24
100029a6:	f001 fa47 	bl	10003e38 <__wrap___aeabi_i2d>
100029aa:	0002      	movs	r2, r0
100029ac:	000b      	movs	r3, r1
100029ae:	0030      	movs	r0, r6
100029b0:	0039      	movs	r1, r7
100029b2:	f001 f9a0 	bl	10003cf6 <__wrap___aeabi_dsub>
100029b6:	9a08      	ldr	r2, [sp, #32]
100029b8:	9b09      	ldr	r3, [sp, #36]	; 0x24
100029ba:	f001 f9cc 	bl	10003d56 <__wrap___aeabi_dmul>
100029be:	900a      	str	r0, [sp, #40]	; 0x28
100029c0:	910b      	str	r1, [sp, #44]	; 0x2c
100029c2:	f001 fa75 	bl	10003eb0 <__wrap___aeabi_d2uiz>
100029c6:	4682      	mov	sl, r0
100029c8:	f001 fa32 	bl	10003e30 <__wrap___aeabi_ui2d>
100029cc:	0002      	movs	r2, r0
100029ce:	000b      	movs	r3, r1
100029d0:	980a      	ldr	r0, [sp, #40]	; 0x28
100029d2:	990b      	ldr	r1, [sp, #44]	; 0x2c
100029d4:	f001 f98f 	bl	10003cf6 <__wrap___aeabi_dsub>
100029d8:	2200      	movs	r2, #0
100029da:	4b9a      	ldr	r3, [pc, #616]	; (10002c44 <_ftoa+0x374>)
100029dc:	900a      	str	r0, [sp, #40]	; 0x28
100029de:	910b      	str	r1, [sp, #44]	; 0x2c
100029e0:	f001 fa12 	bl	10003e08 <__wrap___aeabi_dcmpgt>
100029e4:	2800      	cmp	r0, #0
100029e6:	d100      	bne.n	100029ea <_ftoa+0x11a>
100029e8:	e0c0      	b.n	10002b6c <_ftoa+0x29c>
100029ea:	2301      	movs	r3, #1
100029ec:	469c      	mov	ip, r3
100029ee:	44e2      	add	sl, ip
100029f0:	4650      	mov	r0, sl
100029f2:	f001 fa1d 	bl	10003e30 <__wrap___aeabi_ui2d>
100029f6:	0002      	movs	r2, r0
100029f8:	000b      	movs	r3, r1
100029fa:	9808      	ldr	r0, [sp, #32]
100029fc:	9909      	ldr	r1, [sp, #36]	; 0x24
100029fe:	f001 f9f3 	bl	10003de8 <__wrap___aeabi_dcmple>
10002a02:	2800      	cmp	r0, #0
10002a04:	d002      	beq.n	10002a0c <_ftoa+0x13c>
10002a06:	2300      	movs	r3, #0
10002a08:	469a      	mov	sl, r3
10002a0a:	3501      	adds	r5, #1
10002a0c:	4643      	mov	r3, r8
10002a0e:	2b00      	cmp	r3, #0
10002a10:	d06a      	beq.n	10002ae8 <_ftoa+0x218>
10002a12:	ab08      	add	r3, sp, #32
10002a14:	2617      	movs	r6, #23
10002a16:	469c      	mov	ip, r3
10002a18:	9508      	str	r5, [sp, #32]
10002a1a:	4466      	add	r6, ip
10002a1c:	4655      	mov	r5, sl
10002a1e:	e014      	b.n	10002a4a <_ftoa+0x17a>
10002a20:	2301      	movs	r3, #1
10002a22:	425b      	negs	r3, r3
10002a24:	4443      	add	r3, r8
10002a26:	210a      	movs	r1, #10
10002a28:	0028      	movs	r0, r5
10002a2a:	469a      	mov	sl, r3
10002a2c:	f000 ff28 	bl	10003880 <__wrap___aeabi_uidiv>
10002a30:	3401      	adds	r4, #1
10002a32:	3130      	adds	r1, #48	; 0x30
10002a34:	1937      	adds	r7, r6, r4
10002a36:	7039      	strb	r1, [r7, #0]
10002a38:	0028      	movs	r0, r5
10002a3a:	210a      	movs	r1, #10
10002a3c:	f000 ff20 	bl	10003880 <__wrap___aeabi_uidiv>
10002a40:	2d09      	cmp	r5, #9
10002a42:	d800      	bhi.n	10002a46 <_ftoa+0x176>
10002a44:	e0d0      	b.n	10002be8 <_ftoa+0x318>
10002a46:	46d0      	mov	r8, sl
10002a48:	0005      	movs	r5, r0
10002a4a:	2c20      	cmp	r4, #32
10002a4c:	d1e8      	bne.n	10002a20 <_ftoa+0x150>
10002a4e:	ab0e      	add	r3, sp, #56	; 0x38
10002a50:	4698      	mov	r8, r3
10002a52:	2303      	movs	r3, #3
10002a54:	9a24      	ldr	r2, [sp, #144]	; 0x90
10002a56:	4013      	ands	r3, r2
10002a58:	2b01      	cmp	r3, #1
10002a5a:	d100      	bne.n	10002a5e <_ftoa+0x18e>
10002a5c:	e096      	b.n	10002b8c <_ftoa+0x2bc>
10002a5e:	2320      	movs	r3, #32
10002a60:	9a24      	ldr	r2, [sp, #144]	; 0x90
10002a62:	9301      	str	r3, [sp, #4]
10002a64:	9203      	str	r2, [sp, #12]
10002a66:	9a23      	ldr	r2, [sp, #140]	; 0x8c
10002a68:	4643      	mov	r3, r8
10002a6a:	9202      	str	r2, [sp, #8]
10002a6c:	e01e      	b.n	10002aac <_ftoa+0x1dc>
10002a6e:	9b24      	ldr	r3, [sp, #144]	; 0x90
10002a70:	4658      	mov	r0, fp
10002a72:	9304      	str	r3, [sp, #16]
10002a74:	9b23      	ldr	r3, [sp, #140]	; 0x8c
10002a76:	9600      	str	r6, [sp, #0]
10002a78:	9701      	str	r7, [sp, #4]
10002a7a:	9303      	str	r3, [sp, #12]
10002a7c:	4643      	mov	r3, r8
10002a7e:	9a0c      	ldr	r2, [sp, #48]	; 0x30
10002a80:	9302      	str	r3, [sp, #8]
10002a82:	9907      	ldr	r1, [sp, #28]
10002a84:	464b      	mov	r3, r9
10002a86:	f7ff fcfd 	bl	10002484 <_etoa>
10002a8a:	b017      	add	sp, #92	; 0x5c
10002a8c:	bcf0      	pop	{r4, r5, r6, r7}
10002a8e:	46bb      	mov	fp, r7
10002a90:	46b2      	mov	sl, r6
10002a92:	46a9      	mov	r9, r5
10002a94:	46a0      	mov	r8, r4
10002a96:	bdf0      	pop	{r4, r5, r6, r7, pc}
10002a98:	9b24      	ldr	r3, [sp, #144]	; 0x90
10002a9a:	075b      	lsls	r3, r3, #29
10002a9c:	d40e      	bmi.n	10002abc <_ftoa+0x1ec>
10002a9e:	2203      	movs	r2, #3
10002aa0:	4b69      	ldr	r3, [pc, #420]	; (10002c48 <_ftoa+0x378>)
10002aa2:	9924      	ldr	r1, [sp, #144]	; 0x90
10002aa4:	9201      	str	r2, [sp, #4]
10002aa6:	9103      	str	r1, [sp, #12]
10002aa8:	9923      	ldr	r1, [sp, #140]	; 0x8c
10002aaa:	9102      	str	r1, [sp, #8]
10002aac:	9300      	str	r3, [sp, #0]
10002aae:	4658      	mov	r0, fp
10002ab0:	464b      	mov	r3, r9
10002ab2:	9a0c      	ldr	r2, [sp, #48]	; 0x30
10002ab4:	9907      	ldr	r1, [sp, #28]
10002ab6:	f7ff fba1 	bl	100021fc <_out_rev>
10002aba:	e7e6      	b.n	10002a8a <_ftoa+0x1ba>
10002abc:	2204      	movs	r2, #4
10002abe:	4b63      	ldr	r3, [pc, #396]	; (10002c4c <_ftoa+0x37c>)
10002ac0:	e7ef      	b.n	10002aa2 <_ftoa+0x1d2>
10002ac2:	003b      	movs	r3, r7
10002ac4:	0032      	movs	r2, r6
10002ac6:	2000      	movs	r0, #0
10002ac8:	2100      	movs	r1, #0
10002aca:	f001 f914 	bl	10003cf6 <__wrap___aeabi_dsub>
10002ace:	2301      	movs	r3, #1
10002ad0:	0006      	movs	r6, r0
10002ad2:	000f      	movs	r7, r1
10002ad4:	930d      	str	r3, [sp, #52]	; 0x34
10002ad6:	e744      	b.n	10002962 <_ftoa+0x92>
10002ad8:	9b24      	ldr	r3, [sp, #144]	; 0x90
10002ada:	9303      	str	r3, [sp, #12]
10002adc:	9b23      	ldr	r3, [sp, #140]	; 0x8c
10002ade:	9302      	str	r3, [sp, #8]
10002ae0:	2304      	movs	r3, #4
10002ae2:	9301      	str	r3, [sp, #4]
10002ae4:	4b5a      	ldr	r3, [pc, #360]	; (10002c50 <_ftoa+0x380>)
10002ae6:	e7e1      	b.n	10002aac <_ftoa+0x1dc>
10002ae8:	0028      	movs	r0, r5
10002aea:	f001 f9a5 	bl	10003e38 <__wrap___aeabi_i2d>
10002aee:	0002      	movs	r2, r0
10002af0:	000b      	movs	r3, r1
10002af2:	0030      	movs	r0, r6
10002af4:	0039      	movs	r1, r7
10002af6:	f001 f8fe 	bl	10003cf6 <__wrap___aeabi_dsub>
10002afa:	4b52      	ldr	r3, [pc, #328]	; (10002c44 <_ftoa+0x374>)
10002afc:	2200      	movs	r2, #0
10002afe:	0006      	movs	r6, r0
10002b00:	000f      	movs	r7, r1
10002b02:	f001 f96b 	bl	10003ddc <__wrap___aeabi_dcmplt>
10002b06:	ab0e      	add	r3, sp, #56	; 0x38
10002b08:	4698      	mov	r8, r3
10002b0a:	2800      	cmp	r0, #0
10002b0c:	d10a      	bne.n	10002b24 <_ftoa+0x254>
10002b0e:	2200      	movs	r2, #0
10002b10:	0030      	movs	r0, r6
10002b12:	0039      	movs	r1, r7
10002b14:	4b4b      	ldr	r3, [pc, #300]	; (10002c44 <_ftoa+0x374>)
10002b16:	f001 f977 	bl	10003e08 <__wrap___aeabi_dcmpgt>
10002b1a:	2800      	cmp	r0, #0
10002b1c:	d102      	bne.n	10002b24 <_ftoa+0x254>
10002b1e:	07eb      	lsls	r3, r5, #31
10002b20:	d500      	bpl.n	10002b24 <_ftoa+0x254>
10002b22:	3501      	adds	r5, #1
10002b24:	2c20      	cmp	r4, #32
10002b26:	d094      	beq.n	10002a52 <_ftoa+0x182>
10002b28:	aa08      	add	r2, sp, #32
10002b2a:	4694      	mov	ip, r2
10002b2c:	2317      	movs	r3, #23
10002b2e:	0028      	movs	r0, r5
10002b30:	4463      	add	r3, ip
10002b32:	210a      	movs	r1, #10
10002b34:	3401      	adds	r4, #1
10002b36:	191e      	adds	r6, r3, r4
10002b38:	f000 fe7a 	bl	10003830 <__wrap___aeabi_idiv>
10002b3c:	3130      	adds	r1, #48	; 0x30
10002b3e:	0028      	movs	r0, r5
10002b40:	7031      	strb	r1, [r6, #0]
10002b42:	210a      	movs	r1, #10
10002b44:	f000 fe74 	bl	10003830 <__wrap___aeabi_idiv>
10002b48:	1e05      	subs	r5, r0, #0
10002b4a:	d1eb      	bne.n	10002b24 <_ftoa+0x254>
10002b4c:	2303      	movs	r3, #3
10002b4e:	9a24      	ldr	r2, [sp, #144]	; 0x90
10002b50:	4013      	ands	r3, r2
10002b52:	2b01      	cmp	r3, #1
10002b54:	d01b      	beq.n	10002b8e <_ftoa+0x2be>
10002b56:	2c20      	cmp	r4, #32
10002b58:	d100      	bne.n	10002b5c <_ftoa+0x28c>
10002b5a:	e780      	b.n	10002a5e <_ftoa+0x18e>
10002b5c:	9b0d      	ldr	r3, [sp, #52]	; 0x34
10002b5e:	2b00      	cmp	r3, #0
10002b60:	d035      	beq.n	10002bce <_ftoa+0x2fe>
10002b62:	222d      	movs	r2, #45	; 0x2d
10002b64:	4641      	mov	r1, r8
10002b66:	1c63      	adds	r3, r4, #1
10002b68:	550a      	strb	r2, [r1, r4]
10002b6a:	e779      	b.n	10002a60 <_ftoa+0x190>
10002b6c:	2200      	movs	r2, #0
10002b6e:	980a      	ldr	r0, [sp, #40]	; 0x28
10002b70:	990b      	ldr	r1, [sp, #44]	; 0x2c
10002b72:	4b34      	ldr	r3, [pc, #208]	; (10002c44 <_ftoa+0x374>)
10002b74:	f001 f932 	bl	10003ddc <__wrap___aeabi_dcmplt>
10002b78:	2800      	cmp	r0, #0
10002b7a:	d000      	beq.n	10002b7e <_ftoa+0x2ae>
10002b7c:	e746      	b.n	10002a0c <_ftoa+0x13c>
10002b7e:	4653      	mov	r3, sl
10002b80:	2b00      	cmp	r3, #0
10002b82:	d151      	bne.n	10002c28 <_ftoa+0x358>
10002b84:	2301      	movs	r3, #1
10002b86:	469c      	mov	ip, r3
10002b88:	44e2      	add	sl, ip
10002b8a:	e73f      	b.n	10002a0c <_ftoa+0x13c>
10002b8c:	2420      	movs	r4, #32
10002b8e:	9b23      	ldr	r3, [sp, #140]	; 0x8c
10002b90:	2b00      	cmp	r3, #0
10002b92:	d0e0      	beq.n	10002b56 <_ftoa+0x286>
10002b94:	9b0d      	ldr	r3, [sp, #52]	; 0x34
10002b96:	2b00      	cmp	r3, #0
10002b98:	d103      	bne.n	10002ba2 <_ftoa+0x2d2>
10002b9a:	9a24      	ldr	r2, [sp, #144]	; 0x90
10002b9c:	330c      	adds	r3, #12
10002b9e:	4213      	tst	r3, r2
10002ba0:	d002      	beq.n	10002ba8 <_ftoa+0x2d8>
10002ba2:	9b23      	ldr	r3, [sp, #140]	; 0x8c
10002ba4:	3b01      	subs	r3, #1
10002ba6:	9323      	str	r3, [sp, #140]	; 0x8c
10002ba8:	9b23      	ldr	r3, [sp, #140]	; 0x8c
10002baa:	42a3      	cmp	r3, r4
10002bac:	d9d3      	bls.n	10002b56 <_ftoa+0x286>
10002bae:	ab08      	add	r3, sp, #32
10002bb0:	469c      	mov	ip, r3
10002bb2:	2217      	movs	r2, #23
10002bb4:	2330      	movs	r3, #48	; 0x30
10002bb6:	4462      	add	r2, ip
10002bb8:	2c20      	cmp	r4, #32
10002bba:	d100      	bne.n	10002bbe <_ftoa+0x2ee>
10002bbc:	e74f      	b.n	10002a5e <_ftoa+0x18e>
10002bbe:	9923      	ldr	r1, [sp, #140]	; 0x8c
10002bc0:	3401      	adds	r4, #1
10002bc2:	5513      	strb	r3, [r2, r4]
10002bc4:	428c      	cmp	r4, r1
10002bc6:	d0c6      	beq.n	10002b56 <_ftoa+0x286>
10002bc8:	2c20      	cmp	r4, #32
10002bca:	d1f8      	bne.n	10002bbe <_ftoa+0x2ee>
10002bcc:	e747      	b.n	10002a5e <_ftoa+0x18e>
10002bce:	9b24      	ldr	r3, [sp, #144]	; 0x90
10002bd0:	075b      	lsls	r3, r3, #29
10002bd2:	d424      	bmi.n	10002c1e <_ftoa+0x34e>
10002bd4:	9a24      	ldr	r2, [sp, #144]	; 0x90
10002bd6:	0023      	movs	r3, r4
10002bd8:	0712      	lsls	r2, r2, #28
10002bda:	d400      	bmi.n	10002bde <_ftoa+0x30e>
10002bdc:	e740      	b.n	10002a60 <_ftoa+0x190>
10002bde:	2220      	movs	r2, #32
10002be0:	4641      	mov	r1, r8
10002be2:	3301      	adds	r3, #1
10002be4:	550a      	strb	r2, [r1, r4]
10002be6:	e73b      	b.n	10002a60 <_ftoa+0x190>
10002be8:	4657      	mov	r7, sl
10002bea:	9d08      	ldr	r5, [sp, #32]
10002bec:	2c20      	cmp	r4, #32
10002bee:	d100      	bne.n	10002bf2 <_ftoa+0x322>
10002bf0:	e72d      	b.n	10002a4e <_ftoa+0x17e>
10002bf2:	0022      	movs	r2, r4
10002bf4:	2130      	movs	r1, #48	; 0x30
10002bf6:	4640      	mov	r0, r8
10002bf8:	2f00      	cmp	r7, #0
10002bfa:	d009      	beq.n	10002c10 <_ftoa+0x340>
10002bfc:	3201      	adds	r2, #1
10002bfe:	54b1      	strb	r1, [r6, r2]
10002c00:	2a20      	cmp	r2, #32
10002c02:	d100      	bne.n	10002c06 <_ftoa+0x336>
10002c04:	e723      	b.n	10002a4e <_ftoa+0x17e>
10002c06:	43d3      	mvns	r3, r2
10002c08:	191b      	adds	r3, r3, r4
10002c0a:	181b      	adds	r3, r3, r0
10002c0c:	2b00      	cmp	r3, #0
10002c0e:	d1f5      	bne.n	10002bfc <_ftoa+0x32c>
10002c10:	ab0e      	add	r3, sp, #56	; 0x38
10002c12:	4698      	mov	r8, r3
10002c14:	232e      	movs	r3, #46	; 0x2e
10002c16:	4641      	mov	r1, r8
10002c18:	1c54      	adds	r4, r2, #1
10002c1a:	548b      	strb	r3, [r1, r2]
10002c1c:	e782      	b.n	10002b24 <_ftoa+0x254>
10002c1e:	222b      	movs	r2, #43	; 0x2b
10002c20:	4641      	mov	r1, r8
10002c22:	1c63      	adds	r3, r4, #1
10002c24:	550a      	strb	r2, [r1, r4]
10002c26:	e71b      	b.n	10002a60 <_ftoa+0x190>
10002c28:	07db      	lsls	r3, r3, #31
10002c2a:	d400      	bmi.n	10002c2e <_ftoa+0x35e>
10002c2c:	e6ee      	b.n	10002a0c <_ftoa+0x13c>
10002c2e:	e7a9      	b.n	10002b84 <_ftoa+0x2b4>
10002c30:	ffefffff 	.word	0xffefffff
10002c34:	7fefffff 	.word	0x7fefffff
10002c38:	41cdcd65 	.word	0x41cdcd65
10002c3c:	c1cdcd65 	.word	0xc1cdcd65
10002c40:	100074a0 	.word	0x100074a0
10002c44:	3fe00000 	.word	0x3fe00000
10002c48:	100072a4 	.word	0x100072a4
10002c4c:	100072a8 	.word	0x100072a8
10002c50:	100072b4 	.word	0x100072b4
10002c54:	9b24      	ldr	r3, [sp, #144]	; 0x90
10002c56:	9303      	str	r3, [sp, #12]
10002c58:	9b23      	ldr	r3, [sp, #140]	; 0x8c
10002c5a:	9302      	str	r3, [sp, #8]
10002c5c:	2303      	movs	r3, #3
10002c5e:	9301      	str	r3, [sp, #4]
10002c60:	4b00      	ldr	r3, [pc, #0]	; (10002c64 <_ftoa+0x394>)
10002c62:	e723      	b.n	10002aac <_ftoa+0x1dc>
10002c64:	100072b0 	.word	0x100072b0

10002c68 <_vsnprintf>:
10002c68:	b5f0      	push	{r4, r5, r6, r7, lr}
10002c6a:	46de      	mov	lr, fp
10002c6c:	464e      	mov	r6, r9
10002c6e:	4657      	mov	r7, sl
10002c70:	4645      	mov	r5, r8
10002c72:	b5e0      	push	{r5, r6, r7, lr}
10002c74:	b09f      	sub	sp, #124	; 0x7c
10002c76:	001c      	movs	r4, r3
10002c78:	9b28      	ldr	r3, [sp, #160]	; 0xa0
10002c7a:	4691      	mov	r9, r2
10002c7c:	9309      	str	r3, [sp, #36]	; 0x24
10002c7e:	4ac9      	ldr	r2, [pc, #804]	; (10002fa4 <_vsnprintf+0x33c>)
10002c80:	4bc9      	ldr	r3, [pc, #804]	; (10002fa8 <_vsnprintf+0x340>)
10002c82:	468b      	mov	fp, r1
10002c84:	9008      	str	r0, [sp, #32]
10002c86:	601a      	str	r2, [r3, #0]
10002c88:	2900      	cmp	r1, #0
10002c8a:	d100      	bne.n	10002c8e <_vsnprintf+0x26>
10002c8c:	e218      	b.n	100030c0 <_vsnprintf+0x458>
10002c8e:	2300      	movs	r3, #0
10002c90:	7820      	ldrb	r0, [r4, #0]
10002c92:	469a      	mov	sl, r3
10002c94:	2800      	cmp	r0, #0
10002c96:	d100      	bne.n	10002c9a <_vsnprintf+0x32>
10002c98:	e21a      	b.n	100030d0 <_vsnprintf+0x468>
10002c9a:	0026      	movs	r6, r4
10002c9c:	001d      	movs	r5, r3
10002c9e:	465c      	mov	r4, fp
10002ca0:	e00a      	b.n	10002cb8 <_vsnprintf+0x50>
10002ca2:	002a      	movs	r2, r5
10002ca4:	1c6f      	adds	r7, r5, #1
10002ca6:	464b      	mov	r3, r9
10002ca8:	9d08      	ldr	r5, [sp, #32]
10002caa:	0021      	movs	r1, r4
10002cac:	47a8      	blx	r5
10002cae:	003d      	movs	r5, r7
10002cb0:	3601      	adds	r6, #1
10002cb2:	7830      	ldrb	r0, [r6, #0]
10002cb4:	2800      	cmp	r0, #0
10002cb6:	d070      	beq.n	10002d9a <_vsnprintf+0x132>
10002cb8:	2825      	cmp	r0, #37	; 0x25
10002cba:	d1f2      	bne.n	10002ca2 <_vsnprintf+0x3a>
10002cbc:	2310      	movs	r3, #16
10002cbe:	469b      	mov	fp, r3
10002cc0:	3b08      	subs	r3, #8
10002cc2:	469a      	mov	sl, r3
10002cc4:	3b04      	subs	r3, #4
10002cc6:	4698      	mov	r8, r3
10002cc8:	3b02      	subs	r3, #2
10002cca:	2100      	movs	r1, #0
10002ccc:	469c      	mov	ip, r3
10002cce:	1c72      	adds	r2, r6, #1
10002cd0:	7810      	ldrb	r0, [r2, #0]
10002cd2:	0016      	movs	r6, r2
10002cd4:	0003      	movs	r3, r0
10002cd6:	3b20      	subs	r3, #32
10002cd8:	b2db      	uxtb	r3, r3
10002cda:	2b10      	cmp	r3, #16
10002cdc:	d803      	bhi.n	10002ce6 <_vsnprintf+0x7e>
10002cde:	4fb3      	ldr	r7, [pc, #716]	; (10002fac <_vsnprintf+0x344>)
10002ce0:	009b      	lsls	r3, r3, #2
10002ce2:	58fb      	ldr	r3, [r7, r3]
10002ce4:	469f      	mov	pc, r3
10002ce6:	0003      	movs	r3, r0
10002ce8:	3b30      	subs	r3, #48	; 0x30
10002cea:	2b09      	cmp	r3, #9
10002cec:	d932      	bls.n	10002d54 <_vsnprintf+0xec>
10002cee:	2300      	movs	r3, #0
10002cf0:	930a      	str	r3, [sp, #40]	; 0x28
10002cf2:	282a      	cmp	r0, #42	; 0x2a
10002cf4:	d068      	beq.n	10002dc8 <_vsnprintf+0x160>
10002cf6:	2300      	movs	r3, #0
10002cf8:	4698      	mov	r8, r3
10002cfa:	282e      	cmp	r0, #46	; 0x2e
10002cfc:	d03e      	beq.n	10002d7c <_vsnprintf+0x114>
10002cfe:	0003      	movs	r3, r0
10002d00:	3b68      	subs	r3, #104	; 0x68
10002d02:	b2db      	uxtb	r3, r3
10002d04:	2b12      	cmp	r3, #18
10002d06:	d81c      	bhi.n	10002d42 <_vsnprintf+0xda>
10002d08:	4aa9      	ldr	r2, [pc, #676]	; (10002fb0 <_vsnprintf+0x348>)
10002d0a:	009b      	lsls	r3, r3, #2
10002d0c:	58d3      	ldr	r3, [r2, r3]
10002d0e:	469f      	mov	pc, r3
10002d10:	2301      	movs	r3, #1
10002d12:	3201      	adds	r2, #1
10002d14:	4319      	orrs	r1, r3
10002d16:	e7db      	b.n	10002cd0 <_vsnprintf+0x68>
10002d18:	4663      	mov	r3, ip
10002d1a:	3201      	adds	r2, #1
10002d1c:	4319      	orrs	r1, r3
10002d1e:	e7d7      	b.n	10002cd0 <_vsnprintf+0x68>
10002d20:	4643      	mov	r3, r8
10002d22:	3201      	adds	r2, #1
10002d24:	4319      	orrs	r1, r3
10002d26:	e7d3      	b.n	10002cd0 <_vsnprintf+0x68>
10002d28:	465b      	mov	r3, fp
10002d2a:	3201      	adds	r2, #1
10002d2c:	4319      	orrs	r1, r3
10002d2e:	e7cf      	b.n	10002cd0 <_vsnprintf+0x68>
10002d30:	4653      	mov	r3, sl
10002d32:	3201      	adds	r2, #1
10002d34:	4319      	orrs	r1, r3
10002d36:	e7cb      	b.n	10002cd0 <_vsnprintf+0x68>
10002d38:	2380      	movs	r3, #128	; 0x80
10002d3a:	005b      	lsls	r3, r3, #1
10002d3c:	7870      	ldrb	r0, [r6, #1]
10002d3e:	4319      	orrs	r1, r3
10002d40:	3601      	adds	r6, #1
10002d42:	0003      	movs	r3, r0
10002d44:	3b25      	subs	r3, #37	; 0x25
10002d46:	b2db      	uxtb	r3, r3
10002d48:	2b53      	cmp	r3, #83	; 0x53
10002d4a:	d8aa      	bhi.n	10002ca2 <_vsnprintf+0x3a>
10002d4c:	4a99      	ldr	r2, [pc, #612]	; (10002fb4 <_vsnprintf+0x34c>)
10002d4e:	009b      	lsls	r3, r3, #2
10002d50:	58d3      	ldr	r3, [r2, r3]
10002d52:	469f      	mov	pc, r3
10002d54:	2700      	movs	r7, #0
10002d56:	0003      	movs	r3, r0
10002d58:	00b8      	lsls	r0, r7, #2
10002d5a:	19c0      	adds	r0, r0, r7
10002d5c:	3601      	adds	r6, #1
10002d5e:	0040      	lsls	r0, r0, #1
10002d60:	18c0      	adds	r0, r0, r3
10002d62:	7833      	ldrb	r3, [r6, #0]
10002d64:	3830      	subs	r0, #48	; 0x30
10002d66:	001a      	movs	r2, r3
10002d68:	3a30      	subs	r2, #48	; 0x30
10002d6a:	0007      	movs	r7, r0
10002d6c:	2a09      	cmp	r2, #9
10002d6e:	d9f3      	bls.n	10002d58 <_vsnprintf+0xf0>
10002d70:	900a      	str	r0, [sp, #40]	; 0x28
10002d72:	0018      	movs	r0, r3
10002d74:	2300      	movs	r3, #0
10002d76:	4698      	mov	r8, r3
10002d78:	282e      	cmp	r0, #46	; 0x2e
10002d7a:	d1c0      	bne.n	10002cfe <_vsnprintf+0x96>
10002d7c:	2380      	movs	r3, #128	; 0x80
10002d7e:	7870      	ldrb	r0, [r6, #1]
10002d80:	00db      	lsls	r3, r3, #3
10002d82:	4319      	orrs	r1, r3
10002d84:	0003      	movs	r3, r0
10002d86:	3b30      	subs	r3, #48	; 0x30
10002d88:	1c72      	adds	r2, r6, #1
10002d8a:	2b09      	cmp	r3, #9
10002d8c:	d800      	bhi.n	10002d90 <_vsnprintf+0x128>
10002d8e:	e1a1      	b.n	100030d4 <_vsnprintf+0x46c>
10002d90:	282a      	cmp	r0, #42	; 0x2a
10002d92:	d100      	bne.n	10002d96 <_vsnprintf+0x12e>
10002d94:	e1b2      	b.n	100030fc <_vsnprintf+0x494>
10002d96:	0016      	movs	r6, r2
10002d98:	e7b1      	b.n	10002cfe <_vsnprintf+0x96>
10002d9a:	46a3      	mov	fp, r4
10002d9c:	46aa      	mov	sl, r5
10002d9e:	002c      	movs	r4, r5
10002da0:	45d1      	cmp	r9, sl
10002da2:	d803      	bhi.n	10002dac <_vsnprintf+0x144>
10002da4:	2301      	movs	r3, #1
10002da6:	425b      	negs	r3, r3
10002da8:	444b      	add	r3, r9
10002daa:	469a      	mov	sl, r3
10002dac:	464b      	mov	r3, r9
10002dae:	4652      	mov	r2, sl
10002db0:	4659      	mov	r1, fp
10002db2:	2000      	movs	r0, #0
10002db4:	9d08      	ldr	r5, [sp, #32]
10002db6:	47a8      	blx	r5
10002db8:	0020      	movs	r0, r4
10002dba:	b01f      	add	sp, #124	; 0x7c
10002dbc:	bcf0      	pop	{r4, r5, r6, r7}
10002dbe:	46bb      	mov	fp, r7
10002dc0:	46b2      	mov	sl, r6
10002dc2:	46a9      	mov	r9, r5
10002dc4:	46a0      	mov	r8, r4
10002dc6:	bdf0      	pop	{r4, r5, r6, r7, pc}
10002dc8:	9b09      	ldr	r3, [sp, #36]	; 0x24
10002dca:	cb40      	ldmia	r3!, {r6}
10002dcc:	960a      	str	r6, [sp, #40]	; 0x28
10002dce:	2e00      	cmp	r6, #0
10002dd0:	db03      	blt.n	10002dda <_vsnprintf+0x172>
10002dd2:	7850      	ldrb	r0, [r2, #1]
10002dd4:	9309      	str	r3, [sp, #36]	; 0x24
10002dd6:	1c56      	adds	r6, r2, #1
10002dd8:	e78d      	b.n	10002cf6 <_vsnprintf+0x8e>
10002dda:	3828      	subs	r0, #40	; 0x28
10002ddc:	4301      	orrs	r1, r0
10002dde:	4270      	negs	r0, r6
10002de0:	900a      	str	r0, [sp, #40]	; 0x28
10002de2:	9309      	str	r3, [sp, #36]	; 0x24
10002de4:	7850      	ldrb	r0, [r2, #1]
10002de6:	1c56      	adds	r6, r2, #1
10002de8:	e785      	b.n	10002cf6 <_vsnprintf+0x8e>
10002dea:	2878      	cmp	r0, #120	; 0x78
10002dec:	d100      	bne.n	10002df0 <_vsnprintf+0x188>
10002dee:	e1df      	b.n	100031b0 <_vsnprintf+0x548>
10002df0:	2858      	cmp	r0, #88	; 0x58
10002df2:	d100      	bne.n	10002df6 <_vsnprintf+0x18e>
10002df4:	e24c      	b.n	10003290 <_vsnprintf+0x628>
10002df6:	286f      	cmp	r0, #111	; 0x6f
10002df8:	d100      	bne.n	10002dfc <_vsnprintf+0x194>
10002dfa:	e34f      	b.n	1000349c <_vsnprintf+0x834>
10002dfc:	2862      	cmp	r0, #98	; 0x62
10002dfe:	d101      	bne.n	10002e04 <_vsnprintf+0x19c>
10002e00:	f000 fc30 	bl	10003664 <_vsnprintf+0x9fc>
10002e04:	2310      	movs	r3, #16
10002e06:	000a      	movs	r2, r1
10002e08:	439a      	bics	r2, r3
10002e0a:	920b      	str	r2, [sp, #44]	; 0x2c
10002e0c:	2869      	cmp	r0, #105	; 0x69
10002e0e:	d001      	beq.n	10002e14 <_vsnprintf+0x1ac>
10002e10:	f000 fca9 	bl	10003766 <_vsnprintf+0xafe>
10002e14:	230a      	movs	r3, #10
10002e16:	930c      	str	r3, [sp, #48]	; 0x30
10002e18:	054b      	lsls	r3, r1, #21
10002e1a:	d500      	bpl.n	10002e1e <_vsnprintf+0x1b6>
10002e1c:	e1d0      	b.n	100031c0 <_vsnprintf+0x558>
10002e1e:	9a0b      	ldr	r2, [sp, #44]	; 0x2c
10002e20:	2380      	movs	r3, #128	; 0x80
10002e22:	0011      	movs	r1, r2
10002e24:	009b      	lsls	r3, r3, #2
10002e26:	4019      	ands	r1, r3
10002e28:	468b      	mov	fp, r1
10002e2a:	421a      	tst	r2, r3
10002e2c:	d000      	beq.n	10002e30 <_vsnprintf+0x1c8>
10002e2e:	e2a1      	b.n	10003374 <_vsnprintf+0x70c>
10002e30:	2380      	movs	r3, #128	; 0x80
10002e32:	0011      	movs	r1, r2
10002e34:	005b      	lsls	r3, r3, #1
10002e36:	4019      	ands	r1, r3
10002e38:	468a      	mov	sl, r1
10002e3a:	421a      	tst	r2, r3
10002e3c:	d000      	beq.n	10002e40 <_vsnprintf+0x1d8>
10002e3e:	e3b6      	b.n	100035ae <_vsnprintf+0x946>
10002e40:	0013      	movs	r3, r2
10002e42:	065b      	lsls	r3, r3, #25
10002e44:	d500      	bpl.n	10002e48 <_vsnprintf+0x1e0>
10002e46:	e2ed      	b.n	10003424 <_vsnprintf+0x7bc>
10002e48:	0013      	movs	r3, r2
10002e4a:	9909      	ldr	r1, [sp, #36]	; 0x24
10002e4c:	061b      	lsls	r3, r3, #24
10002e4e:	d401      	bmi.n	10002e54 <_vsnprintf+0x1ec>
10002e50:	f000 fc76 	bl	10003740 <_vsnprintf+0xad8>
10002e54:	c908      	ldmia	r1!, {r3}
10002e56:	b21b      	sxth	r3, r3
10002e58:	17d8      	asrs	r0, r3, #31
10002e5a:	181a      	adds	r2, r3, r0
10002e5c:	4042      	eors	r2, r0
10002e5e:	b292      	uxth	r2, r2
10002e60:	9109      	str	r1, [sp, #36]	; 0x24
10002e62:	4693      	mov	fp, r2
10002e64:	0fda      	lsrs	r2, r3, #31
10002e66:	9212      	str	r2, [sp, #72]	; 0x48
10002e68:	2b00      	cmp	r3, #0
10002e6a:	d109      	bne.n	10002e80 <_vsnprintf+0x218>
10002e6c:	2380      	movs	r3, #128	; 0x80
10002e6e:	2210      	movs	r2, #16
10002e70:	990b      	ldr	r1, [sp, #44]	; 0x2c
10002e72:	00db      	lsls	r3, r3, #3
10002e74:	400b      	ands	r3, r1
10002e76:	4391      	bics	r1, r2
10002e78:	910b      	str	r1, [sp, #44]	; 0x2c
10002e7a:	2b00      	cmp	r3, #0
10002e7c:	d000      	beq.n	10002e80 <_vsnprintf+0x218>
10002e7e:	e2e4      	b.n	1000344a <_vsnprintf+0x7e2>
10002e80:	9a0b      	ldr	r2, [sp, #44]	; 0x2c
10002e82:	2361      	movs	r3, #97	; 0x61
10002e84:	0692      	lsls	r2, r2, #26
10002e86:	d500      	bpl.n	10002e8a <_vsnprintf+0x222>
10002e88:	2341      	movs	r3, #65	; 0x41
10002e8a:	a90e      	add	r1, sp, #56	; 0x38
10002e8c:	221f      	movs	r2, #31
10002e8e:	468c      	mov	ip, r1
10002e90:	b2db      	uxtb	r3, r3
10002e92:	4462      	add	r2, ip
10002e94:	3b0a      	subs	r3, #10
10002e96:	465f      	mov	r7, fp
10002e98:	9513      	str	r5, [sp, #76]	; 0x4c
10002e9a:	46a3      	mov	fp, r4
10002e9c:	4655      	mov	r5, sl
10002e9e:	9c0c      	ldr	r4, [sp, #48]	; 0x30
10002ea0:	46b2      	mov	sl, r6
10002ea2:	930d      	str	r3, [sp, #52]	; 0x34
10002ea4:	0016      	movs	r6, r2
10002ea6:	e00a      	b.n	10002ebe <_vsnprintf+0x256>
10002ea8:	3330      	adds	r3, #48	; 0x30
10002eaa:	b2db      	uxtb	r3, r3
10002eac:	3501      	adds	r5, #1
10002eae:	5573      	strb	r3, [r6, r5]
10002eb0:	42a7      	cmp	r7, r4
10002eb2:	d200      	bcs.n	10002eb6 <_vsnprintf+0x24e>
10002eb4:	e2ed      	b.n	10003492 <_vsnprintf+0x82a>
10002eb6:	2d20      	cmp	r5, #32
10002eb8:	d100      	bne.n	10002ebc <_vsnprintf+0x254>
10002eba:	e2ea      	b.n	10003492 <_vsnprintf+0x82a>
10002ebc:	0007      	movs	r7, r0
10002ebe:	0021      	movs	r1, r4
10002ec0:	0038      	movs	r0, r7
10002ec2:	f000 fcdd 	bl	10003880 <__wrap___aeabi_uidiv>
10002ec6:	b2cb      	uxtb	r3, r1
10002ec8:	2909      	cmp	r1, #9
10002eca:	d9ed      	bls.n	10002ea8 <_vsnprintf+0x240>
10002ecc:	9a0d      	ldr	r2, [sp, #52]	; 0x34
10002ece:	4694      	mov	ip, r2
10002ed0:	4463      	add	r3, ip
10002ed2:	b2db      	uxtb	r3, r3
10002ed4:	e7ea      	b.n	10002eac <_vsnprintf+0x244>
10002ed6:	2380      	movs	r3, #128	; 0x80
10002ed8:	009b      	lsls	r3, r3, #2
10002eda:	7870      	ldrb	r0, [r6, #1]
10002edc:	4319      	orrs	r1, r3
10002ede:	3601      	adds	r6, #1
10002ee0:	e72f      	b.n	10002d42 <_vsnprintf+0xda>
10002ee2:	7870      	ldrb	r0, [r6, #1]
10002ee4:	2868      	cmp	r0, #104	; 0x68
10002ee6:	d100      	bne.n	10002eea <_vsnprintf+0x282>
10002ee8:	e1cd      	b.n	10003286 <_vsnprintf+0x61e>
10002eea:	2380      	movs	r3, #128	; 0x80
10002eec:	3601      	adds	r6, #1
10002eee:	4319      	orrs	r1, r3
10002ef0:	e727      	b.n	10002d42 <_vsnprintf+0xda>
10002ef2:	7870      	ldrb	r0, [r6, #1]
10002ef4:	286c      	cmp	r0, #108	; 0x6c
10002ef6:	d100      	bne.n	10002efa <_vsnprintf+0x292>
10002ef8:	e1bf      	b.n	1000327a <_vsnprintf+0x612>
10002efa:	2380      	movs	r3, #128	; 0x80
10002efc:	005b      	lsls	r3, r3, #1
10002efe:	4319      	orrs	r1, r3
10002f00:	3601      	adds	r6, #1
10002f02:	e71e      	b.n	10002d42 <_vsnprintf+0xda>
10002f04:	2846      	cmp	r0, #70	; 0x46
10002f06:	d100      	bne.n	10002f0a <_vsnprintf+0x2a2>
10002f08:	e19b      	b.n	10003242 <_vsnprintf+0x5da>
10002f0a:	2207      	movs	r2, #7
10002f0c:	9b09      	ldr	r3, [sp, #36]	; 0x24
10002f0e:	9104      	str	r1, [sp, #16]
10002f10:	3307      	adds	r3, #7
10002f12:	4393      	bics	r3, r2
10002f14:	9a0a      	ldr	r2, [sp, #40]	; 0x28
10002f16:	0019      	movs	r1, r3
10002f18:	9203      	str	r2, [sp, #12]
10002f1a:	4642      	mov	r2, r8
10002f1c:	9202      	str	r2, [sp, #8]
10002f1e:	c90c      	ldmia	r1!, {r2, r3}
10002f20:	9808      	ldr	r0, [sp, #32]
10002f22:	9200      	str	r2, [sp, #0]
10002f24:	9301      	str	r3, [sp, #4]
10002f26:	9109      	str	r1, [sp, #36]	; 0x24
10002f28:	002a      	movs	r2, r5
10002f2a:	464b      	mov	r3, r9
10002f2c:	0021      	movs	r1, r4
10002f2e:	f7ff fccf 	bl	100028d0 <_ftoa>
10002f32:	3601      	adds	r6, #1
10002f34:	0005      	movs	r5, r0
10002f36:	e6bc      	b.n	10002cb2 <_vsnprintf+0x4a>
10002f38:	002a      	movs	r2, r5
10002f3a:	1c6f      	adds	r7, r5, #1
10002f3c:	464b      	mov	r3, r9
10002f3e:	9d08      	ldr	r5, [sp, #32]
10002f40:	0021      	movs	r1, r4
10002f42:	2025      	movs	r0, #37	; 0x25
10002f44:	47a8      	blx	r5
10002f46:	3601      	adds	r6, #1
10002f48:	003d      	movs	r5, r7
10002f4a:	e6b2      	b.n	10002cb2 <_vsnprintf+0x4a>
10002f4c:	078b      	lsls	r3, r1, #30
10002f4e:	d400      	bmi.n	10002f52 <_vsnprintf+0x2ea>
10002f50:	e1ad      	b.n	100032ae <_vsnprintf+0x646>
10002f52:	9b09      	ldr	r3, [sp, #36]	; 0x24
10002f54:	002a      	movs	r2, r5
10002f56:	469a      	mov	sl, r3
10002f58:	1c6b      	adds	r3, r5, #1
10002f5a:	4698      	mov	r8, r3
10002f5c:	4653      	mov	r3, sl
10002f5e:	cb01      	ldmia	r3!, {r0}
10002f60:	0021      	movs	r1, r4
10002f62:	469a      	mov	sl, r3
10002f64:	9f08      	ldr	r7, [sp, #32]
10002f66:	464b      	mov	r3, r9
10002f68:	b2c0      	uxtb	r0, r0
10002f6a:	47b8      	blx	r7
10002f6c:	9b0a      	ldr	r3, [sp, #40]	; 0x28
10002f6e:	469c      	mov	ip, r3
10002f70:	4465      	add	r5, ip
10002f72:	2b01      	cmp	r3, #1
10002f74:	d800      	bhi.n	10002f78 <_vsnprintf+0x310>
10002f76:	e286      	b.n	10003486 <_vsnprintf+0x81e>
10002f78:	9b08      	ldr	r3, [sp, #32]
10002f7a:	4647      	mov	r7, r8
10002f7c:	46b0      	mov	r8, r6
10002f7e:	0026      	movs	r6, r4
10002f80:	464c      	mov	r4, r9
10002f82:	4699      	mov	r9, r3
10002f84:	003a      	movs	r2, r7
10002f86:	0023      	movs	r3, r4
10002f88:	3701      	adds	r7, #1
10002f8a:	0031      	movs	r1, r6
10002f8c:	2020      	movs	r0, #32
10002f8e:	47c8      	blx	r9
10002f90:	42af      	cmp	r7, r5
10002f92:	d1f7      	bne.n	10002f84 <_vsnprintf+0x31c>
10002f94:	46a1      	mov	r9, r4
10002f96:	4653      	mov	r3, sl
10002f98:	0034      	movs	r4, r6
10002f9a:	4646      	mov	r6, r8
10002f9c:	9309      	str	r3, [sp, #36]	; 0x24
10002f9e:	3601      	adds	r6, #1
10002fa0:	e687      	b.n	10002cb2 <_vsnprintf+0x4a>
10002fa2:	46c0      	nop			; (mov r8, r8)
10002fa4:	10002c69 	.word	0x10002c69
10002fa8:	20001c80 	.word	0x20001c80
10002fac:	100072bc 	.word	0x100072bc
10002fb0:	10007300 	.word	0x10007300
10002fb4:	1000734c 	.word	0x1000734c
10002fb8:	9b09      	ldr	r3, [sp, #36]	; 0x24
10002fba:	cb04      	ldmia	r3!, {r2}
10002fbc:	469b      	mov	fp, r3
10002fbe:	4643      	mov	r3, r8
10002fc0:	9209      	str	r2, [sp, #36]	; 0x24
10002fc2:	2b00      	cmp	r3, #0
10002fc4:	d100      	bne.n	10002fc8 <_vsnprintf+0x360>
10002fc6:	e0c6      	b.n	10003156 <_vsnprintf+0x4ee>
10002fc8:	7813      	ldrb	r3, [r2, #0]
10002fca:	469c      	mov	ip, r3
10002fcc:	2b00      	cmp	r3, #0
10002fce:	d100      	bne.n	10002fd2 <_vsnprintf+0x36a>
10002fd0:	e3bd      	b.n	1000374e <_vsnprintf+0xae6>
10002fd2:	4643      	mov	r3, r8
10002fd4:	3b01      	subs	r3, #1
10002fd6:	9a09      	ldr	r2, [sp, #36]	; 0x24
10002fd8:	3301      	adds	r3, #1
10002fda:	18d0      	adds	r0, r2, r3
10002fdc:	9f0a      	ldr	r7, [sp, #40]	; 0x28
10002fde:	0013      	movs	r3, r2
10002fe0:	e001      	b.n	10002fe6 <_vsnprintf+0x37e>
10002fe2:	4283      	cmp	r3, r0
10002fe4:	d003      	beq.n	10002fee <_vsnprintf+0x386>
10002fe6:	785a      	ldrb	r2, [r3, #1]
10002fe8:	3301      	adds	r3, #1
10002fea:	2a00      	cmp	r2, #0
10002fec:	d1f9      	bne.n	10002fe2 <_vsnprintf+0x37a>
10002fee:	9a09      	ldr	r2, [sp, #36]	; 0x24
10002ff0:	970a      	str	r7, [sp, #40]	; 0x28
10002ff2:	1a9b      	subs	r3, r3, r2
10002ff4:	930b      	str	r3, [sp, #44]	; 0x2c
10002ff6:	2380      	movs	r3, #128	; 0x80
10002ff8:	000a      	movs	r2, r1
10002ffa:	00db      	lsls	r3, r3, #3
10002ffc:	401a      	ands	r2, r3
10002ffe:	920c      	str	r2, [sp, #48]	; 0x30
10003000:	4219      	tst	r1, r3
10003002:	d004      	beq.n	1000300e <_vsnprintf+0x3a6>
10003004:	9b0b      	ldr	r3, [sp, #44]	; 0x2c
10003006:	4543      	cmp	r3, r8
10003008:	d901      	bls.n	1000300e <_vsnprintf+0x3a6>
1000300a:	4643      	mov	r3, r8
1000300c:	930b      	str	r3, [sp, #44]	; 0x2c
1000300e:	2302      	movs	r3, #2
10003010:	001a      	movs	r2, r3
10003012:	400a      	ands	r2, r1
10003014:	920d      	str	r2, [sp, #52]	; 0x34
10003016:	420b      	tst	r3, r1
10003018:	d100      	bne.n	1000301c <_vsnprintf+0x3b4>
1000301a:	e187      	b.n	1000332c <_vsnprintf+0x6c4>
1000301c:	4660      	mov	r0, ip
1000301e:	2800      	cmp	r0, #0
10003020:	d100      	bne.n	10003024 <_vsnprintf+0x3bc>
10003022:	e168      	b.n	100032f6 <_vsnprintf+0x68e>
10003024:	9b0c      	ldr	r3, [sp, #48]	; 0x30
10003026:	2b00      	cmp	r3, #0
10003028:	d100      	bne.n	1000302c <_vsnprintf+0x3c4>
1000302a:	e10d      	b.n	10003248 <_vsnprintf+0x5e0>
1000302c:	44a8      	add	r8, r5
1000302e:	46c2      	mov	sl, r8
10003030:	9b09      	ldr	r3, [sp, #36]	; 0x24
10003032:	4657      	mov	r7, sl
10003034:	1b5b      	subs	r3, r3, r5
10003036:	4698      	mov	r8, r3
10003038:	9b08      	ldr	r3, [sp, #32]
1000303a:	46b2      	mov	sl, r6
1000303c:	002a      	movs	r2, r5
1000303e:	0026      	movs	r6, r4
10003040:	464c      	mov	r4, r9
10003042:	4699      	mov	r9, r3
10003044:	e009      	b.n	1000305a <_vsnprintf+0x3f2>
10003046:	0023      	movs	r3, r4
10003048:	0031      	movs	r1, r6
1000304a:	1c55      	adds	r5, r2, #1
1000304c:	47c8      	blx	r9
1000304e:	4643      	mov	r3, r8
10003050:	5d58      	ldrb	r0, [r3, r5]
10003052:	2800      	cmp	r0, #0
10003054:	d100      	bne.n	10003058 <_vsnprintf+0x3f0>
10003056:	e126      	b.n	100032a6 <_vsnprintf+0x63e>
10003058:	002a      	movs	r2, r5
1000305a:	4297      	cmp	r7, r2
1000305c:	d1f3      	bne.n	10003046 <_vsnprintf+0x3de>
1000305e:	46a1      	mov	r9, r4
10003060:	003d      	movs	r5, r7
10003062:	0034      	movs	r4, r6
10003064:	4656      	mov	r6, sl
10003066:	9b0d      	ldr	r3, [sp, #52]	; 0x34
10003068:	2b00      	cmp	r3, #0
1000306a:	d000      	beq.n	1000306e <_vsnprintf+0x406>
1000306c:	e143      	b.n	100032f6 <_vsnprintf+0x68e>
1000306e:	465b      	mov	r3, fp
10003070:	3601      	adds	r6, #1
10003072:	9309      	str	r3, [sp, #36]	; 0x24
10003074:	e61d      	b.n	10002cb2 <_vsnprintf+0x4a>
10003076:	9b09      	ldr	r3, [sp, #36]	; 0x24
10003078:	001a      	movs	r2, r3
1000307a:	ca08      	ldmia	r2!, {r3}
1000307c:	4692      	mov	sl, r2
1000307e:	2b00      	cmp	r3, #0
10003080:	d048      	beq.n	10003114 <_vsnprintf+0x4ac>
10003082:	2221      	movs	r2, #33	; 0x21
10003084:	4311      	orrs	r1, r2
10003086:	468b      	mov	fp, r1
10003088:	a80e      	add	r0, sp, #56	; 0x38
1000308a:	4684      	mov	ip, r0
1000308c:	211f      	movs	r1, #31
1000308e:	4461      	add	r1, ip
10003090:	9509      	str	r5, [sp, #36]	; 0x24
10003092:	2200      	movs	r2, #0
10003094:	270f      	movs	r7, #15
10003096:	46a4      	mov	ip, r4
10003098:	000d      	movs	r5, r1
1000309a:	e002      	b.n	100030a2 <_vsnprintf+0x43a>
1000309c:	2a20      	cmp	r2, #32
1000309e:	d00c      	beq.n	100030ba <_vsnprintf+0x452>
100030a0:	000b      	movs	r3, r1
100030a2:	003c      	movs	r4, r7
100030a4:	401c      	ands	r4, r3
100030a6:	0020      	movs	r0, r4
100030a8:	3037      	adds	r0, #55	; 0x37
100030aa:	2c09      	cmp	r4, #9
100030ac:	d800      	bhi.n	100030b0 <_vsnprintf+0x448>
100030ae:	3807      	subs	r0, #7
100030b0:	3201      	adds	r2, #1
100030b2:	54a8      	strb	r0, [r5, r2]
100030b4:	0919      	lsrs	r1, r3, #4
100030b6:	2b0f      	cmp	r3, #15
100030b8:	d8f0      	bhi.n	1000309c <_vsnprintf+0x434>
100030ba:	4664      	mov	r4, ip
100030bc:	9d09      	ldr	r5, [sp, #36]	; 0x24
100030be:	e032      	b.n	10003126 <_vsnprintf+0x4be>
100030c0:	4bdc      	ldr	r3, [pc, #880]	; (10003434 <_vsnprintf+0x7cc>)
100030c2:	7820      	ldrb	r0, [r4, #0]
100030c4:	9308      	str	r3, [sp, #32]
100030c6:	2300      	movs	r3, #0
100030c8:	469a      	mov	sl, r3
100030ca:	2800      	cmp	r0, #0
100030cc:	d000      	beq.n	100030d0 <_vsnprintf+0x468>
100030ce:	e5e4      	b.n	10002c9a <_vsnprintf+0x32>
100030d0:	2400      	movs	r4, #0
100030d2:	e665      	b.n	10002da0 <_vsnprintf+0x138>
100030d4:	4643      	mov	r3, r8
100030d6:	0006      	movs	r6, r0
100030d8:	9f0a      	ldr	r7, [sp, #40]	; 0x28
100030da:	0098      	lsls	r0, r3, #2
100030dc:	18c0      	adds	r0, r0, r3
100030de:	3201      	adds	r2, #1
100030e0:	0040      	lsls	r0, r0, #1
100030e2:	1980      	adds	r0, r0, r6
100030e4:	7816      	ldrb	r6, [r2, #0]
100030e6:	0003      	movs	r3, r0
100030e8:	0030      	movs	r0, r6
100030ea:	3830      	subs	r0, #48	; 0x30
100030ec:	3b30      	subs	r3, #48	; 0x30
100030ee:	2809      	cmp	r0, #9
100030f0:	d9f3      	bls.n	100030da <_vsnprintf+0x472>
100030f2:	0030      	movs	r0, r6
100030f4:	4698      	mov	r8, r3
100030f6:	0016      	movs	r6, r2
100030f8:	970a      	str	r7, [sp, #40]	; 0x28
100030fa:	e600      	b.n	10002cfe <_vsnprintf+0x96>
100030fc:	9b09      	ldr	r3, [sp, #36]	; 0x24
100030fe:	3602      	adds	r6, #2
10003100:	cb04      	ldmia	r3!, {r2}
10003102:	4690      	mov	r8, r2
10003104:	43d2      	mvns	r2, r2
10003106:	4640      	mov	r0, r8
10003108:	17d2      	asrs	r2, r2, #31
1000310a:	4010      	ands	r0, r2
1000310c:	4680      	mov	r8, r0
1000310e:	9309      	str	r3, [sp, #36]	; 0x24
10003110:	7830      	ldrb	r0, [r6, #0]
10003112:	e5f4      	b.n	10002cfe <_vsnprintf+0x96>
10003114:	2210      	movs	r2, #16
10003116:	0008      	movs	r0, r1
10003118:	4390      	bics	r0, r2
1000311a:	3211      	adds	r2, #17
1000311c:	4310      	orrs	r0, r2
1000311e:	4683      	mov	fp, r0
10003120:	2200      	movs	r2, #0
10003122:	0549      	lsls	r1, r1, #21
10003124:	d5b0      	bpl.n	10003088 <_vsnprintf+0x420>
10003126:	465b      	mov	r3, fp
10003128:	9306      	str	r3, [sp, #24]
1000312a:	2308      	movs	r3, #8
1000312c:	9305      	str	r3, [sp, #20]
1000312e:	4643      	mov	r3, r8
10003130:	9304      	str	r3, [sp, #16]
10003132:	2310      	movs	r3, #16
10003134:	9303      	str	r3, [sp, #12]
10003136:	2300      	movs	r3, #0
10003138:	9302      	str	r3, [sp, #8]
1000313a:	ab16      	add	r3, sp, #88	; 0x58
1000313c:	9201      	str	r2, [sp, #4]
1000313e:	9300      	str	r3, [sp, #0]
10003140:	002a      	movs	r2, r5
10003142:	464b      	mov	r3, r9
10003144:	0021      	movs	r1, r4
10003146:	9808      	ldr	r0, [sp, #32]
10003148:	f7ff f8a6 	bl	10002298 <_ntoa_format>
1000314c:	4653      	mov	r3, sl
1000314e:	0005      	movs	r5, r0
10003150:	3601      	adds	r6, #1
10003152:	9309      	str	r3, [sp, #36]	; 0x24
10003154:	e5ad      	b.n	10002cb2 <_vsnprintf+0x4a>
10003156:	7813      	ldrb	r3, [r2, #0]
10003158:	469c      	mov	ip, r3
1000315a:	2b00      	cmp	r3, #0
1000315c:	d100      	bne.n	10003160 <_vsnprintf+0x4f8>
1000315e:	e2f7      	b.n	10003750 <_vsnprintf+0xae8>
10003160:	2302      	movs	r3, #2
10003162:	425b      	negs	r3, r3
10003164:	e737      	b.n	10002fd6 <_vsnprintf+0x36e>
10003166:	2320      	movs	r3, #32
10003168:	0002      	movs	r2, r0
1000316a:	439a      	bics	r2, r3
1000316c:	2a47      	cmp	r2, #71	; 0x47
1000316e:	d104      	bne.n	1000317a <_vsnprintf+0x512>
10003170:	2380      	movs	r3, #128	; 0x80
10003172:	011b      	lsls	r3, r3, #4
10003174:	4319      	orrs	r1, r3
10003176:	2302      	movs	r3, #2
10003178:	4398      	bics	r0, r3
1000317a:	2845      	cmp	r0, #69	; 0x45
1000317c:	d101      	bne.n	10003182 <_vsnprintf+0x51a>
1000317e:	2320      	movs	r3, #32
10003180:	4319      	orrs	r1, r3
10003182:	2207      	movs	r2, #7
10003184:	9b09      	ldr	r3, [sp, #36]	; 0x24
10003186:	9104      	str	r1, [sp, #16]
10003188:	3307      	adds	r3, #7
1000318a:	4393      	bics	r3, r2
1000318c:	9a0a      	ldr	r2, [sp, #40]	; 0x28
1000318e:	0019      	movs	r1, r3
10003190:	9203      	str	r2, [sp, #12]
10003192:	4642      	mov	r2, r8
10003194:	9202      	str	r2, [sp, #8]
10003196:	c90c      	ldmia	r1!, {r2, r3}
10003198:	9808      	ldr	r0, [sp, #32]
1000319a:	9200      	str	r2, [sp, #0]
1000319c:	9301      	str	r3, [sp, #4]
1000319e:	9109      	str	r1, [sp, #36]	; 0x24
100031a0:	002a      	movs	r2, r5
100031a2:	464b      	mov	r3, r9
100031a4:	0021      	movs	r1, r4
100031a6:	f7ff f96d 	bl	10002484 <_etoa>
100031aa:	3601      	adds	r6, #1
100031ac:	0005      	movs	r5, r0
100031ae:	e580      	b.n	10002cb2 <_vsnprintf+0x4a>
100031b0:	2310      	movs	r3, #16
100031b2:	930c      	str	r3, [sp, #48]	; 0x30
100031b4:	230c      	movs	r3, #12
100031b6:	000a      	movs	r2, r1
100031b8:	439a      	bics	r2, r3
100031ba:	920b      	str	r2, [sp, #44]	; 0x2c
100031bc:	054b      	lsls	r3, r1, #21
100031be:	d503      	bpl.n	100031c8 <_vsnprintf+0x560>
100031c0:	2301      	movs	r3, #1
100031c2:	9a0b      	ldr	r2, [sp, #44]	; 0x2c
100031c4:	439a      	bics	r2, r3
100031c6:	920b      	str	r2, [sp, #44]	; 0x2c
100031c8:	2869      	cmp	r0, #105	; 0x69
100031ca:	d100      	bne.n	100031ce <_vsnprintf+0x566>
100031cc:	e627      	b.n	10002e1e <_vsnprintf+0x1b6>
100031ce:	2864      	cmp	r0, #100	; 0x64
100031d0:	d100      	bne.n	100031d4 <_vsnprintf+0x56c>
100031d2:	e624      	b.n	10002e1e <_vsnprintf+0x1b6>
100031d4:	9a0b      	ldr	r2, [sp, #44]	; 0x2c
100031d6:	2380      	movs	r3, #128	; 0x80
100031d8:	0011      	movs	r1, r2
100031da:	009b      	lsls	r3, r3, #2
100031dc:	4019      	ands	r1, r3
100031de:	468b      	mov	fp, r1
100031e0:	421a      	tst	r2, r3
100031e2:	d000      	beq.n	100031e6 <_vsnprintf+0x57e>
100031e4:	e166      	b.n	100034b4 <_vsnprintf+0x84c>
100031e6:	2380      	movs	r3, #128	; 0x80
100031e8:	0011      	movs	r1, r2
100031ea:	005b      	lsls	r3, r3, #1
100031ec:	4019      	ands	r1, r3
100031ee:	468a      	mov	sl, r1
100031f0:	421a      	tst	r2, r3
100031f2:	d000      	beq.n	100031f6 <_vsnprintf+0x58e>
100031f4:	e239      	b.n	1000366a <_vsnprintf+0xa02>
100031f6:	0013      	movs	r3, r2
100031f8:	065b      	lsls	r3, r3, #25
100031fa:	d500      	bpl.n	100031fe <_vsnprintf+0x596>
100031fc:	e13c      	b.n	10003478 <_vsnprintf+0x810>
100031fe:	0013      	movs	r3, r2
10003200:	061b      	lsls	r3, r3, #24
10003202:	d400      	bmi.n	10003206 <_vsnprintf+0x59e>
10003204:	e2a6      	b.n	10003754 <_vsnprintf+0xaec>
10003206:	9b09      	ldr	r3, [sp, #36]	; 0x24
10003208:	cb04      	ldmia	r3!, {r2}
1000320a:	0412      	lsls	r2, r2, #16
1000320c:	0c12      	lsrs	r2, r2, #16
1000320e:	4693      	mov	fp, r2
10003210:	9309      	str	r3, [sp, #36]	; 0x24
10003212:	465b      	mov	r3, fp
10003214:	2b00      	cmp	r3, #0
10003216:	d000      	beq.n	1000321a <_vsnprintf+0x5b2>
10003218:	e19a      	b.n	10003550 <_vsnprintf+0x8e8>
1000321a:	9a0b      	ldr	r2, [sp, #44]	; 0x2c
1000321c:	3310      	adds	r3, #16
1000321e:	0011      	movs	r1, r2
10003220:	4399      	bics	r1, r3
10003222:	910b      	str	r1, [sp, #44]	; 0x2c
10003224:	0552      	lsls	r2, r2, #21
10003226:	d400      	bmi.n	1000322a <_vsnprintf+0x5c2>
10003228:	e192      	b.n	10003550 <_vsnprintf+0x8e8>
1000322a:	2300      	movs	r3, #0
1000322c:	469a      	mov	sl, r3
1000322e:	9b0b      	ldr	r3, [sp, #44]	; 0x2c
10003230:	9306      	str	r3, [sp, #24]
10003232:	9b0a      	ldr	r3, [sp, #40]	; 0x28
10003234:	9305      	str	r3, [sp, #20]
10003236:	4643      	mov	r3, r8
10003238:	9304      	str	r3, [sp, #16]
1000323a:	9b0c      	ldr	r3, [sp, #48]	; 0x30
1000323c:	9303      	str	r3, [sp, #12]
1000323e:	2300      	movs	r3, #0
10003240:	e10c      	b.n	1000345c <_vsnprintf+0x7f4>
10003242:	2320      	movs	r3, #32
10003244:	4319      	orrs	r1, r3
10003246:	e660      	b.n	10002f0a <_vsnprintf+0x2a2>
10003248:	9b09      	ldr	r3, [sp, #36]	; 0x24
1000324a:	9a0a      	ldr	r2, [sp, #40]	; 0x28
1000324c:	1b5b      	subs	r3, r3, r5
1000324e:	4698      	mov	r8, r3
10003250:	464b      	mov	r3, r9
10003252:	4691      	mov	r9, r2
10003254:	001f      	movs	r7, r3
10003256:	46b2      	mov	sl, r6
10003258:	0026      	movs	r6, r4
1000325a:	9c08      	ldr	r4, [sp, #32]
1000325c:	002a      	movs	r2, r5
1000325e:	003b      	movs	r3, r7
10003260:	0031      	movs	r1, r6
10003262:	47a0      	blx	r4
10003264:	4643      	mov	r3, r8
10003266:	3501      	adds	r5, #1
10003268:	5d58      	ldrb	r0, [r3, r5]
1000326a:	2800      	cmp	r0, #0
1000326c:	d1f6      	bne.n	1000325c <_vsnprintf+0x5f4>
1000326e:	464a      	mov	r2, r9
10003270:	0034      	movs	r4, r6
10003272:	46b9      	mov	r9, r7
10003274:	4656      	mov	r6, sl
10003276:	920a      	str	r2, [sp, #40]	; 0x28
10003278:	e6f5      	b.n	10003066 <_vsnprintf+0x3fe>
1000327a:	23c0      	movs	r3, #192	; 0xc0
1000327c:	009b      	lsls	r3, r3, #2
1000327e:	78b0      	ldrb	r0, [r6, #2]
10003280:	4319      	orrs	r1, r3
10003282:	3602      	adds	r6, #2
10003284:	e55d      	b.n	10002d42 <_vsnprintf+0xda>
10003286:	23c0      	movs	r3, #192	; 0xc0
10003288:	78b0      	ldrb	r0, [r6, #2]
1000328a:	4319      	orrs	r1, r3
1000328c:	3602      	adds	r6, #2
1000328e:	e558      	b.n	10002d42 <_vsnprintf+0xda>
10003290:	230c      	movs	r3, #12
10003292:	000a      	movs	r2, r1
10003294:	439a      	bics	r2, r3
10003296:	3314      	adds	r3, #20
10003298:	431a      	orrs	r2, r3
1000329a:	3b10      	subs	r3, #16
1000329c:	920b      	str	r2, [sp, #44]	; 0x2c
1000329e:	930c      	str	r3, [sp, #48]	; 0x30
100032a0:	054b      	lsls	r3, r1, #21
100032a2:	d48d      	bmi.n	100031c0 <_vsnprintf+0x558>
100032a4:	e796      	b.n	100031d4 <_vsnprintf+0x56c>
100032a6:	46a1      	mov	r9, r4
100032a8:	0034      	movs	r4, r6
100032aa:	4656      	mov	r6, sl
100032ac:	e6db      	b.n	10003066 <_vsnprintf+0x3fe>
100032ae:	9a0a      	ldr	r2, [sp, #40]	; 0x28
100032b0:	2a01      	cmp	r2, #1
100032b2:	d800      	bhi.n	100032b6 <_vsnprintf+0x64e>
100032b4:	e253      	b.n	1000375e <_vsnprintf+0xaf6>
100032b6:	1e6b      	subs	r3, r5, #1
100032b8:	189f      	adds	r7, r3, r2
100032ba:	9b08      	ldr	r3, [sp, #32]
100032bc:	46b0      	mov	r8, r6
100032be:	0026      	movs	r6, r4
100032c0:	464c      	mov	r4, r9
100032c2:	4699      	mov	r9, r3
100032c4:	002a      	movs	r2, r5
100032c6:	0023      	movs	r3, r4
100032c8:	3501      	adds	r5, #1
100032ca:	0031      	movs	r1, r6
100032cc:	2020      	movs	r0, #32
100032ce:	47c8      	blx	r9
100032d0:	42bd      	cmp	r5, r7
100032d2:	d1f7      	bne.n	100032c4 <_vsnprintf+0x65c>
100032d4:	46a1      	mov	r9, r4
100032d6:	0034      	movs	r4, r6
100032d8:	4646      	mov	r6, r8
100032da:	9b09      	ldr	r3, [sp, #36]	; 0x24
100032dc:	003a      	movs	r2, r7
100032de:	cb01      	ldmia	r3!, {r0}
100032e0:	0021      	movs	r1, r4
100032e2:	4698      	mov	r8, r3
100032e4:	1c7d      	adds	r5, r7, #1
100032e6:	464b      	mov	r3, r9
100032e8:	9f08      	ldr	r7, [sp, #32]
100032ea:	b2c0      	uxtb	r0, r0
100032ec:	47b8      	blx	r7
100032ee:	4643      	mov	r3, r8
100032f0:	3601      	adds	r6, #1
100032f2:	9309      	str	r3, [sp, #36]	; 0x24
100032f4:	e4dd      	b.n	10002cb2 <_vsnprintf+0x4a>
100032f6:	9b0b      	ldr	r3, [sp, #44]	; 0x2c
100032f8:	9a0a      	ldr	r2, [sp, #40]	; 0x28
100032fa:	46a8      	mov	r8, r5
100032fc:	429a      	cmp	r2, r3
100032fe:	d800      	bhi.n	10003302 <_vsnprintf+0x69a>
10003300:	e6b5      	b.n	1000306e <_vsnprintf+0x406>
10003302:	4694      	mov	ip, r2
10003304:	4465      	add	r5, ip
10003306:	1aed      	subs	r5, r5, r3
10003308:	9b08      	ldr	r3, [sp, #32]
1000330a:	4647      	mov	r7, r8
1000330c:	46b0      	mov	r8, r6
1000330e:	0026      	movs	r6, r4
10003310:	464c      	mov	r4, r9
10003312:	4699      	mov	r9, r3
10003314:	003a      	movs	r2, r7
10003316:	0023      	movs	r3, r4
10003318:	3701      	adds	r7, #1
1000331a:	0031      	movs	r1, r6
1000331c:	2020      	movs	r0, #32
1000331e:	47c8      	blx	r9
10003320:	42af      	cmp	r7, r5
10003322:	d1f7      	bne.n	10003314 <_vsnprintf+0x6ac>
10003324:	46a1      	mov	r9, r4
10003326:	0034      	movs	r4, r6
10003328:	4646      	mov	r6, r8
1000332a:	e6a0      	b.n	1000306e <_vsnprintf+0x406>
1000332c:	9a0b      	ldr	r2, [sp, #44]	; 0x2c
1000332e:	990a      	ldr	r1, [sp, #40]	; 0x28
10003330:	1c53      	adds	r3, r2, #1
10003332:	4291      	cmp	r1, r2
10003334:	d800      	bhi.n	10003338 <_vsnprintf+0x6d0>
10003336:	e214      	b.n	10003762 <_vsnprintf+0xafa>
10003338:	194b      	adds	r3, r1, r5
1000333a:	1a9b      	subs	r3, r3, r2
1000333c:	001f      	movs	r7, r3
1000333e:	9b08      	ldr	r3, [sp, #32]
10003340:	46b2      	mov	sl, r6
10003342:	0026      	movs	r6, r4
10003344:	464c      	mov	r4, r9
10003346:	4699      	mov	r9, r3
10003348:	002a      	movs	r2, r5
1000334a:	0023      	movs	r3, r4
1000334c:	3501      	adds	r5, #1
1000334e:	0031      	movs	r1, r6
10003350:	2020      	movs	r0, #32
10003352:	47c8      	blx	r9
10003354:	42bd      	cmp	r5, r7
10003356:	d1f7      	bne.n	10003348 <_vsnprintf+0x6e0>
10003358:	9b0a      	ldr	r3, [sp, #40]	; 0x28
1000335a:	46a1      	mov	r9, r4
1000335c:	3301      	adds	r3, #1
1000335e:	930b      	str	r3, [sp, #44]	; 0x2c
10003360:	9b09      	ldr	r3, [sp, #36]	; 0x24
10003362:	0034      	movs	r4, r6
10003364:	781b      	ldrb	r3, [r3, #0]
10003366:	4656      	mov	r6, sl
10003368:	469c      	mov	ip, r3
1000336a:	4660      	mov	r0, ip
1000336c:	2800      	cmp	r0, #0
1000336e:	d000      	beq.n	10003372 <_vsnprintf+0x70a>
10003370:	e658      	b.n	10003024 <_vsnprintf+0x3bc>
10003372:	e67c      	b.n	1000306e <_vsnprintf+0x406>
10003374:	2207      	movs	r2, #7
10003376:	9b09      	ldr	r3, [sp, #36]	; 0x24
10003378:	3307      	adds	r3, #7
1000337a:	4393      	bics	r3, r2
1000337c:	3201      	adds	r2, #1
1000337e:	4694      	mov	ip, r2
10003380:	449c      	add	ip, r3
10003382:	4662      	mov	r2, ip
10003384:	685f      	ldr	r7, [r3, #4]
10003386:	9209      	str	r2, [sp, #36]	; 0x24
10003388:	681a      	ldr	r2, [r3, #0]
1000338a:	17fb      	asrs	r3, r7, #31
1000338c:	9310      	str	r3, [sp, #64]	; 0x40
1000338e:	9311      	str	r3, [sp, #68]	; 0x44
10003390:	9810      	ldr	r0, [sp, #64]	; 0x40
10003392:	9911      	ldr	r1, [sp, #68]	; 0x44
10003394:	0003      	movs	r3, r0
10003396:	4053      	eors	r3, r2
10003398:	930e      	str	r3, [sp, #56]	; 0x38
1000339a:	000b      	movs	r3, r1
1000339c:	407b      	eors	r3, r7
1000339e:	930f      	str	r3, [sp, #60]	; 0x3c
100033a0:	4694      	mov	ip, r2
100033a2:	9a0e      	ldr	r2, [sp, #56]	; 0x38
100033a4:	9b0f      	ldr	r3, [sp, #60]	; 0x3c
100033a6:	1a12      	subs	r2, r2, r0
100033a8:	418b      	sbcs	r3, r1
100033aa:	920e      	str	r2, [sp, #56]	; 0x38
100033ac:	930f      	str	r3, [sp, #60]	; 0x3c
100033ae:	0ffb      	lsrs	r3, r7, #31
100033b0:	4662      	mov	r2, ip
100033b2:	9312      	str	r3, [sp, #72]	; 0x48
100033b4:	2300      	movs	r3, #0
100033b6:	433a      	orrs	r2, r7
100033b8:	469b      	mov	fp, r3
100033ba:	d03d      	beq.n	10003438 <_vsnprintf+0x7d0>
100033bc:	9a0b      	ldr	r2, [sp, #44]	; 0x2c
100033be:	2361      	movs	r3, #97	; 0x61
100033c0:	0692      	lsls	r2, r2, #26
100033c2:	d500      	bpl.n	100033c6 <_vsnprintf+0x75e>
100033c4:	2341      	movs	r3, #65	; 0x41
100033c6:	2200      	movs	r2, #0
100033c8:	b2db      	uxtb	r3, r3
100033ca:	a90e      	add	r1, sp, #56	; 0x38
100033cc:	3b0a      	subs	r3, #10
100033ce:	468c      	mov	ip, r1
100033d0:	4692      	mov	sl, r2
100033d2:	930d      	str	r3, [sp, #52]	; 0x34
100033d4:	4643      	mov	r3, r8
100033d6:	321f      	adds	r2, #31
100033d8:	4462      	add	r2, ip
100033da:	9513      	str	r5, [sp, #76]	; 0x4c
100033dc:	9615      	str	r6, [sp, #84]	; 0x54
100033de:	4655      	mov	r5, sl
100033e0:	9e0e      	ldr	r6, [sp, #56]	; 0x38
100033e2:	9f0f      	ldr	r7, [sp, #60]	; 0x3c
100033e4:	46a2      	mov	sl, r4
100033e6:	4690      	mov	r8, r2
100033e8:	9c0c      	ldr	r4, [sp, #48]	; 0x30
100033ea:	9314      	str	r3, [sp, #80]	; 0x50
100033ec:	e00c      	b.n	10003408 <_vsnprintf+0x7a0>
100033ee:	3230      	adds	r2, #48	; 0x30
100033f0:	b2d2      	uxtb	r2, r2
100033f2:	4643      	mov	r3, r8
100033f4:	3501      	adds	r5, #1
100033f6:	555a      	strb	r2, [r3, r5]
100033f8:	45bb      	cmp	fp, r7
100033fa:	d100      	bne.n	100033fe <_vsnprintf+0x796>
100033fc:	e18a      	b.n	10003714 <_vsnprintf+0xaac>
100033fe:	2d20      	cmp	r5, #32
10003400:	d100      	bne.n	10003404 <_vsnprintf+0x79c>
10003402:	e18a      	b.n	1000371a <_vsnprintf+0xab2>
10003404:	0006      	movs	r6, r0
10003406:	000f      	movs	r7, r1
10003408:	0022      	movs	r2, r4
1000340a:	2300      	movs	r3, #0
1000340c:	0030      	movs	r0, r6
1000340e:	0039      	movs	r1, r7
10003410:	f000 fa74 	bl	100038fc <__wrap___aeabi_uldivmod>
10003414:	b2d2      	uxtb	r2, r2
10003416:	2a09      	cmp	r2, #9
10003418:	d9e9      	bls.n	100033ee <_vsnprintf+0x786>
1000341a:	9b0d      	ldr	r3, [sp, #52]	; 0x34
1000341c:	469c      	mov	ip, r3
1000341e:	4462      	add	r2, ip
10003420:	b2d2      	uxtb	r2, r2
10003422:	e7e6      	b.n	100033f2 <_vsnprintf+0x78a>
10003424:	23ff      	movs	r3, #255	; 0xff
10003426:	9909      	ldr	r1, [sp, #36]	; 0x24
10003428:	c904      	ldmia	r1!, {r2}
1000342a:	4013      	ands	r3, r2
1000342c:	001a      	movs	r2, r3
1000342e:	9109      	str	r1, [sp, #36]	; 0x24
10003430:	e517      	b.n	10002e62 <_vsnprintf+0x1fa>
10003432:	46c0      	nop			; (mov r8, r8)
10003434:	100021f9 	.word	0x100021f9
10003438:	9a0b      	ldr	r2, [sp, #44]	; 0x2c
1000343a:	3310      	adds	r3, #16
1000343c:	0011      	movs	r1, r2
1000343e:	4399      	bics	r1, r3
10003440:	910b      	str	r1, [sp, #44]	; 0x2c
10003442:	0552      	lsls	r2, r2, #21
10003444:	d5ba      	bpl.n	100033bc <_vsnprintf+0x754>
10003446:	2300      	movs	r3, #0
10003448:	469a      	mov	sl, r3
1000344a:	9b0b      	ldr	r3, [sp, #44]	; 0x2c
1000344c:	9306      	str	r3, [sp, #24]
1000344e:	9b0a      	ldr	r3, [sp, #40]	; 0x28
10003450:	9305      	str	r3, [sp, #20]
10003452:	4643      	mov	r3, r8
10003454:	9304      	str	r3, [sp, #16]
10003456:	9b0c      	ldr	r3, [sp, #48]	; 0x30
10003458:	9303      	str	r3, [sp, #12]
1000345a:	9b12      	ldr	r3, [sp, #72]	; 0x48
1000345c:	9302      	str	r3, [sp, #8]
1000345e:	4653      	mov	r3, sl
10003460:	9301      	str	r3, [sp, #4]
10003462:	ab16      	add	r3, sp, #88	; 0x58
10003464:	002a      	movs	r2, r5
10003466:	9300      	str	r3, [sp, #0]
10003468:	0021      	movs	r1, r4
1000346a:	464b      	mov	r3, r9
1000346c:	9808      	ldr	r0, [sp, #32]
1000346e:	f7fe ff13 	bl	10002298 <_ntoa_format>
10003472:	3601      	adds	r6, #1
10003474:	0005      	movs	r5, r0
10003476:	e41c      	b.n	10002cb2 <_vsnprintf+0x4a>
10003478:	22ff      	movs	r2, #255	; 0xff
1000347a:	9b09      	ldr	r3, [sp, #36]	; 0x24
1000347c:	cb02      	ldmia	r3!, {r1}
1000347e:	4011      	ands	r1, r2
10003480:	468b      	mov	fp, r1
10003482:	9309      	str	r3, [sp, #36]	; 0x24
10003484:	e6c5      	b.n	10003212 <_vsnprintf+0x5aa>
10003486:	4653      	mov	r3, sl
10003488:	4645      	mov	r5, r8
1000348a:	9309      	str	r3, [sp, #36]	; 0x24
1000348c:	3601      	adds	r6, #1
1000348e:	f7ff fc10 	bl	10002cb2 <_vsnprintf+0x4a>
10003492:	4656      	mov	r6, sl
10003494:	465c      	mov	r4, fp
10003496:	46aa      	mov	sl, r5
10003498:	9d13      	ldr	r5, [sp, #76]	; 0x4c
1000349a:	e7d6      	b.n	1000344a <_vsnprintf+0x7e2>
1000349c:	2308      	movs	r3, #8
1000349e:	930c      	str	r3, [sp, #48]	; 0x30
100034a0:	910b      	str	r1, [sp, #44]	; 0x2c
100034a2:	990b      	ldr	r1, [sp, #44]	; 0x2c
100034a4:	2864      	cmp	r0, #100	; 0x64
100034a6:	d000      	beq.n	100034aa <_vsnprintf+0x842>
100034a8:	e684      	b.n	100031b4 <_vsnprintf+0x54c>
100034aa:	9b0b      	ldr	r3, [sp, #44]	; 0x2c
100034ac:	055b      	lsls	r3, r3, #21
100034ae:	d500      	bpl.n	100034b2 <_vsnprintf+0x84a>
100034b0:	e686      	b.n	100031c0 <_vsnprintf+0x558>
100034b2:	e4b4      	b.n	10002e1e <_vsnprintf+0x1b6>
100034b4:	2207      	movs	r2, #7
100034b6:	9b09      	ldr	r3, [sp, #36]	; 0x24
100034b8:	3307      	adds	r3, #7
100034ba:	4393      	bics	r3, r2
100034bc:	3201      	adds	r2, #1
100034be:	4694      	mov	ip, r2
100034c0:	449c      	add	ip, r3
100034c2:	4662      	mov	r2, ip
100034c4:	9209      	str	r2, [sp, #36]	; 0x24
100034c6:	681a      	ldr	r2, [r3, #0]
100034c8:	685b      	ldr	r3, [r3, #4]
100034ca:	0010      	movs	r0, r2
100034cc:	469b      	mov	fp, r3
100034ce:	0013      	movs	r3, r2
100034d0:	465a      	mov	r2, fp
100034d2:	4313      	orrs	r3, r2
100034d4:	d107      	bne.n	100034e6 <_vsnprintf+0x87e>
100034d6:	9a0b      	ldr	r2, [sp, #44]	; 0x2c
100034d8:	3310      	adds	r3, #16
100034da:	0011      	movs	r1, r2
100034dc:	4399      	bics	r1, r3
100034de:	910b      	str	r1, [sp, #44]	; 0x2c
100034e0:	0552      	lsls	r2, r2, #21
100034e2:	d500      	bpl.n	100034e6 <_vsnprintf+0x87e>
100034e4:	e6a1      	b.n	1000322a <_vsnprintf+0x5c2>
100034e6:	9a0b      	ldr	r2, [sp, #44]	; 0x2c
100034e8:	2361      	movs	r3, #97	; 0x61
100034ea:	0692      	lsls	r2, r2, #26
100034ec:	d500      	bpl.n	100034f0 <_vsnprintf+0x888>
100034ee:	2341      	movs	r3, #65	; 0x41
100034f0:	2200      	movs	r2, #0
100034f2:	b2db      	uxtb	r3, r3
100034f4:	a90e      	add	r1, sp, #56	; 0x38
100034f6:	3b0a      	subs	r3, #10
100034f8:	468c      	mov	ip, r1
100034fa:	4692      	mov	sl, r2
100034fc:	930d      	str	r3, [sp, #52]	; 0x34
100034fe:	4643      	mov	r3, r8
10003500:	321f      	adds	r2, #31
10003502:	4462      	add	r2, ip
10003504:	465f      	mov	r7, fp
10003506:	9512      	str	r5, [sp, #72]	; 0x48
10003508:	46a3      	mov	fp, r4
1000350a:	4655      	mov	r5, sl
1000350c:	0004      	movs	r4, r0
1000350e:	46b2      	mov	sl, r6
10003510:	4690      	mov	r8, r2
10003512:	9e0c      	ldr	r6, [sp, #48]	; 0x30
10003514:	9313      	str	r3, [sp, #76]	; 0x4c
10003516:	e00d      	b.n	10003534 <_vsnprintf+0x8cc>
10003518:	3230      	adds	r2, #48	; 0x30
1000351a:	b2d2      	uxtb	r2, r2
1000351c:	4643      	mov	r3, r8
1000351e:	3501      	adds	r5, #1
10003520:	555a      	strb	r2, [r3, r5]
10003522:	2300      	movs	r3, #0
10003524:	42bb      	cmp	r3, r7
10003526:	d100      	bne.n	1000352a <_vsnprintf+0x8c2>
10003528:	e100      	b.n	1000372c <_vsnprintf+0xac4>
1000352a:	2d20      	cmp	r5, #32
1000352c:	d100      	bne.n	10003530 <_vsnprintf+0x8c8>
1000352e:	e100      	b.n	10003732 <_vsnprintf+0xaca>
10003530:	0004      	movs	r4, r0
10003532:	000f      	movs	r7, r1
10003534:	0032      	movs	r2, r6
10003536:	2300      	movs	r3, #0
10003538:	0020      	movs	r0, r4
1000353a:	0039      	movs	r1, r7
1000353c:	f000 f9de 	bl	100038fc <__wrap___aeabi_uldivmod>
10003540:	b2d2      	uxtb	r2, r2
10003542:	2a09      	cmp	r2, #9
10003544:	d9e8      	bls.n	10003518 <_vsnprintf+0x8b0>
10003546:	9b0d      	ldr	r3, [sp, #52]	; 0x34
10003548:	469c      	mov	ip, r3
1000354a:	4462      	add	r2, ip
1000354c:	b2d2      	uxtb	r2, r2
1000354e:	e7e5      	b.n	1000351c <_vsnprintf+0x8b4>
10003550:	9a0b      	ldr	r2, [sp, #44]	; 0x2c
10003552:	2361      	movs	r3, #97	; 0x61
10003554:	0692      	lsls	r2, r2, #26
10003556:	d500      	bpl.n	1000355a <_vsnprintf+0x8f2>
10003558:	2341      	movs	r3, #65	; 0x41
1000355a:	b2db      	uxtb	r3, r3
1000355c:	a90e      	add	r1, sp, #56	; 0x38
1000355e:	3b0a      	subs	r3, #10
10003560:	221f      	movs	r2, #31
10003562:	468c      	mov	ip, r1
10003564:	930d      	str	r3, [sp, #52]	; 0x34
10003566:	0023      	movs	r3, r4
10003568:	4462      	add	r2, ip
1000356a:	465c      	mov	r4, fp
1000356c:	9512      	str	r5, [sp, #72]	; 0x48
1000356e:	0017      	movs	r7, r2
10003570:	4655      	mov	r5, sl
10003572:	469b      	mov	fp, r3
10003574:	46b2      	mov	sl, r6
10003576:	9e0c      	ldr	r6, [sp, #48]	; 0x30
10003578:	e008      	b.n	1000358c <_vsnprintf+0x924>
1000357a:	3330      	adds	r3, #48	; 0x30
1000357c:	b2db      	uxtb	r3, r3
1000357e:	3501      	adds	r5, #1
10003580:	557b      	strb	r3, [r7, r5]
10003582:	42b4      	cmp	r4, r6
10003584:	d30e      	bcc.n	100035a4 <_vsnprintf+0x93c>
10003586:	2d20      	cmp	r5, #32
10003588:	d00c      	beq.n	100035a4 <_vsnprintf+0x93c>
1000358a:	0004      	movs	r4, r0
1000358c:	0031      	movs	r1, r6
1000358e:	0020      	movs	r0, r4
10003590:	f000 f976 	bl	10003880 <__wrap___aeabi_uidiv>
10003594:	b2cb      	uxtb	r3, r1
10003596:	2909      	cmp	r1, #9
10003598:	d9ef      	bls.n	1000357a <_vsnprintf+0x912>
1000359a:	9a0d      	ldr	r2, [sp, #52]	; 0x34
1000359c:	4694      	mov	ip, r2
1000359e:	4463      	add	r3, ip
100035a0:	b2db      	uxtb	r3, r3
100035a2:	e7ec      	b.n	1000357e <_vsnprintf+0x916>
100035a4:	4656      	mov	r6, sl
100035a6:	465c      	mov	r4, fp
100035a8:	46aa      	mov	sl, r5
100035aa:	9d12      	ldr	r5, [sp, #72]	; 0x48
100035ac:	e63f      	b.n	1000322e <_vsnprintf+0x5c6>
100035ae:	9b09      	ldr	r3, [sp, #36]	; 0x24
100035b0:	001a      	movs	r2, r3
100035b2:	ca08      	ldmia	r2!, {r3}
100035b4:	17d9      	asrs	r1, r3, #31
100035b6:	9213      	str	r2, [sp, #76]	; 0x4c
100035b8:	185a      	adds	r2, r3, r1
100035ba:	404a      	eors	r2, r1
100035bc:	4692      	mov	sl, r2
100035be:	0fda      	lsrs	r2, r3, #31
100035c0:	9212      	str	r2, [sp, #72]	; 0x48
100035c2:	2b00      	cmp	r3, #0
100035c4:	d108      	bne.n	100035d8 <_vsnprintf+0x970>
100035c6:	2380      	movs	r3, #128	; 0x80
100035c8:	2210      	movs	r2, #16
100035ca:	990b      	ldr	r1, [sp, #44]	; 0x2c
100035cc:	00db      	lsls	r3, r3, #3
100035ce:	400b      	ands	r3, r1
100035d0:	4391      	bics	r1, r2
100035d2:	910b      	str	r1, [sp, #44]	; 0x2c
100035d4:	2b00      	cmp	r3, #0
100035d6:	d12b      	bne.n	10003630 <_vsnprintf+0x9c8>
100035d8:	9a0b      	ldr	r2, [sp, #44]	; 0x2c
100035da:	2361      	movs	r3, #97	; 0x61
100035dc:	0692      	lsls	r2, r2, #26
100035de:	d500      	bpl.n	100035e2 <_vsnprintf+0x97a>
100035e0:	2341      	movs	r3, #65	; 0x41
100035e2:	aa0e      	add	r2, sp, #56	; 0x38
100035e4:	271f      	movs	r7, #31
100035e6:	4694      	mov	ip, r2
100035e8:	b2db      	uxtb	r3, r3
100035ea:	3b0a      	subs	r3, #10
100035ec:	950d      	str	r5, [sp, #52]	; 0x34
100035ee:	4467      	add	r7, ip
100035f0:	465d      	mov	r5, fp
100035f2:	9309      	str	r3, [sp, #36]	; 0x24
100035f4:	46a3      	mov	fp, r4
100035f6:	4654      	mov	r4, sl
100035f8:	46b2      	mov	sl, r6
100035fa:	9e0c      	ldr	r6, [sp, #48]	; 0x30
100035fc:	e008      	b.n	10003610 <_vsnprintf+0x9a8>
100035fe:	3330      	adds	r3, #48	; 0x30
10003600:	b2db      	uxtb	r3, r3
10003602:	3501      	adds	r5, #1
10003604:	557b      	strb	r3, [r7, r5]
10003606:	42b4      	cmp	r4, r6
10003608:	d30e      	bcc.n	10003628 <_vsnprintf+0x9c0>
1000360a:	2d20      	cmp	r5, #32
1000360c:	d00c      	beq.n	10003628 <_vsnprintf+0x9c0>
1000360e:	0004      	movs	r4, r0
10003610:	0031      	movs	r1, r6
10003612:	0020      	movs	r0, r4
10003614:	f000 f934 	bl	10003880 <__wrap___aeabi_uidiv>
10003618:	b2cb      	uxtb	r3, r1
1000361a:	2909      	cmp	r1, #9
1000361c:	d9ef      	bls.n	100035fe <_vsnprintf+0x996>
1000361e:	9a09      	ldr	r2, [sp, #36]	; 0x24
10003620:	4694      	mov	ip, r2
10003622:	4463      	add	r3, ip
10003624:	b2db      	uxtb	r3, r3
10003626:	e7ec      	b.n	10003602 <_vsnprintf+0x99a>
10003628:	4656      	mov	r6, sl
1000362a:	465c      	mov	r4, fp
1000362c:	46ab      	mov	fp, r5
1000362e:	9d0d      	ldr	r5, [sp, #52]	; 0x34
10003630:	9b0b      	ldr	r3, [sp, #44]	; 0x2c
10003632:	002a      	movs	r2, r5
10003634:	9306      	str	r3, [sp, #24]
10003636:	9b0a      	ldr	r3, [sp, #40]	; 0x28
10003638:	0021      	movs	r1, r4
1000363a:	9305      	str	r3, [sp, #20]
1000363c:	4643      	mov	r3, r8
1000363e:	9304      	str	r3, [sp, #16]
10003640:	9b0c      	ldr	r3, [sp, #48]	; 0x30
10003642:	9808      	ldr	r0, [sp, #32]
10003644:	9303      	str	r3, [sp, #12]
10003646:	9b12      	ldr	r3, [sp, #72]	; 0x48
10003648:	3601      	adds	r6, #1
1000364a:	9302      	str	r3, [sp, #8]
1000364c:	465b      	mov	r3, fp
1000364e:	9301      	str	r3, [sp, #4]
10003650:	ab16      	add	r3, sp, #88	; 0x58
10003652:	9300      	str	r3, [sp, #0]
10003654:	464b      	mov	r3, r9
10003656:	f7fe fe1f 	bl	10002298 <_ntoa_format>
1000365a:	9b13      	ldr	r3, [sp, #76]	; 0x4c
1000365c:	0005      	movs	r5, r0
1000365e:	9309      	str	r3, [sp, #36]	; 0x24
10003660:	f7ff fb27 	bl	10002cb2 <_vsnprintf+0x4a>
10003664:	2302      	movs	r3, #2
10003666:	930c      	str	r3, [sp, #48]	; 0x30
10003668:	e71a      	b.n	100034a0 <_vsnprintf+0x838>
1000366a:	9b09      	ldr	r3, [sp, #36]	; 0x24
1000366c:	cb04      	ldmia	r3!, {r2}
1000366e:	4692      	mov	sl, r2
10003670:	9312      	str	r3, [sp, #72]	; 0x48
10003672:	2a00      	cmp	r2, #0
10003674:	d108      	bne.n	10003688 <_vsnprintf+0xa20>
10003676:	2380      	movs	r3, #128	; 0x80
10003678:	2210      	movs	r2, #16
1000367a:	990b      	ldr	r1, [sp, #44]	; 0x2c
1000367c:	00db      	lsls	r3, r3, #3
1000367e:	400b      	ands	r3, r1
10003680:	4391      	bics	r1, r2
10003682:	910b      	str	r1, [sp, #44]	; 0x2c
10003684:	2b00      	cmp	r3, #0
10003686:	d12b      	bne.n	100036e0 <_vsnprintf+0xa78>
10003688:	9a0b      	ldr	r2, [sp, #44]	; 0x2c
1000368a:	2361      	movs	r3, #97	; 0x61
1000368c:	0692      	lsls	r2, r2, #26
1000368e:	d500      	bpl.n	10003692 <_vsnprintf+0xa2a>
10003690:	2341      	movs	r3, #65	; 0x41
10003692:	aa0e      	add	r2, sp, #56	; 0x38
10003694:	271f      	movs	r7, #31
10003696:	4694      	mov	ip, r2
10003698:	b2db      	uxtb	r3, r3
1000369a:	3b0a      	subs	r3, #10
1000369c:	950d      	str	r5, [sp, #52]	; 0x34
1000369e:	4467      	add	r7, ip
100036a0:	465d      	mov	r5, fp
100036a2:	9309      	str	r3, [sp, #36]	; 0x24
100036a4:	46a3      	mov	fp, r4
100036a6:	4654      	mov	r4, sl
100036a8:	46b2      	mov	sl, r6
100036aa:	9e0c      	ldr	r6, [sp, #48]	; 0x30
100036ac:	e008      	b.n	100036c0 <_vsnprintf+0xa58>
100036ae:	3330      	adds	r3, #48	; 0x30
100036b0:	b2db      	uxtb	r3, r3
100036b2:	3501      	adds	r5, #1
100036b4:	557b      	strb	r3, [r7, r5]
100036b6:	42b4      	cmp	r4, r6
100036b8:	d30e      	bcc.n	100036d8 <_vsnprintf+0xa70>
100036ba:	2d20      	cmp	r5, #32
100036bc:	d00c      	beq.n	100036d8 <_vsnprintf+0xa70>
100036be:	0004      	movs	r4, r0
100036c0:	0031      	movs	r1, r6
100036c2:	0020      	movs	r0, r4
100036c4:	f000 f8dc 	bl	10003880 <__wrap___aeabi_uidiv>
100036c8:	b2cb      	uxtb	r3, r1
100036ca:	2909      	cmp	r1, #9
100036cc:	d9ef      	bls.n	100036ae <_vsnprintf+0xa46>
100036ce:	9a09      	ldr	r2, [sp, #36]	; 0x24
100036d0:	4694      	mov	ip, r2
100036d2:	4463      	add	r3, ip
100036d4:	b2db      	uxtb	r3, r3
100036d6:	e7ec      	b.n	100036b2 <_vsnprintf+0xa4a>
100036d8:	4656      	mov	r6, sl
100036da:	465c      	mov	r4, fp
100036dc:	46ab      	mov	fp, r5
100036de:	9d0d      	ldr	r5, [sp, #52]	; 0x34
100036e0:	9b0b      	ldr	r3, [sp, #44]	; 0x2c
100036e2:	002a      	movs	r2, r5
100036e4:	9306      	str	r3, [sp, #24]
100036e6:	9b0a      	ldr	r3, [sp, #40]	; 0x28
100036e8:	0021      	movs	r1, r4
100036ea:	9305      	str	r3, [sp, #20]
100036ec:	4643      	mov	r3, r8
100036ee:	9304      	str	r3, [sp, #16]
100036f0:	9b0c      	ldr	r3, [sp, #48]	; 0x30
100036f2:	9808      	ldr	r0, [sp, #32]
100036f4:	9303      	str	r3, [sp, #12]
100036f6:	2300      	movs	r3, #0
100036f8:	9302      	str	r3, [sp, #8]
100036fa:	465b      	mov	r3, fp
100036fc:	9301      	str	r3, [sp, #4]
100036fe:	ab16      	add	r3, sp, #88	; 0x58
10003700:	9300      	str	r3, [sp, #0]
10003702:	464b      	mov	r3, r9
10003704:	f7fe fdc8 	bl	10002298 <_ntoa_format>
10003708:	9b12      	ldr	r3, [sp, #72]	; 0x48
1000370a:	0005      	movs	r5, r0
1000370c:	9309      	str	r3, [sp, #36]	; 0x24
1000370e:	3601      	adds	r6, #1
10003710:	f7ff facf 	bl	10002cb2 <_vsnprintf+0x4a>
10003714:	42b4      	cmp	r4, r6
10003716:	d800      	bhi.n	1000371a <_vsnprintf+0xab2>
10003718:	e671      	b.n	100033fe <_vsnprintf+0x796>
1000371a:	9b14      	ldr	r3, [sp, #80]	; 0x50
1000371c:	4654      	mov	r4, sl
1000371e:	960e      	str	r6, [sp, #56]	; 0x38
10003720:	970f      	str	r7, [sp, #60]	; 0x3c
10003722:	46aa      	mov	sl, r5
10003724:	4698      	mov	r8, r3
10003726:	9e15      	ldr	r6, [sp, #84]	; 0x54
10003728:	9d13      	ldr	r5, [sp, #76]	; 0x4c
1000372a:	e68e      	b.n	1000344a <_vsnprintf+0x7e2>
1000372c:	42a6      	cmp	r6, r4
1000372e:	d800      	bhi.n	10003732 <_vsnprintf+0xaca>
10003730:	e6fb      	b.n	1000352a <_vsnprintf+0x8c2>
10003732:	9b13      	ldr	r3, [sp, #76]	; 0x4c
10003734:	4656      	mov	r6, sl
10003736:	4698      	mov	r8, r3
10003738:	46aa      	mov	sl, r5
1000373a:	465c      	mov	r4, fp
1000373c:	9d12      	ldr	r5, [sp, #72]	; 0x48
1000373e:	e576      	b.n	1000322e <_vsnprintf+0x5c6>
10003740:	c908      	ldmia	r1!, {r3}
10003742:	17d8      	asrs	r0, r3, #31
10003744:	181a      	adds	r2, r3, r0
10003746:	4042      	eors	r2, r0
10003748:	9109      	str	r1, [sp, #36]	; 0x24
1000374a:	f7ff fb8a 	bl	10002e62 <_vsnprintf+0x1fa>
1000374e:	2300      	movs	r3, #0
10003750:	930b      	str	r3, [sp, #44]	; 0x2c
10003752:	e450      	b.n	10002ff6 <_vsnprintf+0x38e>
10003754:	9b09      	ldr	r3, [sp, #36]	; 0x24
10003756:	cb04      	ldmia	r3!, {r2}
10003758:	4693      	mov	fp, r2
1000375a:	9309      	str	r3, [sp, #36]	; 0x24
1000375c:	e559      	b.n	10003212 <_vsnprintf+0x5aa>
1000375e:	002f      	movs	r7, r5
10003760:	e5bb      	b.n	100032da <_vsnprintf+0x672>
10003762:	930b      	str	r3, [sp, #44]	; 0x2c
10003764:	e601      	b.n	1000336a <_vsnprintf+0x702>
10003766:	3b06      	subs	r3, #6
10003768:	930c      	str	r3, [sp, #48]	; 0x30
1000376a:	e69a      	b.n	100034a2 <_vsnprintf+0x83a>

1000376c <vfctprintf>:
1000376c:	b500      	push	{lr}
1000376e:	b085      	sub	sp, #20
10003770:	9103      	str	r1, [sp, #12]
10003772:	2101      	movs	r1, #1
10003774:	9002      	str	r0, [sp, #8]
10003776:	9300      	str	r3, [sp, #0]
10003778:	4803      	ldr	r0, [pc, #12]	; (10003788 <vfctprintf+0x1c>)
1000377a:	0013      	movs	r3, r2
1000377c:	424a      	negs	r2, r1
1000377e:	a902      	add	r1, sp, #8
10003780:	f7ff fa72 	bl	10002c68 <_vsnprintf>
10003784:	b005      	add	sp, #20
10003786:	bd00      	pop	{pc}
10003788:	10002475 	.word	0x10002475

1000378c <weak_raw_vprintf>:
1000378c:	b510      	push	{r4, lr}
1000378e:	4a09      	ldr	r2, [pc, #36]	; (100037b4 <weak_raw_vprintf+0x28>)
10003790:	0003      	movs	r3, r0
10003792:	6814      	ldr	r4, [r2, #0]
10003794:	b084      	sub	sp, #16
10003796:	2c00      	cmp	r4, #0
10003798:	d008      	beq.n	100037ac <weak_raw_vprintf+0x20>
1000379a:	2201      	movs	r2, #1
1000379c:	9100      	str	r1, [sp, #0]
1000379e:	4806      	ldr	r0, [pc, #24]	; (100037b8 <weak_raw_vprintf+0x2c>)
100037a0:	4252      	negs	r2, r2
100037a2:	a903      	add	r1, sp, #12
100037a4:	47a0      	blx	r4
100037a6:	2001      	movs	r0, #1
100037a8:	b004      	add	sp, #16
100037aa:	bd10      	pop	{r4, pc}
100037ac:	f001 f85a 	bl	10004864 <__wrap_puts>
100037b0:	2000      	movs	r0, #0
100037b2:	e7f9      	b.n	100037a8 <weak_raw_vprintf+0x1c>
100037b4:	20001c80 	.word	0x20001c80
100037b8:	10002465 	.word	0x10002465

100037bc <__aeabi_bits_init>:
100037bc:	4801      	ldr	r0, [pc, #4]	; (100037c4 <__aeabi_bits_init+0x8>)
100037be:	2104      	movs	r1, #4
100037c0:	4b01      	ldr	r3, [pc, #4]	; (100037c8 <__aeabi_bits_init+0xc>)
100037c2:	4718      	bx	r3
100037c4:	20000ee0 	.word	0x20000ee0
100037c8:	100037ed 	.word	0x100037ed

100037cc <rom_func_lookup>:
100037cc:	2314      	movs	r3, #20
100037ce:	b510      	push	{r4, lr}
100037d0:	0001      	movs	r1, r0
100037d2:	8818      	ldrh	r0, [r3, #0]
100037d4:	3304      	adds	r3, #4
100037d6:	881b      	ldrh	r3, [r3, #0]
100037d8:	4798      	blx	r3
100037da:	bd10      	pop	{r4, pc}

100037dc <rom_data_lookup>:
100037dc:	2316      	movs	r3, #22
100037de:	b510      	push	{r4, lr}
100037e0:	0001      	movs	r1, r0
100037e2:	8818      	ldrh	r0, [r3, #0]
100037e4:	3302      	adds	r3, #2
100037e6:	881b      	ldrh	r3, [r3, #0]
100037e8:	4798      	blx	r3
100037ea:	bd10      	pop	{r4, pc}

100037ec <rom_funcs_lookup>:
100037ec:	b5f8      	push	{r3, r4, r5, r6, r7, lr}
100037ee:	4647      	mov	r7, r8
100037f0:	46ce      	mov	lr, r9
100037f2:	b580      	push	{r7, lr}
100037f4:	1e0f      	subs	r7, r1, #0
100037f6:	d019      	beq.n	1000382c <rom_funcs_lookup+0x40>
100037f8:	2314      	movs	r3, #20
100037fa:	4699      	mov	r9, r3
100037fc:	3304      	adds	r3, #4
100037fe:	0004      	movs	r4, r0
10003800:	2500      	movs	r5, #0
10003802:	2601      	movs	r6, #1
10003804:	4698      	mov	r8, r3
10003806:	464b      	mov	r3, r9
10003808:	8818      	ldrh	r0, [r3, #0]
1000380a:	4643      	mov	r3, r8
1000380c:	6821      	ldr	r1, [r4, #0]
1000380e:	881b      	ldrh	r3, [r3, #0]
10003810:	4798      	blx	r3
10003812:	c401      	stmia	r4!, {r0}
10003814:	1e43      	subs	r3, r0, #1
10003816:	4198      	sbcs	r0, r3
10003818:	3501      	adds	r5, #1
1000381a:	4240      	negs	r0, r0
1000381c:	4006      	ands	r6, r0
1000381e:	42af      	cmp	r7, r5
10003820:	d1f1      	bne.n	10003806 <rom_funcs_lookup+0x1a>
10003822:	0030      	movs	r0, r6
10003824:	bcc0      	pop	{r6, r7}
10003826:	46b9      	mov	r9, r7
10003828:	46b0      	mov	r8, r6
1000382a:	bdf8      	pop	{r3, r4, r5, r6, r7, pc}
1000382c:	2601      	movs	r6, #1
1000382e:	e7f8      	b.n	10003822 <rom_funcs_lookup+0x36>

10003830 <__wrap___aeabi_idiv>:
10003830:	4a12      	ldr	r2, [pc, #72]	; (1000387c <divmod_s32s32_savestate+0x18>)
10003832:	6f93      	ldr	r3, [r2, #120]	; 0x78
10003834:	089b      	lsrs	r3, r3, #2
10003836:	d215      	bcs.n	10003864 <divmod_s32s32_savestate>

10003838 <divmod_s32s32_unsafe>:
10003838:	6690      	str	r0, [r2, #104]	; 0x68
1000383a:	66d1      	str	r1, [r2, #108]	; 0x6c
1000383c:	2900      	cmp	r1, #0
1000383e:	d005      	beq.n	1000384c <divmod_s32s32_unsafe+0x14>
10003840:	e7ff      	b.n	10003842 <divmod_s32s32_unsafe+0xa>
10003842:	e7ff      	b.n	10003844 <divmod_s32s32_unsafe+0xc>
10003844:	e7ff      	b.n	10003846 <divmod_s32s32_unsafe+0xe>
10003846:	6f51      	ldr	r1, [r2, #116]	; 0x74
10003848:	6f10      	ldr	r0, [r2, #112]	; 0x70
1000384a:	4770      	bx	lr
1000384c:	b504      	push	{r2, lr}
1000384e:	2180      	movs	r1, #128	; 0x80
10003850:	0609      	lsls	r1, r1, #24
10003852:	17c2      	asrs	r2, r0, #31
10003854:	4051      	eors	r1, r2
10003856:	2800      	cmp	r0, #0
10003858:	d000      	beq.n	1000385c <divmod_s32s32_unsafe+0x24>
1000385a:	43c8      	mvns	r0, r1
1000385c:	f003 fac0 	bl	10006de0 <____aeabi_idiv0_veneer>
10003860:	2100      	movs	r1, #0
10003862:	bd04      	pop	{r2, pc}

10003864 <divmod_s32s32_savestate>:
10003864:	b5f0      	push	{r4, r5, r6, r7, lr}
10003866:	6e14      	ldr	r4, [r2, #96]	; 0x60
10003868:	6e55      	ldr	r5, [r2, #100]	; 0x64
1000386a:	6f57      	ldr	r7, [r2, #116]	; 0x74
1000386c:	6f16      	ldr	r6, [r2, #112]	; 0x70
1000386e:	f7ff ffe3 	bl	10003838 <divmod_s32s32_unsafe>
10003872:	6614      	str	r4, [r2, #96]	; 0x60
10003874:	6655      	str	r5, [r2, #100]	; 0x64
10003876:	6757      	str	r7, [r2, #116]	; 0x74
10003878:	6716      	str	r6, [r2, #112]	; 0x70
1000387a:	bdf0      	pop	{r4, r5, r6, r7, pc}
1000387c:	d0000000 	.word	0xd0000000

10003880 <__wrap___aeabi_uidiv>:
10003880:	4a11      	ldr	r2, [pc, #68]	; (100038c8 <divmod_u32u32_savestate+0x18>)
10003882:	6f93      	ldr	r3, [r2, #120]	; 0x78
10003884:	089b      	lsrs	r3, r3, #2
10003886:	d213      	bcs.n	100038b0 <divmod_u32u32_savestate>

10003888 <divmod_u32u32_unsafe>:
10003888:	6610      	str	r0, [r2, #96]	; 0x60
1000388a:	6651      	str	r1, [r2, #100]	; 0x64
1000388c:	2900      	cmp	r1, #0
1000388e:	d005      	beq.n	1000389c <divmod_u32u32_unsafe+0x14>
10003890:	e7ff      	b.n	10003892 <divmod_u32u32_unsafe+0xa>
10003892:	e7ff      	b.n	10003894 <divmod_u32u32_unsafe+0xc>
10003894:	e7ff      	b.n	10003896 <divmod_u32u32_unsafe+0xe>
10003896:	6f51      	ldr	r1, [r2, #116]	; 0x74
10003898:	6f10      	ldr	r0, [r2, #112]	; 0x70
1000389a:	4770      	bx	lr
1000389c:	b504      	push	{r2, lr}
1000389e:	2800      	cmp	r0, #0
100038a0:	d001      	beq.n	100038a6 <divmod_u32u32_unsafe+0x1e>
100038a2:	2000      	movs	r0, #0
100038a4:	43c0      	mvns	r0, r0
100038a6:	f003 fa9b 	bl	10006de0 <____aeabi_idiv0_veneer>
100038aa:	2100      	movs	r1, #0
100038ac:	bd04      	pop	{r2, pc}
100038ae:	46c0      	nop			; (mov r8, r8)

100038b0 <divmod_u32u32_savestate>:
100038b0:	b5f0      	push	{r4, r5, r6, r7, lr}
100038b2:	6e14      	ldr	r4, [r2, #96]	; 0x60
100038b4:	6e55      	ldr	r5, [r2, #100]	; 0x64
100038b6:	6f57      	ldr	r7, [r2, #116]	; 0x74
100038b8:	6f16      	ldr	r6, [r2, #112]	; 0x70
100038ba:	f7ff ffe5 	bl	10003888 <divmod_u32u32_unsafe>
100038be:	6614      	str	r4, [r2, #96]	; 0x60
100038c0:	6655      	str	r5, [r2, #100]	; 0x64
100038c2:	6757      	str	r7, [r2, #116]	; 0x74
100038c4:	6716      	str	r6, [r2, #112]	; 0x70
100038c6:	bdf0      	pop	{r4, r5, r6, r7, pc}
100038c8:	d0000000 	.word	0xd0000000

100038cc <__wrap___aeabi_ldivmod>:
100038cc:	4694      	mov	ip, r2
100038ce:	4a4a      	ldr	r2, [pc, #296]	; (100039f8 <udiv0+0x1a>)
100038d0:	6f92      	ldr	r2, [r2, #120]	; 0x78
100038d2:	0892      	lsrs	r2, r2, #2
100038d4:	4662      	mov	r2, ip
100038d6:	d201      	bcs.n	100038dc <divmod_s64s64_savestate>
100038d8:	e028      	b.n	1000392c <divmod_s64s64_unsafe>
100038da:	46c0      	nop			; (mov r8, r8)

100038dc <divmod_s64s64_savestate>:
100038dc:	b5f0      	push	{r4, r5, r6, r7, lr}
100038de:	4e46      	ldr	r6, [pc, #280]	; (100039f8 <udiv0+0x1a>)
100038e0:	6e34      	ldr	r4, [r6, #96]	; 0x60
100038e2:	6e75      	ldr	r5, [r6, #100]	; 0x64
100038e4:	6f77      	ldr	r7, [r6, #116]	; 0x74
100038e6:	6f36      	ldr	r6, [r6, #112]	; 0x70
100038e8:	f000 f820 	bl	1000392c <divmod_s64s64_unsafe>
100038ec:	4694      	mov	ip, r2
100038ee:	4a42      	ldr	r2, [pc, #264]	; (100039f8 <udiv0+0x1a>)
100038f0:	6614      	str	r4, [r2, #96]	; 0x60
100038f2:	6655      	str	r5, [r2, #100]	; 0x64
100038f4:	6757      	str	r7, [r2, #116]	; 0x74
100038f6:	6716      	str	r6, [r2, #112]	; 0x70
100038f8:	4662      	mov	r2, ip
100038fa:	bdf0      	pop	{r4, r5, r6, r7, pc}

100038fc <__wrap___aeabi_uldivmod>:
100038fc:	4694      	mov	ip, r2
100038fe:	4a3e      	ldr	r2, [pc, #248]	; (100039f8 <udiv0+0x1a>)
10003900:	6f92      	ldr	r2, [r2, #120]	; 0x78
10003902:	0892      	lsrs	r2, r2, #2
10003904:	4662      	mov	r2, ip
10003906:	d201      	bcs.n	1000390c <divmod_u64u64_savestate>
10003908:	e054      	b.n	100039b4 <divmod_u64u64_unsafe>
1000390a:	46c0      	nop			; (mov r8, r8)

1000390c <divmod_u64u64_savestate>:
1000390c:	b5f0      	push	{r4, r5, r6, r7, lr}
1000390e:	4e3a      	ldr	r6, [pc, #232]	; (100039f8 <udiv0+0x1a>)
10003910:	6e34      	ldr	r4, [r6, #96]	; 0x60
10003912:	6e75      	ldr	r5, [r6, #100]	; 0x64
10003914:	6f77      	ldr	r7, [r6, #116]	; 0x74
10003916:	6f36      	ldr	r6, [r6, #112]	; 0x70
10003918:	f000 f84c 	bl	100039b4 <divmod_u64u64_unsafe>
1000391c:	4694      	mov	ip, r2
1000391e:	4a36      	ldr	r2, [pc, #216]	; (100039f8 <udiv0+0x1a>)
10003920:	6614      	str	r4, [r2, #96]	; 0x60
10003922:	6655      	str	r5, [r2, #100]	; 0x64
10003924:	6757      	str	r7, [r2, #116]	; 0x74
10003926:	6716      	str	r6, [r2, #112]	; 0x70
10003928:	4662      	mov	r2, ip
1000392a:	bdf0      	pop	{r4, r5, r6, r7, pc}

1000392c <divmod_s64s64_unsafe>:
1000392c:	2b00      	cmp	r3, #0
1000392e:	db24      	blt.n	1000397a <l41_1+0x26>
10003930:	d011      	beq.n	10003956 <l41_1+0x2>
10003932:	2900      	cmp	r1, #0
10003934:	da3e      	bge.n	100039b4 <divmod_u64u64_unsafe>
10003936:	b500      	push	{lr}
10003938:	43c9      	mvns	r1, r1
1000393a:	4240      	negs	r0, r0
1000393c:	d100      	bne.n	10003940 <l39_1>
1000393e:	3101      	adds	r1, #1

10003940 <l39_1>:
10003940:	f000 f838 	bl	100039b4 <divmod_u64u64_unsafe>
10003944:	43c9      	mvns	r1, r1
10003946:	4240      	negs	r0, r0
10003948:	d100      	bne.n	1000394c <l40_1>
1000394a:	3101      	adds	r1, #1

1000394c <l40_1>:
1000394c:	43db      	mvns	r3, r3
1000394e:	4252      	negs	r2, r2
10003950:	d100      	bne.n	10003954 <l41_1>
10003952:	3301      	adds	r3, #1

10003954 <l41_1>:
10003954:	bd00      	pop	{pc}
10003956:	2a00      	cmp	r2, #0
10003958:	d1eb      	bne.n	10003932 <divmod_s64s64_unsafe+0x6>
1000395a:	2800      	cmp	r0, #0
1000395c:	d101      	bne.n	10003962 <l41_1+0xe>
1000395e:	2900      	cmp	r1, #0
10003960:	d005      	beq.n	1000396e <l41_1+0x1a>
10003962:	2000      	movs	r0, #0
10003964:	0fc9      	lsrs	r1, r1, #31
10003966:	07c9      	lsls	r1, r1, #31
10003968:	d101      	bne.n	1000396e <l41_1+0x1a>
1000396a:	43c0      	mvns	r0, r0
1000396c:	0841      	lsrs	r1, r0, #1
1000396e:	b500      	push	{lr}
10003970:	f003 fa16 	bl	10006da0 <____aeabi_ldiv0_veneer>
10003974:	2200      	movs	r2, #0
10003976:	2300      	movs	r3, #0
10003978:	bd00      	pop	{pc}
1000397a:	b500      	push	{lr}
1000397c:	2900      	cmp	r1, #0
1000397e:	db0a      	blt.n	10003996 <l43_1+0x2>
10003980:	43db      	mvns	r3, r3
10003982:	4252      	negs	r2, r2
10003984:	d100      	bne.n	10003988 <l42_1>
10003986:	3301      	adds	r3, #1

10003988 <l42_1>:
10003988:	f000 f814 	bl	100039b4 <divmod_u64u64_unsafe>
1000398c:	43c9      	mvns	r1, r1
1000398e:	4240      	negs	r0, r0
10003990:	d100      	bne.n	10003994 <l43_1>
10003992:	3101      	adds	r1, #1

10003994 <l43_1>:
10003994:	bd00      	pop	{pc}
10003996:	43c9      	mvns	r1, r1
10003998:	4240      	negs	r0, r0
1000399a:	d100      	bne.n	1000399e <l44_1>
1000399c:	3101      	adds	r1, #1

1000399e <l44_1>:
1000399e:	43db      	mvns	r3, r3
100039a0:	4252      	negs	r2, r2
100039a2:	d100      	bne.n	100039a6 <l45_1>
100039a4:	3301      	adds	r3, #1

100039a6 <l45_1>:
100039a6:	f000 f805 	bl	100039b4 <divmod_u64u64_unsafe>
100039aa:	43db      	mvns	r3, r3
100039ac:	4252      	negs	r2, r2
100039ae:	d100      	bne.n	100039b2 <l46_1>
100039b0:	3301      	adds	r3, #1

100039b2 <l46_1>:
100039b2:	bd00      	pop	{pc}

100039b4 <divmod_u64u64_unsafe>:
100039b4:	2900      	cmp	r1, #0
100039b6:	d123      	bne.n	10003a00 <y64>
100039b8:	2b00      	cmp	r3, #0
100039ba:	d118      	bne.n	100039ee <udiv0+0x10>
100039bc:	2a00      	cmp	r2, #0
100039be:	d00c      	beq.n	100039da <divmod_u64u64_unsafe+0x26>
100039c0:	46bc      	mov	ip, r7
100039c2:	4f0d      	ldr	r7, [pc, #52]	; (100039f8 <udiv0+0x1a>)
100039c4:	6638      	str	r0, [r7, #96]	; 0x60
100039c6:	667a      	str	r2, [r7, #100]	; 0x64
100039c8:	2100      	movs	r1, #0
100039ca:	2300      	movs	r3, #0
100039cc:	e7ff      	b.n	100039ce <divmod_u64u64_unsafe+0x1a>
100039ce:	e7ff      	b.n	100039d0 <divmod_u64u64_unsafe+0x1c>
100039d0:	e7ff      	b.n	100039d2 <divmod_u64u64_unsafe+0x1e>
100039d2:	6f7a      	ldr	r2, [r7, #116]	; 0x74
100039d4:	6f38      	ldr	r0, [r7, #112]	; 0x70
100039d6:	4667      	mov	r7, ip
100039d8:	4770      	bx	lr
100039da:	2800      	cmp	r0, #0
100039dc:	d001      	beq.n	100039e2 <udiv0+0x4>

100039de <udiv0>:
100039de:	4807      	ldr	r0, [pc, #28]	; (100039fc <udiv0+0x1e>)
100039e0:	0001      	movs	r1, r0
100039e2:	b500      	push	{lr}
100039e4:	f003 f9dc 	bl	10006da0 <____aeabi_ldiv0_veneer>
100039e8:	2200      	movs	r2, #0
100039ea:	2300      	movs	r3, #0
100039ec:	bd00      	pop	{pc}
100039ee:	0002      	movs	r2, r0
100039f0:	000b      	movs	r3, r1
100039f2:	2000      	movs	r0, #0
100039f4:	2100      	movs	r1, #0
100039f6:	4770      	bx	lr
100039f8:	d0000000 	.word	0xd0000000
100039fc:	ffffffff 	.word	0xffffffff

10003a00 <y64>:
10003a00:	2b00      	cmp	r3, #0
10003a02:	d000      	beq.n	10003a06 <y64+0x6>
10003a04:	e0bf      	b.n	10003b86 <y64_x48>
10003a06:	0c13      	lsrs	r3, r2, #16
10003a08:	d128      	bne.n	10003a5c <y64_x32>
10003a0a:	2a00      	cmp	r2, #0
10003a0c:	d0e7      	beq.n	100039de <udiv0>
10003a0e:	b480      	push	{r7}
10003a10:	4f11      	ldr	r7, [pc, #68]	; (10003a58 <y64+0x58>)
10003a12:	6639      	str	r1, [r7, #96]	; 0x60
10003a14:	667a      	str	r2, [r7, #100]	; 0x64
10003a16:	e7ff      	b.n	10003a18 <y64+0x18>
10003a18:	e7ff      	b.n	10003a1a <y64+0x1a>
10003a1a:	b430      	push	{r4, r5}
10003a1c:	0c04      	lsrs	r4, r0, #16
10003a1e:	6f7b      	ldr	r3, [r7, #116]	; 0x74
10003a20:	6f39      	ldr	r1, [r7, #112]	; 0x70
10003a22:	041b      	lsls	r3, r3, #16
10003a24:	4323      	orrs	r3, r4
10003a26:	663b      	str	r3, [r7, #96]	; 0x60
10003a28:	667a      	str	r2, [r7, #100]	; 0x64
10003a2a:	e7ff      	b.n	10003a2c <y64+0x2c>
10003a2c:	e7ff      	b.n	10003a2e <y64+0x2e>
10003a2e:	e7ff      	b.n	10003a30 <y64+0x30>
10003a30:	46c0      	nop			; (mov r8, r8)
10003a32:	b284      	uxth	r4, r0
10003a34:	6f7b      	ldr	r3, [r7, #116]	; 0x74
10003a36:	6f3d      	ldr	r5, [r7, #112]	; 0x70
10003a38:	041b      	lsls	r3, r3, #16
10003a3a:	4323      	orrs	r3, r4
10003a3c:	663b      	str	r3, [r7, #96]	; 0x60
10003a3e:	667a      	str	r2, [r7, #100]	; 0x64
10003a40:	e7ff      	b.n	10003a42 <y64+0x42>
10003a42:	e7ff      	b.n	10003a44 <y64+0x44>
10003a44:	46c0      	nop			; (mov r8, r8)
10003a46:	2300      	movs	r3, #0
10003a48:	042c      	lsls	r4, r5, #16
10003a4a:	0c2d      	lsrs	r5, r5, #16
10003a4c:	6f7a      	ldr	r2, [r7, #116]	; 0x74
10003a4e:	6f38      	ldr	r0, [r7, #112]	; 0x70
10003a50:	1900      	adds	r0, r0, r4
10003a52:	4169      	adcs	r1, r5
10003a54:	bcb0      	pop	{r4, r5, r7}
10003a56:	4770      	bx	lr
10003a58:	d0000000 	.word	0xd0000000

10003a5c <y64_x32>:
10003a5c:	b5f0      	push	{r4, r5, r6, r7, lr}
10003a5e:	4694      	mov	ip, r2
10003a60:	2500      	movs	r5, #0
10003a62:	0e14      	lsrs	r4, r2, #24
10003a64:	d101      	bne.n	10003a6a <y64_x32+0xe>
10003a66:	0212      	lsls	r2, r2, #8
10003a68:	3508      	adds	r5, #8
10003a6a:	0f14      	lsrs	r4, r2, #28
10003a6c:	d101      	bne.n	10003a72 <y64_x32+0x16>
10003a6e:	0112      	lsls	r2, r2, #4
10003a70:	3504      	adds	r5, #4
10003a72:	0f94      	lsrs	r4, r2, #30
10003a74:	d101      	bne.n	10003a7a <y64_x32+0x1e>
10003a76:	0092      	lsls	r2, r2, #2
10003a78:	3502      	adds	r5, #2
10003a7a:	0fd4      	lsrs	r4, r2, #31
10003a7c:	d101      	bne.n	10003a82 <y64_x32+0x26>
10003a7e:	0052      	lsls	r2, r2, #1
10003a80:	3501      	adds	r5, #1
10003a82:	0bd4      	lsrs	r4, r2, #15
10003a84:	3401      	adds	r4, #1
10003a86:	4f25      	ldr	r7, [pc, #148]	; (10003b1c <y64_x32+0xc0>)
10003a88:	667c      	str	r4, [r7, #100]	; 0x64
10003a8a:	4c25      	ldr	r4, [pc, #148]	; (10003b20 <y64_x32+0xc4>)
10003a8c:	663c      	str	r4, [r7, #96]	; 0x60
10003a8e:	0c0e      	lsrs	r6, r1, #16
10003a90:	b293      	uxth	r3, r2
10003a92:	e7ff      	b.n	10003a94 <y64_x32+0x38>
10003a94:	e7ff      	b.n	10003a96 <y64_x32+0x3a>
10003a96:	e7ff      	b.n	10003a98 <y64_x32+0x3c>
10003a98:	6f3c      	ldr	r4, [r7, #112]	; 0x70
10003a9a:	4366      	muls	r6, r4
10003a9c:	0c36      	lsrs	r6, r6, #16
10003a9e:	0377      	lsls	r7, r6, #13
10003aa0:	46be      	mov	lr, r7
10003aa2:	4373      	muls	r3, r6
10003aa4:	0bdf      	lsrs	r7, r3, #15
10003aa6:	045b      	lsls	r3, r3, #17
10003aa8:	1ac0      	subs	r0, r0, r3
10003aaa:	41b9      	sbcs	r1, r7
10003aac:	0c13      	lsrs	r3, r2, #16
10003aae:	4373      	muls	r3, r6
10003ab0:	18db      	adds	r3, r3, r3
10003ab2:	1ac9      	subs	r1, r1, r3
10003ab4:	08ce      	lsrs	r6, r1, #3
10003ab6:	4366      	muls	r6, r4
10003ab8:	0c36      	lsrs	r6, r6, #16
10003aba:	44b6      	add	lr, r6
10003abc:	b293      	uxth	r3, r2
10003abe:	4373      	muls	r3, r6
10003ac0:	0f1f      	lsrs	r7, r3, #28
10003ac2:	011b      	lsls	r3, r3, #4
10003ac4:	1ac0      	subs	r0, r0, r3
10003ac6:	41b9      	sbcs	r1, r7
10003ac8:	0c13      	lsrs	r3, r2, #16
10003aca:	4373      	muls	r3, r6
10003acc:	0b1f      	lsrs	r7, r3, #12
10003ace:	051b      	lsls	r3, r3, #20
10003ad0:	1ac0      	subs	r0, r0, r3
10003ad2:	41b9      	sbcs	r1, r7
10003ad4:	0d86      	lsrs	r6, r0, #22
10003ad6:	028f      	lsls	r7, r1, #10
10003ad8:	433e      	orrs	r6, r7
10003ada:	4366      	muls	r6, r4
10003adc:	0c36      	lsrs	r6, r6, #16
10003ade:	2d09      	cmp	r5, #9
10003ae0:	db24      	blt.n	10003b2c <last0>
10003ae2:	0a52      	lsrs	r2, r2, #9
10003ae4:	4372      	muls	r2, r6
10003ae6:	1a80      	subs	r0, r0, r2
10003ae8:	0377      	lsls	r7, r6, #13
10003aea:	0a46      	lsrs	r6, r0, #9
10003aec:	4366      	muls	r6, r4
10003aee:	0c36      	lsrs	r6, r6, #16
10003af0:	2316      	movs	r3, #22
10003af2:	1b5b      	subs	r3, r3, r5
10003af4:	40de      	lsrs	r6, r3
10003af6:	40df      	lsrs	r7, r3
10003af8:	19bf      	adds	r7, r7, r6
10003afa:	4664      	mov	r4, ip
10003afc:	4366      	muls	r6, r4
10003afe:	1b82      	subs	r2, r0, r6
10003b00:	4670      	mov	r0, lr
10003b02:	3504      	adds	r5, #4
10003b04:	3306      	adds	r3, #6
10003b06:	0001      	movs	r1, r0
10003b08:	40d9      	lsrs	r1, r3
10003b0a:	40a8      	lsls	r0, r5
10003b0c:	19c0      	adds	r0, r0, r7
10003b0e:	d300      	bcc.n	10003b12 <y64_x32+0xb6>
10003b10:	3101      	adds	r1, #1
10003b12:	42a2      	cmp	r2, r4
10003b14:	d206      	bcs.n	10003b24 <y64_x32+0xc8>
10003b16:	2300      	movs	r3, #0
10003b18:	bdf0      	pop	{r4, r5, r6, r7, pc}
10003b1a:	0000      	.short	0x0000
10003b1c:	d0000000 	.word	0xd0000000
10003b20:	ffffffff 	.word	0xffffffff
10003b24:	1b12      	subs	r2, r2, r4
10003b26:	3001      	adds	r0, #1
10003b28:	d3f3      	bcc.n	10003b12 <y64_x32+0xb6>
10003b2a:	e7f1      	b.n	10003b10 <y64_x32+0xb4>

10003b2c <last0>:
10003b2c:	2709      	movs	r7, #9
10003b2e:	1b7f      	subs	r7, r7, r5
10003b30:	40fe      	lsrs	r6, r7
10003b32:	4664      	mov	r4, ip
10003b34:	b2a2      	uxth	r2, r4
10003b36:	4372      	muls	r2, r6
10003b38:	1a80      	subs	r0, r0, r2
10003b3a:	d200      	bcs.n	10003b3e <last0+0x12>
10003b3c:	3901      	subs	r1, #1
10003b3e:	0c22      	lsrs	r2, r4, #16
10003b40:	4372      	muls	r2, r6
10003b42:	0c13      	lsrs	r3, r2, #16
10003b44:	0412      	lsls	r2, r2, #16
10003b46:	1a82      	subs	r2, r0, r2
10003b48:	4199      	sbcs	r1, r3
10003b4a:	000b      	movs	r3, r1
10003b4c:	4670      	mov	r0, lr
10003b4e:	3504      	adds	r5, #4
10003b50:	3713      	adds	r7, #19
10003b52:	0001      	movs	r1, r0
10003b54:	40f9      	lsrs	r1, r7
10003b56:	40a8      	lsls	r0, r5
10003b58:	1980      	adds	r0, r0, r6
10003b5a:	d300      	bcc.n	10003b5e <last0+0x32>
10003b5c:	3101      	adds	r1, #1
10003b5e:	2b00      	cmp	r3, #0
10003b60:	d102      	bne.n	10003b68 <last0+0x3c>
10003b62:	42a2      	cmp	r2, r4
10003b64:	d20a      	bcs.n	10003b7c <last0+0x50>
10003b66:	bdf0      	pop	{r4, r5, r6, r7, pc}
10003b68:	3001      	adds	r0, #1
10003b6a:	d300      	bcc.n	10003b6e <last0+0x42>
10003b6c:	3101      	adds	r1, #1
10003b6e:	1b12      	subs	r2, r2, r4
10003b70:	d2fa      	bcs.n	10003b68 <last0+0x3c>
10003b72:	3b01      	subs	r3, #1
10003b74:	d1f8      	bne.n	10003b68 <last0+0x3c>
10003b76:	42a2      	cmp	r2, r4
10003b78:	d200      	bcs.n	10003b7c <last0+0x50>
10003b7a:	bdf0      	pop	{r4, r5, r6, r7, pc}
10003b7c:	3001      	adds	r0, #1
10003b7e:	d300      	bcc.n	10003b82 <last0+0x56>
10003b80:	3101      	adds	r1, #1
10003b82:	1b12      	subs	r2, r2, r4
10003b84:	e7f7      	b.n	10003b76 <last0+0x4a>

10003b86 <y64_x48>:
10003b86:	b5f0      	push	{r4, r5, r6, r7, lr}
10003b88:	0c1c      	lsrs	r4, r3, #16
10003b8a:	d000      	beq.n	10003b8e <y64_x48+0x8>
10003b8c:	e080      	b.n	10003c90 <y64_x64>
10003b8e:	b40c      	push	{r2, r3}
10003b90:	2500      	movs	r5, #0
10003b92:	0a1c      	lsrs	r4, r3, #8
10003b94:	d104      	bne.n	10003ba0 <y64_x48+0x1a>
10003b96:	021b      	lsls	r3, r3, #8
10003b98:	0e16      	lsrs	r6, r2, #24
10003b9a:	4333      	orrs	r3, r6
10003b9c:	0212      	lsls	r2, r2, #8
10003b9e:	3508      	adds	r5, #8
10003ba0:	0b1c      	lsrs	r4, r3, #12
10003ba2:	d104      	bne.n	10003bae <y64_x48+0x28>
10003ba4:	011b      	lsls	r3, r3, #4
10003ba6:	0f16      	lsrs	r6, r2, #28
10003ba8:	4333      	orrs	r3, r6
10003baa:	0112      	lsls	r2, r2, #4
10003bac:	3504      	adds	r5, #4
10003bae:	0b9c      	lsrs	r4, r3, #14
10003bb0:	d104      	bne.n	10003bbc <y64_x48+0x36>
10003bb2:	009b      	lsls	r3, r3, #2
10003bb4:	0f96      	lsrs	r6, r2, #30
10003bb6:	4333      	orrs	r3, r6
10003bb8:	0092      	lsls	r2, r2, #2
10003bba:	3502      	adds	r5, #2
10003bbc:	0bdc      	lsrs	r4, r3, #15
10003bbe:	d102      	bne.n	10003bc6 <y64_x48+0x40>
10003bc0:	1892      	adds	r2, r2, r2
10003bc2:	415b      	adcs	r3, r3
10003bc4:	3501      	adds	r5, #1
10003bc6:	001c      	movs	r4, r3
10003bc8:	1897      	adds	r7, r2, r2
10003bca:	4164      	adcs	r4, r4
10003bcc:	3401      	adds	r4, #1
10003bce:	4f46      	ldr	r7, [pc, #280]	; (10003ce8 <y64_x64+0x58>)
10003bd0:	667c      	str	r4, [r7, #100]	; 0x64
10003bd2:	4c46      	ldr	r4, [pc, #280]	; (10003cec <y64_x64+0x5c>)
10003bd4:	663c      	str	r4, [r7, #96]	; 0x60
10003bd6:	0c0e      	lsrs	r6, r1, #16
10003bd8:	e7ff      	b.n	10003bda <y64_x48+0x54>
10003bda:	e7ff      	b.n	10003bdc <y64_x48+0x56>
10003bdc:	e7ff      	b.n	10003bde <y64_x48+0x58>
10003bde:	46c0      	nop			; (mov r8, r8)
10003be0:	6f3c      	ldr	r4, [r7, #112]	; 0x70
10003be2:	4366      	muls	r6, r4
10003be4:	0c36      	lsrs	r6, r6, #16
10003be6:	0377      	lsls	r7, r6, #13
10003be8:	46be      	mov	lr, r7
10003bea:	b297      	uxth	r7, r2
10003bec:	4377      	muls	r7, r6
10003bee:	1bc0      	subs	r0, r0, r7
10003bf0:	d200      	bcs.n	10003bf4 <y64_x48+0x6e>
10003bf2:	3901      	subs	r1, #1
10003bf4:	1bc0      	subs	r0, r0, r7
10003bf6:	d200      	bcs.n	10003bfa <y64_x48+0x74>
10003bf8:	3901      	subs	r1, #1
10003bfa:	b29f      	uxth	r7, r3
10003bfc:	4377      	muls	r7, r6
10003bfe:	1bc9      	subs	r1, r1, r7
10003c00:	1bc9      	subs	r1, r1, r7
10003c02:	0c17      	lsrs	r7, r2, #16
10003c04:	4377      	muls	r7, r6
10003c06:	047e      	lsls	r6, r7, #17
10003c08:	0bff      	lsrs	r7, r7, #15
10003c0a:	1b80      	subs	r0, r0, r6
10003c0c:	41b9      	sbcs	r1, r7
10003c0e:	08ce      	lsrs	r6, r1, #3
10003c10:	4366      	muls	r6, r4
10003c12:	0c36      	lsrs	r6, r6, #16
10003c14:	2d0c      	cmp	r5, #12
10003c16:	db33      	blt.n	10003c80 <last1>
10003c18:	44b6      	add	lr, r6
10003c1a:	0b12      	lsrs	r2, r2, #12
10003c1c:	051f      	lsls	r7, r3, #20
10003c1e:	433a      	orrs	r2, r7
10003c20:	0b1b      	lsrs	r3, r3, #12
10003c22:	b297      	uxth	r7, r2
10003c24:	4377      	muls	r7, r6
10003c26:	1bc0      	subs	r0, r0, r7
10003c28:	d200      	bcs.n	10003c2c <y64_x48+0xa6>
10003c2a:	3901      	subs	r1, #1
10003c2c:	b29f      	uxth	r7, r3
10003c2e:	4377      	muls	r7, r6
10003c30:	1bc9      	subs	r1, r1, r7
10003c32:	0c17      	lsrs	r7, r2, #16
10003c34:	4377      	muls	r7, r6
10003c36:	043e      	lsls	r6, r7, #16
10003c38:	0c3f      	lsrs	r7, r7, #16
10003c3a:	1b80      	subs	r0, r0, r6
10003c3c:	41b9      	sbcs	r1, r7
10003c3e:	0d86      	lsrs	r6, r0, #22
10003c40:	028f      	lsls	r7, r1, #10
10003c42:	433e      	orrs	r6, r7
10003c44:	4366      	muls	r6, r4
10003c46:	2729      	movs	r7, #41	; 0x29
10003c48:	1b7f      	subs	r7, r7, r5
10003c4a:	40fe      	lsrs	r6, r7
10003c4c:	3d0c      	subs	r5, #12
10003c4e:	4677      	mov	r7, lr
10003c50:	40af      	lsls	r7, r5
10003c52:	19bf      	adds	r7, r7, r6
10003c54:	bc30      	pop	{r4, r5}
10003c56:	b2a2      	uxth	r2, r4
10003c58:	b2ab      	uxth	r3, r5
10003c5a:	4372      	muls	r2, r6
10003c5c:	4373      	muls	r3, r6
10003c5e:	1a80      	subs	r0, r0, r2
10003c60:	4199      	sbcs	r1, r3
10003c62:	0c22      	lsrs	r2, r4, #16
10003c64:	4372      	muls	r2, r6
10003c66:	0c13      	lsrs	r3, r2, #16
10003c68:	0412      	lsls	r2, r2, #16
10003c6a:	1a80      	subs	r0, r0, r2
10003c6c:	4199      	sbcs	r1, r3
10003c6e:	0002      	movs	r2, r0
10003c70:	000b      	movs	r3, r1
10003c72:	3701      	adds	r7, #1
10003c74:	1b00      	subs	r0, r0, r4
10003c76:	41a9      	sbcs	r1, r5
10003c78:	d2f9      	bcs.n	10003c6e <y64_x48+0xe8>
10003c7a:	1e78      	subs	r0, r7, #1
10003c7c:	2100      	movs	r1, #0
10003c7e:	bdf0      	pop	{r4, r5, r6, r7, pc}

10003c80 <last1>:
10003c80:	270c      	movs	r7, #12
10003c82:	1b7f      	subs	r7, r7, r5
10003c84:	40fe      	lsrs	r6, r7
10003c86:	4677      	mov	r7, lr
10003c88:	0b7f      	lsrs	r7, r7, #13
10003c8a:	40af      	lsls	r7, r5
10003c8c:	19ff      	adds	r7, r7, r7
10003c8e:	e7e0      	b.n	10003c52 <y64_x48+0xcc>

10003c90 <y64_x64>:
10003c90:	2400      	movs	r4, #0
10003c92:	1c5d      	adds	r5, r3, #1
10003c94:	d007      	beq.n	10003ca6 <y64_x64+0x16>
10003c96:	4f14      	ldr	r7, [pc, #80]	; (10003ce8 <y64_x64+0x58>)
10003c98:	667d      	str	r5, [r7, #100]	; 0x64
10003c9a:	6639      	str	r1, [r7, #96]	; 0x60
10003c9c:	e7ff      	b.n	10003c9e <y64_x64+0xe>
10003c9e:	e7ff      	b.n	10003ca0 <y64_x64+0x10>
10003ca0:	e7ff      	b.n	10003ca2 <y64_x64+0x12>
10003ca2:	e7ff      	b.n	10003ca4 <y64_x64+0x14>
10003ca4:	6f3c      	ldr	r4, [r7, #112]	; 0x70
10003ca6:	b295      	uxth	r5, r2
10003ca8:	b29e      	uxth	r6, r3
10003caa:	4365      	muls	r5, r4
10003cac:	4366      	muls	r6, r4
10003cae:	1b40      	subs	r0, r0, r5
10003cb0:	41b1      	sbcs	r1, r6
10003cb2:	0c15      	lsrs	r5, r2, #16
10003cb4:	0c1e      	lsrs	r6, r3, #16
10003cb6:	4365      	muls	r5, r4
10003cb8:	4366      	muls	r6, r4
10003cba:	0436      	lsls	r6, r6, #16
10003cbc:	0c2f      	lsrs	r7, r5, #16
10003cbe:	433e      	orrs	r6, r7
10003cc0:	042d      	lsls	r5, r5, #16
10003cc2:	1b40      	subs	r0, r0, r5
10003cc4:	41b1      	sbcs	r1, r6
10003cc6:	4299      	cmp	r1, r3
10003cc8:	d204      	bcs.n	10003cd4 <y64_x64+0x44>
10003cca:	0002      	movs	r2, r0
10003ccc:	000b      	movs	r3, r1
10003cce:	0020      	movs	r0, r4
10003cd0:	2100      	movs	r1, #0
10003cd2:	bdf0      	pop	{r4, r5, r6, r7, pc}
10003cd4:	d101      	bne.n	10003cda <y64_x64+0x4a>
10003cd6:	4290      	cmp	r0, r2
10003cd8:	d3f7      	bcc.n	10003cca <y64_x64+0x3a>
10003cda:	1a80      	subs	r0, r0, r2
10003cdc:	4199      	sbcs	r1, r3
10003cde:	3401      	adds	r4, #1
10003ce0:	4299      	cmp	r1, r3
10003ce2:	d3f2      	bcc.n	10003cca <y64_x64+0x3a>
10003ce4:	e7f6      	b.n	10003cd4 <y64_x64+0x44>
10003ce6:	0000      	.short	0x0000
10003ce8:	d0000000 	.word	0xd0000000
10003cec:	ffffffff 	.word	0xffffffff

10003cf0 <__wrap___aeabi_drsub>:
10003cf0:	4048      	eors	r0, r1
10003cf2:	4041      	eors	r1, r0
10003cf4:	4048      	eors	r0, r1

10003cf6 <__wrap___aeabi_dsub>:
10003cf6:	b418      	push	{r3, r4}
10003cf8:	4b1b      	ldr	r3, [pc, #108]	; (10003d68 <__wrap___aeabi_dmul+0x12>)
10003cfa:	685b      	ldr	r3, [r3, #4]
10003cfc:	46fc      	mov	ip, pc
10003cfe:	9301      	str	r3, [sp, #4]
10003d00:	bd08      	pop	{r3, pc}
10003d02:	df04      	.short	0xdf04
10003d04:	10003f8f 	.word	0x10003f8f

10003d08 <__wrap___aeabi_dadd>:
10003d08:	b418      	push	{r3, r4}
10003d0a:	4b17      	ldr	r3, [pc, #92]	; (10003d68 <__wrap___aeabi_dmul+0x12>)
10003d0c:	681b      	ldr	r3, [r3, #0]
10003d0e:	46fc      	mov	ip, pc
10003d10:	9301      	str	r3, [sp, #4]
10003d12:	bd08      	pop	{r3, pc}
10003d14:	3f99df00 	.word	0x3f99df00
10003d18:	1000      	.short	0x1000

10003d1a <__wrap___aeabi_ddiv>:
10003d1a:	4694      	mov	ip, r2
10003d1c:	4a13      	ldr	r2, [pc, #76]	; (10003d6c <__wrap___aeabi_dmul+0x16>)
10003d1e:	6f92      	ldr	r2, [r2, #120]	; 0x78
10003d20:	0892      	lsrs	r2, r2, #2
10003d22:	d209      	bcs.n	10003d38 <ddiv_save_state>
10003d24:	4662      	mov	r2, ip

10003d26 <ddiv_shim_call>:
10003d26:	b418      	push	{r3, r4}
10003d28:	4b0f      	ldr	r3, [pc, #60]	; (10003d68 <__wrap___aeabi_dmul+0x12>)
10003d2a:	68db      	ldr	r3, [r3, #12]
10003d2c:	46fc      	mov	ip, pc
10003d2e:	9301      	str	r3, [sp, #4]
10003d30:	bd08      	pop	{r3, pc}
10003d32:	df0c      	.short	0xdf0c
10003d34:	10004251 	.word	0x10004251

10003d38 <ddiv_save_state>:
10003d38:	4a0c      	ldr	r2, [pc, #48]	; (10003d6c <__wrap___aeabi_dmul+0x16>)
10003d3a:	b5f0      	push	{r4, r5, r6, r7, lr}
10003d3c:	6e14      	ldr	r4, [r2, #96]	; 0x60
10003d3e:	6e55      	ldr	r5, [r2, #100]	; 0x64
10003d40:	6f57      	ldr	r7, [r2, #116]	; 0x74
10003d42:	6f16      	ldr	r6, [r2, #112]	; 0x70
10003d44:	4662      	mov	r2, ip
10003d46:	f7ff ffee 	bl	10003d26 <ddiv_shim_call>
10003d4a:	4a08      	ldr	r2, [pc, #32]	; (10003d6c <__wrap___aeabi_dmul+0x16>)
10003d4c:	6614      	str	r4, [r2, #96]	; 0x60
10003d4e:	6655      	str	r5, [r2, #100]	; 0x64
10003d50:	6757      	str	r7, [r2, #116]	; 0x74
10003d52:	6716      	str	r6, [r2, #112]	; 0x70
10003d54:	bdf0      	pop	{r4, r5, r6, r7, pc}

10003d56 <__wrap___aeabi_dmul>:
10003d56:	b418      	push	{r3, r4}
10003d58:	4b03      	ldr	r3, [pc, #12]	; (10003d68 <__wrap___aeabi_dmul+0x12>)
10003d5a:	689b      	ldr	r3, [r3, #8]
10003d5c:	46fc      	mov	ip, pc
10003d5e:	9301      	str	r3, [sp, #4]
10003d60:	bd08      	pop	{r3, pc}
10003d62:	df08      	.short	0xdf08
10003d64:	100040f5 	.word	0x100040f5
10003d68:	20001068 	.word	0x20001068
10003d6c:	d0000000 	.word	0xd0000000

10003d70 <__wrap___aeabi_cdrcmple>:
10003d70:	b5ff      	push	{r0, r1, r2, r3, r4, r5, r6, r7, lr}
10003d72:	4050      	eors	r0, r2
10003d74:	4042      	eors	r2, r0
10003d76:	4050      	eors	r0, r2
10003d78:	4059      	eors	r1, r3
10003d7a:	404b      	eors	r3, r1
10003d7c:	4059      	eors	r1, r3
10003d7e:	e000      	b.n	10003d82 <__aeabi_dfcmple_guts>

10003d80 <__wrap___aeabi_cdcmpeq>:
10003d80:	b5ff      	push	{r0, r1, r2, r3, r4, r5, r6, r7, lr}

10003d82 <__aeabi_dfcmple_guts>:
10003d82:	4f15      	ldr	r7, [pc, #84]	; (10003dd8 <__aeabi_dfcmple_guts+0x56>)
10003d84:	004c      	lsls	r4, r1, #1
10003d86:	0d64      	lsrs	r4, r4, #21
10003d88:	d003      	beq.n	10003d92 <__aeabi_dfcmple_guts+0x10>
10003d8a:	42bc      	cmp	r4, r7
10003d8c:	d104      	bne.n	10003d98 <__aeabi_dfcmple_guts+0x16>
10003d8e:	030c      	lsls	r4, r1, #12
10003d90:	d814      	bhi.n	10003dbc <__aeabi_dfcmple_guts+0x3a>
10003d92:	2000      	movs	r0, #0
10003d94:	0d09      	lsrs	r1, r1, #20
10003d96:	0509      	lsls	r1, r1, #20
10003d98:	005c      	lsls	r4, r3, #1
10003d9a:	0d64      	lsrs	r4, r4, #21
10003d9c:	d003      	beq.n	10003da6 <__aeabi_dfcmple_guts+0x24>
10003d9e:	42bc      	cmp	r4, r7
10003da0:	d104      	bne.n	10003dac <__aeabi_dfcmple_guts+0x2a>
10003da2:	031c      	lsls	r4, r3, #12
10003da4:	d80a      	bhi.n	10003dbc <__aeabi_dfcmple_guts+0x3a>
10003da6:	2200      	movs	r2, #0
10003da8:	0d1b      	lsrs	r3, r3, #20
10003daa:	051b      	lsls	r3, r3, #20
10003dac:	2601      	movs	r6, #1
10003dae:	404b      	eors	r3, r1
10003db0:	d409      	bmi.n	10003dc6 <__aeabi_dfcmple_guts+0x44>
10003db2:	404b      	eors	r3, r1
10003db4:	d503      	bpl.n	10003dbe <__aeabi_dfcmple_guts+0x3c>
10003db6:	428b      	cmp	r3, r1
10003db8:	d100      	bne.n	10003dbc <__aeabi_dfcmple_guts+0x3a>
10003dba:	4282      	cmp	r2, r0
10003dbc:	bdff      	pop	{r0, r1, r2, r3, r4, r5, r6, r7, pc}
10003dbe:	4299      	cmp	r1, r3
10003dc0:	d1fc      	bne.n	10003dbc <__aeabi_dfcmple_guts+0x3a>
10003dc2:	4290      	cmp	r0, r2
10003dc4:	bdff      	pop	{r0, r1, r2, r3, r4, r5, r6, r7, pc}
10003dc6:	430b      	orrs	r3, r1
10003dc8:	18db      	adds	r3, r3, r3
10003dca:	4303      	orrs	r3, r0
10003dcc:	4313      	orrs	r3, r2
10003dce:	d0f5      	beq.n	10003dbc <__aeabi_dfcmple_guts+0x3a>
10003dd0:	43c9      	mvns	r1, r1
10003dd2:	1849      	adds	r1, r1, r1
10003dd4:	bdff      	pop	{r0, r1, r2, r3, r4, r5, r6, r7, pc}
10003dd6:	0000      	.short	0x0000
10003dd8:	000007ff 	.word	0x000007ff

10003ddc <__wrap___aeabi_dcmplt>:
10003ddc:	b500      	push	{lr}
10003dde:	f7ff ffcf 	bl	10003d80 <__wrap___aeabi_cdcmpeq>
10003de2:	4180      	sbcs	r0, r0
10003de4:	bd00      	pop	{pc}
10003de6:	46c0      	nop			; (mov r8, r8)

10003de8 <__wrap___aeabi_dcmple>:
10003de8:	b500      	push	{lr}
10003dea:	f7ff ffc9 	bl	10003d80 <__wrap___aeabi_cdcmpeq>
10003dee:	d901      	bls.n	10003df4 <__wrap___aeabi_dcmple+0xc>
10003df0:	2000      	movs	r0, #0
10003df2:	bd00      	pop	{pc}
10003df4:	2001      	movs	r0, #1
10003df6:	bd00      	pop	{pc}

10003df8 <__wrap___aeabi_dcmpge>:
10003df8:	b500      	push	{lr}
10003dfa:	f7ff ffb9 	bl	10003d70 <__wrap___aeabi_cdrcmple>
10003dfe:	d901      	bls.n	10003e04 <__wrap___aeabi_dcmpge+0xc>
10003e00:	2000      	movs	r0, #0
10003e02:	bd00      	pop	{pc}
10003e04:	2001      	movs	r0, #1
10003e06:	bd00      	pop	{pc}

10003e08 <__wrap___aeabi_dcmpgt>:
10003e08:	b500      	push	{lr}
10003e0a:	f7ff ffb1 	bl	10003d70 <__wrap___aeabi_cdrcmple>
10003e0e:	4180      	sbcs	r0, r0
10003e10:	bd00      	pop	{pc}

10003e12 <__wrap___aeabi_dcmpun>:
10003e12:	2001      	movs	r0, #1
10003e14:	0540      	lsls	r0, r0, #21
10003e16:	004a      	lsls	r2, r1, #1
10003e18:	1812      	adds	r2, r2, r0
10003e1a:	d804      	bhi.n	10003e26 <__wrap___aeabi_dcmpun+0x14>
10003e1c:	005a      	lsls	r2, r3, #1
10003e1e:	1812      	adds	r2, r2, r0
10003e20:	d801      	bhi.n	10003e26 <__wrap___aeabi_dcmpun+0x14>
10003e22:	2000      	movs	r0, #0
10003e24:	4770      	bx	lr
10003e26:	2001      	movs	r0, #1
10003e28:	4770      	bx	lr
10003e2a:	2000      	movs	r0, #0
10003e2c:	4770      	bx	lr
	...

10003e30 <__wrap___aeabi_ui2d>:
10003e30:	2100      	movs	r1, #0
10003e32:	2800      	cmp	r0, #0
10003e34:	d105      	bne.n	10003e42 <__wrap___aeabi_i2d+0xa>
10003e36:	4770      	bx	lr

10003e38 <__wrap___aeabi_i2d>:
10003e38:	17c1      	asrs	r1, r0, #31
10003e3a:	4048      	eors	r0, r1
10003e3c:	1a40      	subs	r0, r0, r1
10003e3e:	d0fa      	beq.n	10003e36 <__wrap___aeabi_ui2d+0x6>
10003e40:	07c9      	lsls	r1, r1, #31
10003e42:	b513      	push	{r0, r1, r4, lr}
10003e44:	4b06      	ldr	r3, [pc, #24]	; (10003e60 <__wrap___aeabi_i2d+0x28>)
10003e46:	681b      	ldr	r3, [r3, #0]
10003e48:	4798      	blx	r3
10003e4a:	bc0c      	pop	{r2, r3}
10003e4c:	1c44      	adds	r4, r0, #1
10003e4e:	40a2      	lsls	r2, r4
10003e50:	0510      	lsls	r0, r2, #20
10003e52:	0b12      	lsrs	r2, r2, #12
10003e54:	4903      	ldr	r1, [pc, #12]	; (10003e64 <__wrap___aeabi_i2d+0x2c>)
10003e56:	1b09      	subs	r1, r1, r4
10003e58:	0509      	lsls	r1, r1, #20
10003e5a:	4319      	orrs	r1, r3
10003e5c:	4311      	orrs	r1, r2
10003e5e:	bd10      	pop	{r4, pc}
10003e60:	20001dec 	.word	0x20001dec
10003e64:	0000041f 	.word	0x0000041f

10003e68 <__wrap___aeabi_d2iz>:
10003e68:	b510      	push	{r4, lr}
10003e6a:	004c      	lsls	r4, r1, #1
10003e6c:	0d62      	lsrs	r2, r4, #21
10003e6e:	2380      	movs	r3, #128	; 0x80
10003e70:	18d2      	adds	r2, r2, r3
10003e72:	00db      	lsls	r3, r3, #3
10003e74:	1ad2      	subs	r2, r2, r3
10003e76:	055b      	lsls	r3, r3, #21
10003e78:	2a7e      	cmp	r2, #126	; 0x7e
10003e7a:	dd10      	ble.n	10003e9e <__wrap___aeabi_d2iz+0x36>
10003e7c:	3a9e      	subs	r2, #158	; 0x9e
10003e7e:	da13      	bge.n	10003ea8 <__wrap___aeabi_d2iz+0x40>
10003e80:	17cc      	asrs	r4, r1, #31
10003e82:	0309      	lsls	r1, r1, #12
10003e84:	0849      	lsrs	r1, r1, #1
10003e86:	4319      	orrs	r1, r3
10003e88:	4252      	negs	r2, r2
10003e8a:	40d1      	lsrs	r1, r2
10003e8c:	0064      	lsls	r4, r4, #1
10003e8e:	3401      	adds	r4, #1
10003e90:	3215      	adds	r2, #21
10003e92:	2a20      	cmp	r2, #32
10003e94:	da05      	bge.n	10003ea2 <__wrap___aeabi_d2iz+0x3a>
10003e96:	40d0      	lsrs	r0, r2
10003e98:	4308      	orrs	r0, r1
10003e9a:	4360      	muls	r0, r4
10003e9c:	bd10      	pop	{r4, pc}
10003e9e:	2000      	movs	r0, #0
10003ea0:	bd10      	pop	{r4, pc}
10003ea2:	4608      	mov	r0, r1
10003ea4:	4360      	muls	r0, r4
10003ea6:	bd10      	pop	{r4, pc}
10003ea8:	0fc8      	lsrs	r0, r1, #31
10003eaa:	18c0      	adds	r0, r0, r3
10003eac:	3801      	subs	r0, #1
10003eae:	bd10      	pop	{r4, pc}

10003eb0 <__wrap___aeabi_d2uiz>:
10003eb0:	b418      	push	{r3, r4}
10003eb2:	4b04      	ldr	r3, [pc, #16]	; (10003ec4 <__wrap___aeabi_d2uiz+0x14>)
10003eb4:	6a5b      	ldr	r3, [r3, #36]	; 0x24
10003eb6:	46fc      	mov	ip, pc
10003eb8:	9301      	str	r3, [sp, #4]
10003eba:	bd08      	pop	{r3, pc}
10003ebc:	4401df24 	.word	0x4401df24
10003ec0:	00001000 	.word	0x00001000
10003ec4:	20001068 	.word	0x20001068

10003ec8 <__aeabi_double_init>:
10003ec8:	2313      	movs	r3, #19
10003eca:	b570      	push	{r4, r5, r6, lr}
10003ecc:	781d      	ldrb	r5, [r3, #0]
10003ece:	2d01      	cmp	r5, #1
10003ed0:	d015      	beq.n	10003efe <__aeabi_double_init+0x36>
10003ed2:	dd10      	ble.n	10003ef6 <__aeabi_double_init+0x2e>
10003ed4:	481c      	ldr	r0, [pc, #112]	; (10003f48 <__aeabi_double_init+0x80>)
10003ed6:	f7ff fc81 	bl	100037dc <rom_data_lookup>
10003eda:	4c1c      	ldr	r4, [pc, #112]	; (10003f4c <__aeabi_double_init+0x84>)
10003edc:	0001      	movs	r1, r0
10003ede:	2280      	movs	r2, #128	; 0x80
10003ee0:	0020      	movs	r0, r4
10003ee2:	f000 fb5b 	bl	1000459c <__wrap___aeabi_memcpy>
10003ee6:	2d02      	cmp	r5, #2
10003ee8:	d006      	beq.n	10003ef8 <__aeabi_double_init+0x30>
10003eea:	4819      	ldr	r0, [pc, #100]	; (10003f50 <__aeabi_double_init+0x88>)
10003eec:	f7ff fc6e 	bl	100037cc <rom_func_lookup>
10003ef0:	4b18      	ldr	r3, [pc, #96]	; (10003f54 <__aeabi_double_init+0x8c>)
10003ef2:	6018      	str	r0, [r3, #0]
10003ef4:	bd70      	pop	{r4, r5, r6, pc}
10003ef6:	4c15      	ldr	r4, [pc, #84]	; (10003f4c <__aeabi_double_init+0x84>)
10003ef8:	4b17      	ldr	r3, [pc, #92]	; (10003f58 <__aeabi_double_init+0x90>)
10003efa:	64a3      	str	r3, [r4, #72]	; 0x48
10003efc:	e7f5      	b.n	10003eea <__aeabi_double_init+0x22>
10003efe:	4b16      	ldr	r3, [pc, #88]	; (10003f58 <__aeabi_double_init+0x90>)
10003f00:	4c12      	ldr	r4, [pc, #72]	; (10003f4c <__aeabi_double_init+0x84>)
10003f02:	6023      	str	r3, [r4, #0]
10003f04:	6063      	str	r3, [r4, #4]
10003f06:	60a3      	str	r3, [r4, #8]
10003f08:	60e3      	str	r3, [r4, #12]
10003f0a:	6123      	str	r3, [r4, #16]
10003f0c:	6163      	str	r3, [r4, #20]
10003f0e:	61a3      	str	r3, [r4, #24]
10003f10:	61e3      	str	r3, [r4, #28]
10003f12:	6223      	str	r3, [r4, #32]
10003f14:	6263      	str	r3, [r4, #36]	; 0x24
10003f16:	62a3      	str	r3, [r4, #40]	; 0x28
10003f18:	62e3      	str	r3, [r4, #44]	; 0x2c
10003f1a:	6323      	str	r3, [r4, #48]	; 0x30
10003f1c:	6363      	str	r3, [r4, #52]	; 0x34
10003f1e:	63a3      	str	r3, [r4, #56]	; 0x38
10003f20:	63e3      	str	r3, [r4, #60]	; 0x3c
10003f22:	6423      	str	r3, [r4, #64]	; 0x40
10003f24:	6463      	str	r3, [r4, #68]	; 0x44
10003f26:	64a3      	str	r3, [r4, #72]	; 0x48
10003f28:	64e3      	str	r3, [r4, #76]	; 0x4c
10003f2a:	6523      	str	r3, [r4, #80]	; 0x50
10003f2c:	6563      	str	r3, [r4, #84]	; 0x54
10003f2e:	65a3      	str	r3, [r4, #88]	; 0x58
10003f30:	65e3      	str	r3, [r4, #92]	; 0x5c
10003f32:	6623      	str	r3, [r4, #96]	; 0x60
10003f34:	6663      	str	r3, [r4, #100]	; 0x64
10003f36:	66a3      	str	r3, [r4, #104]	; 0x68
10003f38:	66e3      	str	r3, [r4, #108]	; 0x6c
10003f3a:	6723      	str	r3, [r4, #112]	; 0x70
10003f3c:	6763      	str	r3, [r4, #116]	; 0x74
10003f3e:	67a3      	str	r3, [r4, #120]	; 0x78
10003f40:	67e3      	str	r3, [r4, #124]	; 0x7c
10003f42:	64a3      	str	r3, [r4, #72]	; 0x48
10003f44:	e7d1      	b.n	10003eea <__aeabi_double_init+0x22>
10003f46:	46c0      	nop			; (mov r8, r8)
10003f48:	00004453 	.word	0x00004453
10003f4c:	20001068 	.word	0x20001068
10003f50:	0000334c 	.word	0x0000334c
10003f54:	20001dec 	.word	0x20001dec
10003f58:	10003f5d 	.word	0x10003f5d

10003f5c <double_table_shim_on_use_helper>:
10003f5c:	b507      	push	{r0, r1, r2, lr}
10003f5e:	4660      	mov	r0, ip
10003f60:	8801      	ldrh	r1, [r0, #0]
10003f62:	0a0a      	lsrs	r2, r1, #8
10003f64:	3002      	adds	r0, #2
10003f66:	2adf      	cmp	r2, #223	; 0xdf
10003f68:	d1fa      	bne.n	10003f60 <double_table_shim_on_use_helper+0x4>
10003f6a:	b2c9      	uxtb	r1, r1
10003f6c:	0882      	lsrs	r2, r0, #2
10003f6e:	d304      	bcc.n	10003f7a <double_table_shim_on_use_helper+0x1e>
10003f70:	8802      	ldrh	r2, [r0, #0]
10003f72:	8840      	ldrh	r0, [r0, #2]
10003f74:	0400      	lsls	r0, r0, #16
10003f76:	4310      	orrs	r0, r2
10003f78:	e000      	b.n	10003f7c <double_table_shim_on_use_helper+0x20>
10003f7a:	6800      	ldr	r0, [r0, #0]
10003f7c:	4a01      	ldr	r2, [pc, #4]	; (10003f84 <double_table_shim_on_use_helper+0x28>)
10003f7e:	5050      	str	r0, [r2, r1]
10003f80:	9003      	str	r0, [sp, #12]
10003f82:	bd07      	pop	{r0, r1, r2, pc}
10003f84:	20001068 	.word	0x20001068

10003f88 <drsub_shim>:
10003f88:	b40f      	push	{r0, r1, r2, r3}
10003f8a:	bc03      	pop	{r0, r1}
10003f8c:	bc0c      	pop	{r2, r3}

10003f8e <dsub_shim>:
10003f8e:	b5f0      	push	{r4, r5, r6, r7, lr}
10003f90:	2401      	movs	r4, #1
10003f92:	07e4      	lsls	r4, r4, #31
10003f94:	4063      	eors	r3, r4
10003f96:	e000      	b.n	10003f9a <da_entry>

10003f98 <dadd_shim>:
10003f98:	b5f0      	push	{r4, r5, r6, r7, lr}

10003f9a <da_entry>:
10003f9a:	0d0c      	lsrs	r4, r1, #20
10003f9c:	0fcf      	lsrs	r7, r1, #31
10003f9e:	1e66      	subs	r6, r4, #1
10003fa0:	0536      	lsls	r6, r6, #20
10003fa2:	1b89      	subs	r1, r1, r6
10003fa4:	0564      	lsls	r4, r4, #21
10003fa6:	d303      	bcc.n	10003fb0 <l7_1>
10003fa8:	43c9      	mvns	r1, r1
10003faa:	4240      	negs	r0, r0
10003fac:	d300      	bcc.n	10003fb0 <l7_1>
10003fae:	3101      	adds	r1, #1

10003fb0 <l7_1>:
10003fb0:	0d64      	lsrs	r4, r4, #21
10003fb2:	d003      	beq.n	10003fbc <l7_2>
10003fb4:	1c66      	adds	r6, r4, #1
10003fb6:	0af6      	lsrs	r6, r6, #11
10003fb8:	d007      	beq.n	10003fca <l7_3>
10003fba:	1be4      	subs	r4, r4, r7

10003fbc <l7_2>:
10003fbc:	2000      	movs	r0, #0
10003fbe:	007f      	lsls	r7, r7, #1
10003fc0:	1c79      	adds	r1, r7, #1
10003fc2:	0789      	lsls	r1, r1, #30
10003fc4:	1289      	asrs	r1, r1, #10
10003fc6:	3c80      	subs	r4, #128	; 0x80
10003fc8:	0324      	lsls	r4, r4, #12

10003fca <l7_3>:
10003fca:	0d1d      	lsrs	r5, r3, #20
10003fcc:	0fdf      	lsrs	r7, r3, #31
10003fce:	1e6e      	subs	r6, r5, #1
10003fd0:	0536      	lsls	r6, r6, #20
10003fd2:	1b9b      	subs	r3, r3, r6
10003fd4:	056d      	lsls	r5, r5, #21
10003fd6:	d303      	bcc.n	10003fe0 <l8_1>
10003fd8:	43db      	mvns	r3, r3
10003fda:	4252      	negs	r2, r2
10003fdc:	d300      	bcc.n	10003fe0 <l8_1>
10003fde:	3301      	adds	r3, #1

10003fe0 <l8_1>:
10003fe0:	0d6d      	lsrs	r5, r5, #21
10003fe2:	d003      	beq.n	10003fec <l8_2>
10003fe4:	1c6e      	adds	r6, r5, #1
10003fe6:	0af6      	lsrs	r6, r6, #11
10003fe8:	d007      	beq.n	10003ffa <l8_3>
10003fea:	1bed      	subs	r5, r5, r7

10003fec <l8_2>:
10003fec:	2200      	movs	r2, #0
10003fee:	007f      	lsls	r7, r7, #1
10003ff0:	1c7b      	adds	r3, r7, #1
10003ff2:	079b      	lsls	r3, r3, #30
10003ff4:	129b      	asrs	r3, r3, #10
10003ff6:	3d80      	subs	r5, #128	; 0x80
10003ff8:	032d      	lsls	r5, r5, #12

10003ffa <l8_3>:
10003ffa:	1b2f      	subs	r7, r5, r4
10003ffc:	1b66      	subs	r6, r4, r5
10003ffe:	d458      	bmi.n	100040b2 <da_ygtx>
10004000:	46a4      	mov	ip, r4
10004002:	2e20      	cmp	r6, #32
10004004:	da46      	bge.n	10004094 <da_xrgty>
10004006:	3720      	adds	r7, #32
10004008:	0014      	movs	r4, r2
1000400a:	40bc      	lsls	r4, r7

1000400c <da_xgty0>:
1000400c:	001d      	movs	r5, r3
1000400e:	40bd      	lsls	r5, r7
10004010:	40f2      	lsrs	r2, r6
10004012:	4133      	asrs	r3, r6
10004014:	432a      	orrs	r2, r5

10004016 <da_add>:
10004016:	1880      	adds	r0, r0, r2
10004018:	4159      	adcs	r1, r3

1000401a <da_pack>:
1000401a:	0fcb      	lsrs	r3, r1, #31
1000401c:	d005      	beq.n	1000402a <da_pack+0x10>
1000401e:	43c9      	mvns	r1, r1
10004020:	43c0      	mvns	r0, r0
10004022:	2200      	movs	r2, #0
10004024:	4264      	negs	r4, r4
10004026:	4150      	adcs	r0, r2
10004028:	4151      	adcs	r1, r2
1000402a:	4662      	mov	r2, ip
1000402c:	0d4d      	lsrs	r5, r1, #21
1000402e:	d128      	bne.n	10004082 <da_0>
10004030:	0d0d      	lsrs	r5, r1, #20
10004032:	d107      	bne.n	10004044 <da_1>
10004034:	2800      	cmp	r0, #0
10004036:	d01f      	beq.n	10004078 <da_5>

10004038 <da_2>:
10004038:	1924      	adds	r4, r4, r4
1000403a:	4140      	adcs	r0, r0
1000403c:	4149      	adcs	r1, r1
1000403e:	3a01      	subs	r2, #1
10004040:	0d0d      	lsrs	r5, r1, #20
10004042:	d0f9      	beq.n	10004038 <da_2>

10004044 <da_1>:
10004044:	0064      	lsls	r4, r4, #1
10004046:	d306      	bcc.n	10004056 <da_3>

10004048 <da_4>:
10004048:	3001      	adds	r0, #1
1000404a:	d300      	bcc.n	1000404e <da_4+0x6>
1000404c:	3101      	adds	r1, #1
1000404e:	2c00      	cmp	r4, #0
10004050:	d101      	bne.n	10004056 <da_3>
10004052:	0840      	lsrs	r0, r0, #1
10004054:	0040      	lsls	r0, r0, #1

10004056 <da_3>:
10004056:	3a01      	subs	r2, #1
10004058:	d40b      	bmi.n	10004072 <da_6>
1000405a:	1c94      	adds	r4, r2, #2
1000405c:	0ae4      	lsrs	r4, r4, #11
1000405e:	d104      	bne.n	1000406a <da_7>
10004060:	0512      	lsls	r2, r2, #20
10004062:	4411      	add	r1, r2
10004064:	07db      	lsls	r3, r3, #31
10004066:	4419      	add	r1, r3
10004068:	bdf0      	pop	{r4, r5, r6, r7, pc}

1000406a <da_7>:
1000406a:	07d9      	lsls	r1, r3, #31
1000406c:	4b20      	ldr	r3, [pc, #128]	; (100040f0 <da_xmgty+0x4>)
1000406e:	4319      	orrs	r1, r3
10004070:	e000      	b.n	10004074 <da_6+0x2>

10004072 <da_6>:
10004072:	07d9      	lsls	r1, r3, #31
10004074:	2000      	movs	r0, #0
10004076:	bdf0      	pop	{r4, r5, r6, r7, pc}

10004078 <da_5>:
10004078:	2900      	cmp	r1, #0
1000407a:	d1dd      	bne.n	10004038 <da_2>
1000407c:	2c00      	cmp	r4, #0
1000407e:	d1db      	bne.n	10004038 <da_2>
10004080:	bdf0      	pop	{r4, r5, r6, r7, pc}

10004082 <da_0>:
10004082:	3201      	adds	r2, #1
10004084:	07c6      	lsls	r6, r0, #31
10004086:	0840      	lsrs	r0, r0, #1
10004088:	07cd      	lsls	r5, r1, #31
1000408a:	4328      	orrs	r0, r5
1000408c:	0849      	lsrs	r1, r1, #1
1000408e:	2e00      	cmp	r6, #0
10004090:	d0e1      	beq.n	10004056 <da_3>
10004092:	e7d9      	b.n	10004048 <da_4>

10004094 <da_xrgty>:
10004094:	2e3c      	cmp	r6, #60	; 0x3c
10004096:	da29      	bge.n	100040ec <da_xmgty>
10004098:	3e20      	subs	r6, #32
1000409a:	3740      	adds	r7, #64	; 0x40
1000409c:	0014      	movs	r4, r2
1000409e:	40bc      	lsls	r4, r7
100040a0:	d000      	beq.n	100040a4 <da_xrgty+0x10>
100040a2:	2401      	movs	r4, #1
100040a4:	40f2      	lsrs	r2, r6
100040a6:	4314      	orrs	r4, r2
100040a8:	001a      	movs	r2, r3
100040aa:	40bb      	lsls	r3, r7
100040ac:	431c      	orrs	r4, r3
100040ae:	17d3      	asrs	r3, r2, #31
100040b0:	e7ac      	b.n	1000400c <da_xgty0>

100040b2 <da_ygtx>:
100040b2:	46ac      	mov	ip, r5
100040b4:	2f20      	cmp	r7, #32
100040b6:	da08      	bge.n	100040ca <da_yrgtx>
100040b8:	3620      	adds	r6, #32
100040ba:	0004      	movs	r4, r0
100040bc:	40b4      	lsls	r4, r6

100040be <da_ygtx0>:
100040be:	000d      	movs	r5, r1
100040c0:	40b5      	lsls	r5, r6
100040c2:	40f8      	lsrs	r0, r7
100040c4:	4139      	asrs	r1, r7
100040c6:	4328      	orrs	r0, r5
100040c8:	e7a5      	b.n	10004016 <da_add>

100040ca <da_yrgtx>:
100040ca:	2f3c      	cmp	r7, #60	; 0x3c
100040cc:	da0c      	bge.n	100040e8 <da_ymgtx>
100040ce:	3f20      	subs	r7, #32
100040d0:	3640      	adds	r6, #64	; 0x40
100040d2:	0004      	movs	r4, r0
100040d4:	40b4      	lsls	r4, r6
100040d6:	d000      	beq.n	100040da <da_yrgtx+0x10>
100040d8:	2401      	movs	r4, #1
100040da:	40f8      	lsrs	r0, r7
100040dc:	4304      	orrs	r4, r0
100040de:	0008      	movs	r0, r1
100040e0:	40b1      	lsls	r1, r6
100040e2:	430c      	orrs	r4, r1
100040e4:	17c1      	asrs	r1, r0, #31
100040e6:	e7ea      	b.n	100040be <da_ygtx0>

100040e8 <da_ymgtx>:
100040e8:	0010      	movs	r0, r2
100040ea:	0019      	movs	r1, r3

100040ec <da_xmgty>:
100040ec:	2400      	movs	r4, #0
100040ee:	e794      	b.n	1000401a <da_pack>
100040f0:	7ff00000 	.word	0x7ff00000

100040f4 <dmul_shim>:
100040f4:	b5f0      	push	{r4, r5, r6, r7, lr}
100040f6:	0d0c      	lsrs	r4, r1, #20
100040f8:	1e66      	subs	r6, r4, #1
100040fa:	0536      	lsls	r6, r6, #20
100040fc:	1b89      	subs	r1, r1, r6
100040fe:	0ae6      	lsrs	r6, r4, #11
10004100:	0564      	lsls	r4, r4, #21
10004102:	0d64      	lsrs	r4, r4, #21
10004104:	d002      	beq.n	1000410c <l11_1>
10004106:	1c65      	adds	r5, r4, #1
10004108:	0aed      	lsrs	r5, r5, #11
1000410a:	d004      	beq.n	10004116 <l11_2>

1000410c <l11_1>:
1000410c:	2000      	movs	r0, #0
1000410e:	2101      	movs	r1, #1
10004110:	0509      	lsls	r1, r1, #20
10004112:	3c80      	subs	r4, #128	; 0x80
10004114:	0324      	lsls	r4, r4, #12

10004116 <l11_2>:
10004116:	46a4      	mov	ip, r4
10004118:	0d1c      	lsrs	r4, r3, #20
1000411a:	1e67      	subs	r7, r4, #1
1000411c:	053f      	lsls	r7, r7, #20
1000411e:	1bdb      	subs	r3, r3, r7
10004120:	0ae7      	lsrs	r7, r4, #11
10004122:	0564      	lsls	r4, r4, #21
10004124:	0d64      	lsrs	r4, r4, #21
10004126:	d002      	beq.n	1000412e <l12_1>
10004128:	1c65      	adds	r5, r4, #1
1000412a:	0aed      	lsrs	r5, r5, #11
1000412c:	d004      	beq.n	10004138 <l12_2>

1000412e <l12_1>:
1000412e:	2200      	movs	r2, #0
10004130:	2301      	movs	r3, #1
10004132:	051b      	lsls	r3, r3, #20
10004134:	3c80      	subs	r4, #128	; 0x80
10004136:	0324      	lsls	r4, r4, #12

10004138 <l12_2>:
10004138:	4077      	eors	r7, r6
1000413a:	4464      	add	r4, ip
1000413c:	b497      	push	{r0, r1, r2, r4, r7}
1000413e:	b284      	uxth	r4, r0
10004140:	b296      	uxth	r6, r2
10004142:	4374      	muls	r4, r6
10004144:	0c07      	lsrs	r7, r0, #16
10004146:	437e      	muls	r6, r7
10004148:	0c15      	lsrs	r5, r2, #16
1000414a:	436f      	muls	r7, r5
1000414c:	b280      	uxth	r0, r0
1000414e:	4368      	muls	r0, r5
10004150:	1836      	adds	r6, r6, r0
10004152:	d302      	bcc.n	1000415a <l13_1>
10004154:	2001      	movs	r0, #1
10004156:	0400      	lsls	r0, r0, #16
10004158:	183f      	adds	r7, r7, r0

1000415a <l13_1>:
1000415a:	0430      	lsls	r0, r6, #16
1000415c:	0c35      	lsrs	r5, r6, #16
1000415e:	1900      	adds	r0, r0, r4
10004160:	417d      	adcs	r5, r7
10004162:	4684      	mov	ip, r0
10004164:	b288      	uxth	r0, r1
10004166:	b29a      	uxth	r2, r3
10004168:	4350      	muls	r0, r2
1000416a:	0c0c      	lsrs	r4, r1, #16
1000416c:	4362      	muls	r2, r4
1000416e:	0c1f      	lsrs	r7, r3, #16
10004170:	437c      	muls	r4, r7
10004172:	b28e      	uxth	r6, r1
10004174:	437e      	muls	r6, r7
10004176:	1992      	adds	r2, r2, r6
10004178:	d302      	bcc.n	10004180 <l14_1>
1000417a:	2601      	movs	r6, #1
1000417c:	0436      	lsls	r6, r6, #16
1000417e:	19a4      	adds	r4, r4, r6

10004180 <l14_1>:
10004180:	0416      	lsls	r6, r2, #16
10004182:	0c17      	lsrs	r7, r2, #16
10004184:	1836      	adds	r6, r6, r0
10004186:	4167      	adcs	r7, r4
10004188:	bc01      	pop	{r0}
1000418a:	b281      	uxth	r1, r0
1000418c:	b29a      	uxth	r2, r3
1000418e:	4351      	muls	r1, r2
10004190:	0c04      	lsrs	r4, r0, #16
10004192:	4362      	muls	r2, r4
10004194:	0c1b      	lsrs	r3, r3, #16
10004196:	435c      	muls	r4, r3
10004198:	b280      	uxth	r0, r0
1000419a:	4358      	muls	r0, r3
1000419c:	1812      	adds	r2, r2, r0
1000419e:	d302      	bcc.n	100041a6 <l15_1>
100041a0:	2001      	movs	r0, #1
100041a2:	0400      	lsls	r0, r0, #16
100041a4:	1824      	adds	r4, r4, r0

100041a6 <l15_1>:
100041a6:	0410      	lsls	r0, r2, #16
100041a8:	0c13      	lsrs	r3, r2, #16
100041aa:	1840      	adds	r0, r0, r1
100041ac:	4163      	adcs	r3, r4
100041ae:	182d      	adds	r5, r5, r0
100041b0:	415e      	adcs	r6, r3
100041b2:	2000      	movs	r0, #0
100041b4:	4147      	adcs	r7, r0
100041b6:	bc06      	pop	{r1, r2}
100041b8:	b288      	uxth	r0, r1
100041ba:	b293      	uxth	r3, r2
100041bc:	4358      	muls	r0, r3
100041be:	0c0c      	lsrs	r4, r1, #16
100041c0:	4363      	muls	r3, r4
100041c2:	0c12      	lsrs	r2, r2, #16
100041c4:	4354      	muls	r4, r2
100041c6:	b289      	uxth	r1, r1
100041c8:	4351      	muls	r1, r2
100041ca:	185b      	adds	r3, r3, r1
100041cc:	d302      	bcc.n	100041d4 <l16_1>
100041ce:	2101      	movs	r1, #1
100041d0:	0409      	lsls	r1, r1, #16
100041d2:	1864      	adds	r4, r4, r1

100041d4 <l16_1>:
100041d4:	0419      	lsls	r1, r3, #16
100041d6:	0c1a      	lsrs	r2, r3, #16
100041d8:	1809      	adds	r1, r1, r0
100041da:	4162      	adcs	r2, r4
100041dc:	186d      	adds	r5, r5, r1
100041de:	4156      	adcs	r6, r2
100041e0:	2000      	movs	r0, #0
100041e2:	4147      	adcs	r7, r0
100041e4:	bc18      	pop	{r3, r4}
100041e6:	02f9      	lsls	r1, r7, #11
100041e8:	0d72      	lsrs	r2, r6, #21
100041ea:	4311      	orrs	r1, r2
100041ec:	02f0      	lsls	r0, r6, #11
100041ee:	0d6a      	lsrs	r2, r5, #21
100041f0:	4310      	orrs	r0, r2
100041f2:	02ed      	lsls	r5, r5, #11
100041f4:	0d0a      	lsrs	r2, r1, #20
100041f6:	d103      	bne.n	10004200 <l16_1+0x2c>
100041f8:	196d      	adds	r5, r5, r5
100041fa:	4140      	adcs	r0, r0
100041fc:	4149      	adcs	r1, r1
100041fe:	3b01      	subs	r3, #1
10004200:	4e12      	ldr	r6, [pc, #72]	; (1000424c <dm_1+0xa>)
10004202:	1b9b      	subs	r3, r3, r6
10004204:	0076      	lsls	r6, r6, #1
10004206:	42b3      	cmp	r3, r6
10004208:	d20e      	bcs.n	10004228 <dm_0>
1000420a:	006d      	lsls	r5, r5, #1
1000420c:	d307      	bcc.n	1000421e <l16_1+0x4a>
1000420e:	3001      	adds	r0, #1
10004210:	2600      	movs	r6, #0
10004212:	4171      	adcs	r1, r6
10004214:	4666      	mov	r6, ip
10004216:	4335      	orrs	r5, r6
10004218:	d101      	bne.n	1000421e <l16_1+0x4a>
1000421a:	0840      	lsrs	r0, r0, #1
1000421c:	0040      	lsls	r0, r0, #1
1000421e:	051b      	lsls	r3, r3, #20
10004220:	18c9      	adds	r1, r1, r3

10004222 <dm_2>:
10004222:	07e4      	lsls	r4, r4, #31
10004224:	4421      	add	r1, r4
10004226:	bdf0      	pop	{r4, r5, r6, r7, pc}

10004228 <dm_0>:
10004228:	da0b      	bge.n	10004242 <dm_1>
1000422a:	3301      	adds	r3, #1
1000422c:	d106      	bne.n	1000423c <dm_0+0x14>
1000422e:	3001      	adds	r0, #1
10004230:	d104      	bne.n	1000423c <dm_0+0x14>
10004232:	3101      	adds	r1, #1
10004234:	0d4f      	lsrs	r7, r1, #21
10004236:	d001      	beq.n	1000423c <dm_0+0x14>
10004238:	0849      	lsrs	r1, r1, #1
1000423a:	e7f2      	b.n	10004222 <dm_2>
1000423c:	07e1      	lsls	r1, r4, #31
1000423e:	2000      	movs	r0, #0
10004240:	bdf0      	pop	{r4, r5, r6, r7, pc}

10004242 <dm_1>:
10004242:	3601      	adds	r6, #1
10004244:	0531      	lsls	r1, r6, #20
10004246:	2000      	movs	r0, #0
10004248:	e7eb      	b.n	10004222 <dm_2>
1000424a:	0000      	.short	0x0000
1000424c:	000003ff 	.word	0x000003ff

10004250 <ddiv_shim>:
10004250:	b5f0      	push	{r4, r5, r6, r7, lr}

10004252 <ddiv0>:
10004252:	0d1c      	lsrs	r4, r3, #20
10004254:	1e67      	subs	r7, r4, #1
10004256:	053f      	lsls	r7, r7, #20
10004258:	1bdb      	subs	r3, r3, r7
1000425a:	0ae7      	lsrs	r7, r4, #11
1000425c:	0564      	lsls	r4, r4, #21
1000425e:	0d64      	lsrs	r4, r4, #21
10004260:	d002      	beq.n	10004268 <l19_1>
10004262:	1c66      	adds	r6, r4, #1
10004264:	0af6      	lsrs	r6, r6, #11
10004266:	d004      	beq.n	10004272 <l19_2>

10004268 <l19_1>:
10004268:	2200      	movs	r2, #0
1000426a:	2301      	movs	r3, #1
1000426c:	051b      	lsls	r3, r3, #20
1000426e:	3c80      	subs	r4, #128	; 0x80
10004270:	0324      	lsls	r4, r4, #12

10004272 <l19_2>:
10004272:	25d0      	movs	r5, #208	; 0xd0
10004274:	062d      	lsls	r5, r5, #24
10004276:	2600      	movs	r6, #0
10004278:	43f6      	mvns	r6, r6
1000427a:	662e      	str	r6, [r5, #96]	; 0x60
1000427c:	091e      	lsrs	r6, r3, #4
1000427e:	666e      	str	r6, [r5, #100]	; 0x64
10004280:	0fce      	lsrs	r6, r1, #31
10004282:	19f6      	adds	r6, r6, r7
10004284:	46b4      	mov	ip, r6
10004286:	0049      	lsls	r1, r1, #1
10004288:	0d4f      	lsrs	r7, r1, #21
1000428a:	d002      	beq.n	10004292 <l19_2+0x20>
1000428c:	1c7e      	adds	r6, r7, #1
1000428e:	0af6      	lsrs	r6, r6, #11
10004290:	d003      	beq.n	1000429a <l19_2+0x28>
10004292:	2000      	movs	r0, #0
10004294:	2100      	movs	r1, #0
10004296:	3f40      	subs	r7, #64	; 0x40
10004298:	033f      	lsls	r7, r7, #12
1000429a:	1b3e      	subs	r6, r7, r4
1000429c:	00b6      	lsls	r6, r6, #2
1000429e:	44b4      	add	ip, r6
100042a0:	3f01      	subs	r7, #1
100042a2:	057f      	lsls	r7, r7, #21
100042a4:	1bc9      	subs	r1, r1, r7
100042a6:	0849      	lsrs	r1, r1, #1
100042a8:	6f2e      	ldr	r6, [r5, #112]	; 0x70
100042aa:	3601      	adds	r6, #1
100042ac:	0876      	lsrs	r6, r6, #1
100042ae:	029c      	lsls	r4, r3, #10
100042b0:	0d95      	lsrs	r5, r2, #22
100042b2:	4325      	orrs	r5, r4
100042b4:	4375      	muls	r5, r6
100042b6:	13ed      	asrs	r5, r5, #15
100042b8:	4375      	muls	r5, r6
100042ba:	13ad      	asrs	r5, r5, #14
100042bc:	3501      	adds	r5, #1
100042be:	106d      	asrs	r5, r5, #1
100042c0:	03f6      	lsls	r6, r6, #15
100042c2:	1b76      	subs	r6, r6, r5
100042c4:	b40c      	push	{r2, r3}
100042c6:	02cc      	lsls	r4, r1, #11
100042c8:	0d45      	lsrs	r5, r0, #21
100042ca:	432c      	orrs	r4, r5
100042cc:	b2a2      	uxth	r2, r4
100042ce:	b2b3      	uxth	r3, r6
100042d0:	435a      	muls	r2, r3
100042d2:	0c27      	lsrs	r7, r4, #16
100042d4:	437b      	muls	r3, r7
100042d6:	0c35      	lsrs	r5, r6, #16
100042d8:	436f      	muls	r7, r5
100042da:	b2a4      	uxth	r4, r4
100042dc:	436c      	muls	r4, r5
100042de:	191b      	adds	r3, r3, r4
100042e0:	d302      	bcc.n	100042e8 <l20_1>
100042e2:	2401      	movs	r4, #1
100042e4:	0424      	lsls	r4, r4, #16
100042e6:	193f      	adds	r7, r7, r4

100042e8 <l20_1>:
100042e8:	041c      	lsls	r4, r3, #16
100042ea:	0c1d      	lsrs	r5, r3, #16
100042ec:	18a4      	adds	r4, r4, r2
100042ee:	417d      	adcs	r5, r7
100042f0:	1924      	adds	r4, r4, r4
100042f2:	416d      	adcs	r5, r5
100042f4:	9a00      	ldr	r2, [sp, #0]
100042f6:	b291      	uxth	r1, r2
100042f8:	b2ac      	uxth	r4, r5
100042fa:	4361      	muls	r1, r4
100042fc:	0c17      	lsrs	r7, r2, #16
100042fe:	437c      	muls	r4, r7
10004300:	0c2b      	lsrs	r3, r5, #16
10004302:	435f      	muls	r7, r3
10004304:	b292      	uxth	r2, r2
10004306:	435a      	muls	r2, r3
10004308:	18a4      	adds	r4, r4, r2
1000430a:	d302      	bcc.n	10004312 <l21_1>
1000430c:	2201      	movs	r2, #1
1000430e:	0412      	lsls	r2, r2, #16
10004310:	18bf      	adds	r7, r7, r2

10004312 <l21_1>:
10004312:	0422      	lsls	r2, r4, #16
10004314:	0c23      	lsrs	r3, r4, #16
10004316:	1852      	adds	r2, r2, r1
10004318:	417b      	adcs	r3, r7
1000431a:	9c01      	ldr	r4, [sp, #4]
1000431c:	436c      	muls	r4, r5
1000431e:	191b      	adds	r3, r3, r4
10004320:	0e52      	lsrs	r2, r2, #25
10004322:	01d9      	lsls	r1, r3, #7
10004324:	430a      	orrs	r2, r1
10004326:	0144      	lsls	r4, r0, #5
10004328:	1aa0      	subs	r0, r4, r2
1000432a:	b281      	uxth	r1, r0
1000432c:	b2b2      	uxth	r2, r6
1000432e:	4351      	muls	r1, r2
10004330:	1403      	asrs	r3, r0, #16
10004332:	435a      	muls	r2, r3
10004334:	0c36      	lsrs	r6, r6, #16
10004336:	4373      	muls	r3, r6
10004338:	b287      	uxth	r7, r0
1000433a:	4377      	muls	r7, r6
1000433c:	17d6      	asrs	r6, r2, #31
1000433e:	19d2      	adds	r2, r2, r7
10004340:	2700      	movs	r7, #0
10004342:	417e      	adcs	r6, r7
10004344:	0436      	lsls	r6, r6, #16
10004346:	199b      	adds	r3, r3, r6
10004348:	0417      	lsls	r7, r2, #16
1000434a:	0c16      	lsrs	r6, r2, #16
1000434c:	187f      	adds	r7, r7, r1
1000434e:	415e      	adcs	r6, r3
10004350:	1673      	asrs	r3, r6, #25
10004352:	18ed      	adds	r5, r5, r3
10004354:	01f3      	lsls	r3, r6, #7
10004356:	2600      	movs	r6, #0
10004358:	3380      	adds	r3, #128	; 0x80
1000435a:	4175      	adcs	r5, r6
1000435c:	0fa9      	lsrs	r1, r5, #30
1000435e:	d106      	bne.n	1000436e <dd_0>
10004360:	0064      	lsls	r4, r4, #1
10004362:	0a69      	lsrs	r1, r5, #9
10004364:	05e8      	lsls	r0, r5, #23
10004366:	0a5b      	lsrs	r3, r3, #9
10004368:	4318      	orrs	r0, r3
1000436a:	d209      	bcs.n	10004380 <dd_1>
1000436c:	e02f      	b.n	100043ce <dd_2>

1000436e <dd_0>:
1000436e:	2204      	movs	r2, #4
10004370:	4494      	add	ip, r2
10004372:	3380      	adds	r3, #128	; 0x80
10004374:	4175      	adcs	r5, r6
10004376:	0aa9      	lsrs	r1, r5, #10
10004378:	05a8      	lsls	r0, r5, #22
1000437a:	0a9b      	lsrs	r3, r3, #10
1000437c:	4318      	orrs	r0, r3
1000437e:	d326      	bcc.n	100043ce <dd_2>

10004380 <dd_1>:
10004380:	4140      	adcs	r0, r0
10004382:	4149      	adcs	r1, r1
10004384:	0424      	lsls	r4, r4, #16
10004386:	9a00      	ldr	r2, [sp, #0]
10004388:	9b01      	ldr	r3, [sp, #4]
1000438a:	000d      	movs	r5, r1
1000438c:	4355      	muls	r5, r2
1000438e:	1b64      	subs	r4, r4, r5
10004390:	4343      	muls	r3, r0
10004392:	1ae4      	subs	r4, r4, r3
10004394:	b295      	uxth	r5, r2
10004396:	b286      	uxth	r6, r0
10004398:	4375      	muls	r5, r6
1000439a:	0c17      	lsrs	r7, r2, #16
1000439c:	437e      	muls	r6, r7
1000439e:	0c03      	lsrs	r3, r0, #16
100043a0:	435f      	muls	r7, r3
100043a2:	b292      	uxth	r2, r2
100043a4:	435a      	muls	r2, r3
100043a6:	18b6      	adds	r6, r6, r2
100043a8:	d302      	bcc.n	100043b0 <l23_1>
100043aa:	2201      	movs	r2, #1
100043ac:	0412      	lsls	r2, r2, #16
100043ae:	18bf      	adds	r7, r7, r2

100043b0 <l23_1>:
100043b0:	0432      	lsls	r2, r6, #16
100043b2:	0c33      	lsrs	r3, r6, #16
100043b4:	1952      	adds	r2, r2, r5
100043b6:	417b      	adcs	r3, r7
100043b8:	4252      	negs	r2, r2
100043ba:	419c      	sbcs	r4, r3
100043bc:	2c00      	cmp	r4, #0
100043be:	d402      	bmi.n	100043c6 <l23_1+0x16>
100043c0:	2200      	movs	r2, #0
100043c2:	3001      	adds	r0, #1
100043c4:	4151      	adcs	r1, r2
100043c6:	0840      	lsrs	r0, r0, #1
100043c8:	07ca      	lsls	r2, r1, #31
100043ca:	4310      	orrs	r0, r2
100043cc:	0849      	lsrs	r1, r1, #1

100043ce <dd_2>:
100043ce:	b002      	add	sp, #8
100043d0:	4662      	mov	r2, ip
100043d2:	07d7      	lsls	r7, r2, #31
100043d4:	1092      	asrs	r2, r2, #2
100043d6:	4b08      	ldr	r3, [pc, #32]	; (100043f8 <dd_4+0x6>)
100043d8:	18d2      	adds	r2, r2, r3
100043da:	4b08      	ldr	r3, [pc, #32]	; (100043fc <dd_4+0xa>)
100043dc:	429a      	cmp	r2, r3
100043de:	d203      	bcs.n	100043e8 <dd_3>
100043e0:	0512      	lsls	r2, r2, #20
100043e2:	1889      	adds	r1, r1, r2

100043e4 <dd_5>:
100043e4:	19c9      	adds	r1, r1, r7
100043e6:	bdf0      	pop	{r4, r5, r6, r7, pc}

100043e8 <dd_3>:
100043e8:	2000      	movs	r0, #0
100043ea:	2a00      	cmp	r2, #0
100043ec:	dc01      	bgt.n	100043f2 <dd_4>
100043ee:	0039      	movs	r1, r7
100043f0:	bdf0      	pop	{r4, r5, r6, r7, pc}

100043f2 <dd_4>:
100043f2:	3301      	adds	r3, #1
100043f4:	0519      	lsls	r1, r3, #20
100043f6:	e7f5      	b.n	100043e4 <dd_5>
100043f8:	000003fd 	.word	0x000003fd
100043fc:	000007fe 	.word	0x000007fe

10004400 <double2uint_shim>:
10004400:	2200      	movs	r2, #0

10004402 <double2ufix_shim>:
10004402:	b500      	push	{lr}
10004404:	3220      	adds	r2, #32
10004406:	f000 f804 	bl	10004412 <double2ufix64_shim>
1000440a:	0008      	movs	r0, r1
1000440c:	bd00      	pop	{pc}
	...

10004410 <double2uint64_shim>:
10004410:	2200      	movs	r2, #0

10004412 <double2ufix64_shim>:
10004412:	150b      	asrs	r3, r1, #20
10004414:	d40a      	bmi.n	1000442c <ret_dzero>

10004416 <d2fix>:
10004416:	b510      	push	{r4, lr}
10004418:	4694      	mov	ip, r2
1000441a:	f000 f831 	bl	10004480 <dunpacks>
1000441e:	1414      	asrs	r4, r2, #16
10004420:	3401      	adds	r4, #1
10004422:	da00      	bge.n	10004426 <d2fix+0x10>
10004424:	2100      	movs	r1, #0
10004426:	17cb      	asrs	r3, r1, #31
10004428:	4c14      	ldr	r4, [pc, #80]	; (1000447c <d2fix_a+0x4a>)
1000442a:	4720      	bx	r4

1000442c <ret_dzero>:
1000442c:	2000      	movs	r0, #0
1000442e:	2100      	movs	r1, #0
10004430:	4770      	bx	lr

10004432 <d2fix_a>:
10004432:	4462      	add	r2, ip
10004434:	3a34      	subs	r2, #52	; 0x34
10004436:	d40c      	bmi.n	10004452 <d2fix_a+0x20>
10004438:	2a0c      	cmp	r2, #12
1000443a:	da07      	bge.n	1000444c <d2fix_a+0x1a>
1000443c:	0004      	movs	r4, r0
1000443e:	4091      	lsls	r1, r2
10004440:	4090      	lsls	r0, r2
10004442:	4252      	negs	r2, r2
10004444:	3220      	adds	r2, #32
10004446:	40d4      	lsrs	r4, r2
10004448:	4321      	orrs	r1, r4
1000444a:	bd10      	pop	{r4, pc}
1000444c:	43d8      	mvns	r0, r3
1000444e:	43d9      	mvns	r1, r3
10004450:	bd10      	pop	{r4, pc}
10004452:	3220      	adds	r2, #32
10004454:	d407      	bmi.n	10004466 <d2fix_a+0x34>
10004456:	460c      	mov	r4, r1
10004458:	4094      	lsls	r4, r2
1000445a:	4252      	negs	r2, r2
1000445c:	3220      	adds	r2, #32
1000445e:	4111      	asrs	r1, r2
10004460:	40d0      	lsrs	r0, r2
10004462:	4320      	orrs	r0, r4
10004464:	bd10      	pop	{r4, pc}
10004466:	0008      	movs	r0, r1
10004468:	17c9      	asrs	r1, r1, #31
1000446a:	3220      	adds	r2, #32
1000446c:	d403      	bmi.n	10004476 <d2fix_a+0x44>
1000446e:	4252      	negs	r2, r2
10004470:	3220      	adds	r2, #32
10004472:	4110      	asrs	r0, r2
10004474:	bd10      	pop	{r4, pc}
10004476:	0018      	movs	r0, r3
10004478:	0019      	movs	r1, r3
1000447a:	bd10      	pop	{r4, pc}
1000447c:	10004433 	.word	0x10004433

10004480 <dunpacks>:
10004480:	0d0a      	lsrs	r2, r1, #20
10004482:	0fcc      	lsrs	r4, r1, #31
10004484:	1e53      	subs	r3, r2, #1
10004486:	051b      	lsls	r3, r3, #20
10004488:	1ac9      	subs	r1, r1, r3
1000448a:	0552      	lsls	r2, r2, #21
1000448c:	d303      	bcc.n	10004496 <l59_1>
1000448e:	43c9      	mvns	r1, r1
10004490:	4240      	negs	r0, r0
10004492:	d300      	bcc.n	10004496 <l59_1>
10004494:	3101      	adds	r1, #1

10004496 <l59_1>:
10004496:	0d52      	lsrs	r2, r2, #21
10004498:	d003      	beq.n	100044a2 <l59_2>
1000449a:	1c53      	adds	r3, r2, #1
1000449c:	0adb      	lsrs	r3, r3, #11
1000449e:	d007      	beq.n	100044b0 <l59_3>
100044a0:	1b12      	subs	r2, r2, r4

100044a2 <l59_2>:
100044a2:	2000      	movs	r0, #0
100044a4:	0064      	lsls	r4, r4, #1
100044a6:	1c61      	adds	r1, r4, #1
100044a8:	0789      	lsls	r1, r1, #30
100044aa:	1289      	asrs	r1, r1, #10
100044ac:	3a80      	subs	r2, #128	; 0x80
100044ae:	0312      	lsls	r2, r2, #12

100044b0 <l59_3>:
100044b0:	4b01      	ldr	r3, [pc, #4]	; (100044b8 <l59_3+0x8>)
100044b2:	1ad2      	subs	r2, r2, r3
100044b4:	4770      	bx	lr
100044b6:	0000      	.short	0x0000
100044b8:	000003ff 	.word	0x000003ff

100044bc <__wrap___aeabi_lmul>:
100044bc:	4351      	muls	r1, r2
100044be:	4343      	muls	r3, r0
100044c0:	18c9      	adds	r1, r1, r3
100044c2:	468c      	mov	ip, r1
100044c4:	0c11      	lsrs	r1, r2, #16
100044c6:	b283      	uxth	r3, r0
100044c8:	434b      	muls	r3, r1
100044ca:	b410      	push	{r4}
100044cc:	0c04      	lsrs	r4, r0, #16
100044ce:	4361      	muls	r1, r4
100044d0:	b292      	uxth	r2, r2
100044d2:	b280      	uxth	r0, r0
100044d4:	4350      	muls	r0, r2
100044d6:	4362      	muls	r2, r4
100044d8:	041c      	lsls	r4, r3, #16
100044da:	0c1b      	lsrs	r3, r3, #16
100044dc:	1900      	adds	r0, r0, r4
100044de:	bc10      	pop	{r4}
100044e0:	4159      	adcs	r1, r3
100044e2:	0413      	lsls	r3, r2, #16
100044e4:	0c12      	lsrs	r2, r2, #16
100044e6:	18c0      	adds	r0, r0, r3
100044e8:	4151      	adcs	r1, r2
100044ea:	4461      	add	r1, ip
100044ec:	4770      	bx	lr
	...

100044f0 <__aeabi_float_init>:
100044f0:	2313      	movs	r3, #19
100044f2:	b510      	push	{r4, lr}
100044f4:	4812      	ldr	r0, [pc, #72]	; (10004540 <__aeabi_float_init+0x50>)
100044f6:	781c      	ldrb	r4, [r3, #0]
100044f8:	f7ff f970 	bl	100037dc <rom_data_lookup>
100044fc:	0001      	movs	r1, r0
100044fe:	2c01      	cmp	r4, #1
10004500:	d00a      	beq.n	10004518 <__aeabi_float_init+0x28>
10004502:	dd03      	ble.n	1000450c <__aeabi_float_init+0x1c>
10004504:	2280      	movs	r2, #128	; 0x80
10004506:	480f      	ldr	r0, [pc, #60]	; (10004544 <__aeabi_float_init+0x54>)
10004508:	f000 f848 	bl	1000459c <__wrap___aeabi_memcpy>
1000450c:	480e      	ldr	r0, [pc, #56]	; (10004548 <__aeabi_float_init+0x58>)
1000450e:	f7ff f95d 	bl	100037cc <rom_func_lookup>
10004512:	4b0e      	ldr	r3, [pc, #56]	; (1000454c <__aeabi_float_init+0x5c>)
10004514:	6018      	str	r0, [r3, #0]
10004516:	bd10      	pop	{r4, pc}
10004518:	4c0a      	ldr	r4, [pc, #40]	; (10004544 <__aeabi_float_init+0x54>)
1000451a:	2254      	movs	r2, #84	; 0x54
1000451c:	0020      	movs	r0, r4
1000451e:	f000 f83d 	bl	1000459c <__wrap___aeabi_memcpy>
10004522:	4b0b      	ldr	r3, [pc, #44]	; (10004550 <__aeabi_float_init+0x60>)
10004524:	6563      	str	r3, [r4, #84]	; 0x54
10004526:	65a3      	str	r3, [r4, #88]	; 0x58
10004528:	65e3      	str	r3, [r4, #92]	; 0x5c
1000452a:	6623      	str	r3, [r4, #96]	; 0x60
1000452c:	6663      	str	r3, [r4, #100]	; 0x64
1000452e:	66a3      	str	r3, [r4, #104]	; 0x68
10004530:	66e3      	str	r3, [r4, #108]	; 0x6c
10004532:	6723      	str	r3, [r4, #112]	; 0x70
10004534:	6763      	str	r3, [r4, #116]	; 0x74
10004536:	67a3      	str	r3, [r4, #120]	; 0x78
10004538:	67e3      	str	r3, [r4, #124]	; 0x7c
1000453a:	6223      	str	r3, [r4, #32]
1000453c:	61e3      	str	r3, [r4, #28]
1000453e:	e7e5      	b.n	1000450c <__aeabi_float_init+0x1c>
10004540:	00004653 	.word	0x00004653
10004544:	20001168 	.word	0x20001168
10004548:	0000334c 	.word	0x0000334c
1000454c:	20001dec 	.word	0x20001dec
10004550:	10004555 	.word	0x10004555

10004554 <float_table_shim_on_use_helper>:
10004554:	b507      	push	{r0, r1, r2, lr}
10004556:	4660      	mov	r0, ip
10004558:	8801      	ldrh	r1, [r0, #0]
1000455a:	0a0a      	lsrs	r2, r1, #8
1000455c:	3002      	adds	r0, #2
1000455e:	2adf      	cmp	r2, #223	; 0xdf
10004560:	d1fa      	bne.n	10004558 <float_table_shim_on_use_helper+0x4>
10004562:	b2c9      	uxtb	r1, r1
10004564:	0882      	lsrs	r2, r0, #2
10004566:	d304      	bcc.n	10004572 <float_table_shim_on_use_helper+0x1e>
10004568:	8802      	ldrh	r2, [r0, #0]
1000456a:	8840      	ldrh	r0, [r0, #2]
1000456c:	0400      	lsls	r0, r0, #16
1000456e:	4310      	orrs	r0, r2
10004570:	e000      	b.n	10004574 <float_table_shim_on_use_helper+0x20>
10004572:	6800      	ldr	r0, [r0, #0]
10004574:	4a01      	ldr	r2, [pc, #4]	; (1000457c <float_table_shim_on_use_helper+0x28>)
10004576:	5050      	str	r0, [r2, r1]
10004578:	9003      	str	r0, [sp, #12]
1000457a:	bd07      	pop	{r0, r1, r2, pc}
1000457c:	20001168 	.word	0x20001168

10004580 <__aeabi_mem_init>:
10004580:	4801      	ldr	r0, [pc, #4]	; (10004588 <__aeabi_mem_init+0x8>)
10004582:	2104      	movs	r1, #4
10004584:	4b01      	ldr	r3, [pc, #4]	; (1000458c <__aeabi_mem_init+0xc>)
10004586:	4718      	bx	r3
10004588:	20000ef0 	.word	0x20000ef0
1000458c:	100037ed 	.word	0x100037ed

10004590 <__wrap_memset>:
10004590:	4b01      	ldr	r3, [pc, #4]	; (10004598 <__wrap_memset+0x8>)
10004592:	681b      	ldr	r3, [r3, #0]
10004594:	4718      	bx	r3
10004596:	0000      	.short	0x0000
10004598:	20000ef0 	.word	0x20000ef0

1000459c <__wrap___aeabi_memcpy>:
1000459c:	4b01      	ldr	r3, [pc, #4]	; (100045a4 <__wrap___aeabi_memcpy+0x8>)
1000459e:	685b      	ldr	r3, [r3, #4]
100045a0:	4718      	bx	r3
100045a2:	0000      	.short	0x0000
100045a4:	20000ef0 	.word	0x20000ef0

100045a8 <stdio_out_chars_no_crlf>:
100045a8:	0003      	movs	r3, r0
100045aa:	b510      	push	{r4, lr}
100045ac:	0008      	movs	r0, r1
100045ae:	0011      	movs	r1, r2
100045b0:	681b      	ldr	r3, [r3, #0]
100045b2:	4798      	blx	r3
100045b4:	bd10      	pop	{r4, pc}
100045b6:	46c0      	nop			; (mov r8, r8)

100045b8 <stdio_out_chars_crlf>:
100045b8:	b5f0      	push	{r4, r5, r6, r7, lr}
100045ba:	4646      	mov	r6, r8
100045bc:	464f      	mov	r7, r9
100045be:	46d6      	mov	lr, sl
100045c0:	b5c0      	push	{r6, r7, lr}
100045c2:	7d43      	ldrb	r3, [r0, #21]
100045c4:	4680      	mov	r8, r0
100045c6:	000e      	movs	r6, r1
100045c8:	0017      	movs	r7, r2
100045ca:	2b00      	cmp	r3, #0
100045cc:	d046      	beq.n	1000465c <stdio_out_chars_crlf+0xa4>
100045ce:	2a00      	cmp	r2, #0
100045d0:	dd3f      	ble.n	10004652 <stdio_out_chars_crlf+0x9a>
100045d2:	1e4b      	subs	r3, r1, #1
100045d4:	4699      	mov	r9, r3
100045d6:	4b24      	ldr	r3, [pc, #144]	; (10004668 <stdio_out_chars_crlf+0xb0>)
100045d8:	2501      	movs	r5, #1
100045da:	2400      	movs	r4, #0
100045dc:	2000      	movs	r0, #0
100045de:	469a      	mov	sl, r3
100045e0:	e00d      	b.n	100045fe <stdio_out_chars_crlf+0x46>
100045e2:	464b      	mov	r3, r9
100045e4:	5d1b      	ldrb	r3, [r3, r4]
100045e6:	3b0d      	subs	r3, #13
100045e8:	425a      	negs	r2, r3
100045ea:	4153      	adcs	r3, r2
100045ec:	5d32      	ldrb	r2, [r6, r4]
100045ee:	b2db      	uxtb	r3, r3
100045f0:	2a0a      	cmp	r2, #10
100045f2:	d00b      	beq.n	1000460c <stdio_out_chars_crlf+0x54>
100045f4:	002b      	movs	r3, r5
100045f6:	3401      	adds	r4, #1
100045f8:	3501      	adds	r5, #1
100045fa:	429f      	cmp	r7, r3
100045fc:	dd1a      	ble.n	10004634 <stdio_out_chars_crlf+0x7c>
100045fe:	2c00      	cmp	r4, #0
10004600:	d1ef      	bne.n	100045e2 <stdio_out_chars_crlf+0x2a>
10004602:	4643      	mov	r3, r8
10004604:	5d32      	ldrb	r2, [r6, r4]
10004606:	7d1b      	ldrb	r3, [r3, #20]
10004608:	2a0a      	cmp	r2, #10
1000460a:	d1f3      	bne.n	100045f4 <stdio_out_chars_crlf+0x3c>
1000460c:	2b00      	cmp	r3, #0
1000460e:	d1f1      	bne.n	100045f4 <stdio_out_chars_crlf+0x3c>
10004610:	42a0      	cmp	r0, r4
10004612:	da04      	bge.n	1000461e <stdio_out_chars_crlf+0x66>
10004614:	4643      	mov	r3, r8
10004616:	1a21      	subs	r1, r4, r0
10004618:	681b      	ldr	r3, [r3, #0]
1000461a:	1830      	adds	r0, r6, r0
1000461c:	4798      	blx	r3
1000461e:	4643      	mov	r3, r8
10004620:	4650      	mov	r0, sl
10004622:	681b      	ldr	r3, [r3, #0]
10004624:	2102      	movs	r1, #2
10004626:	4798      	blx	r3
10004628:	3401      	adds	r4, #1
1000462a:	0028      	movs	r0, r5
1000462c:	002b      	movs	r3, r5
1000462e:	3501      	adds	r5, #1
10004630:	429f      	cmp	r7, r3
10004632:	dce4      	bgt.n	100045fe <stdio_out_chars_crlf+0x46>
10004634:	4287      	cmp	r7, r0
10004636:	dd04      	ble.n	10004642 <stdio_out_chars_crlf+0x8a>
10004638:	4643      	mov	r3, r8
1000463a:	1a39      	subs	r1, r7, r0
1000463c:	681b      	ldr	r3, [r3, #0]
1000463e:	1830      	adds	r0, r6, r0
10004640:	4798      	blx	r3
10004642:	19f6      	adds	r6, r6, r7
10004644:	3e01      	subs	r6, #1
10004646:	7833      	ldrb	r3, [r6, #0]
10004648:	3b0d      	subs	r3, #13
1000464a:	425a      	negs	r2, r3
1000464c:	4153      	adcs	r3, r2
1000464e:	4642      	mov	r2, r8
10004650:	7513      	strb	r3, [r2, #20]
10004652:	bce0      	pop	{r5, r6, r7}
10004654:	46ba      	mov	sl, r7
10004656:	46b1      	mov	r9, r6
10004658:	46a8      	mov	r8, r5
1000465a:	bdf0      	pop	{r4, r5, r6, r7, pc}
1000465c:	6803      	ldr	r3, [r0, #0]
1000465e:	0011      	movs	r1, r2
10004660:	0030      	movs	r0, r6
10004662:	4798      	blx	r3
10004664:	e7f5      	b.n	10004652 <stdio_out_chars_crlf+0x9a>
10004666:	46c0      	nop			; (mov r8, r8)
10004668:	10007550 	.word	0x10007550

1000466c <stdio_buffered_printer>:
1000466c:	b5f0      	push	{r4, r5, r6, r7, lr}
1000466e:	46c6      	mov	lr, r8
10004670:	000c      	movs	r4, r1
10004672:	6809      	ldr	r1, [r1, #0]
10004674:	0006      	movs	r6, r0
10004676:	b500      	push	{lr}
10004678:	2980      	cmp	r1, #128	; 0x80
1000467a:	d006      	beq.n	1000468a <stdio_buffered_printer+0x1e>
1000467c:	1c4b      	adds	r3, r1, #1
1000467e:	6023      	str	r3, [r4, #0]
10004680:	1864      	adds	r4, r4, r1
10004682:	7126      	strb	r6, [r4, #4]
10004684:	bc80      	pop	{r7}
10004686:	46b8      	mov	r8, r7
10004688:	bdf0      	pop	{r4, r5, r6, r7, pc}
1000468a:	4b0f      	ldr	r3, [pc, #60]	; (100046c8 <stdio_buffered_printer+0x5c>)
1000468c:	681d      	ldr	r5, [r3, #0]
1000468e:	2d00      	cmp	r5, #0
10004690:	d016      	beq.n	100046c0 <stdio_buffered_printer+0x54>
10004692:	1d23      	adds	r3, r4, #4
10004694:	4698      	mov	r8, r3
10004696:	4f0d      	ldr	r7, [pc, #52]	; (100046cc <stdio_buffered_printer+0x60>)
10004698:	e002      	b.n	100046a0 <stdio_buffered_printer+0x34>
1000469a:	692d      	ldr	r5, [r5, #16]
1000469c:	2d00      	cmp	r5, #0
1000469e:	d00f      	beq.n	100046c0 <stdio_buffered_printer+0x54>
100046a0:	682b      	ldr	r3, [r5, #0]
100046a2:	2b00      	cmp	r3, #0
100046a4:	d0f9      	beq.n	1000469a <stdio_buffered_printer+0x2e>
100046a6:	683b      	ldr	r3, [r7, #0]
100046a8:	2b00      	cmp	r3, #0
100046aa:	d001      	beq.n	100046b0 <stdio_buffered_printer+0x44>
100046ac:	42ab      	cmp	r3, r5
100046ae:	d1f4      	bne.n	1000469a <stdio_buffered_printer+0x2e>
100046b0:	0028      	movs	r0, r5
100046b2:	4641      	mov	r1, r8
100046b4:	6822      	ldr	r2, [r4, #0]
100046b6:	f7ff ff7f 	bl	100045b8 <stdio_out_chars_crlf>
100046ba:	692d      	ldr	r5, [r5, #16]
100046bc:	2d00      	cmp	r5, #0
100046be:	d1ef      	bne.n	100046a0 <stdio_buffered_printer+0x34>
100046c0:	2301      	movs	r3, #1
100046c2:	2100      	movs	r1, #0
100046c4:	e7db      	b.n	1000467e <stdio_buffered_printer+0x12>
100046c6:	46c0      	nop			; (mov r8, r8)
100046c8:	20001874 	.word	0x20001874
100046cc:	2000187c 	.word	0x2000187c

100046d0 <stdio_put_string.isra.0>:
100046d0:	b5f0      	push	{r4, r5, r6, r7, lr}
100046d2:	46de      	mov	lr, fp
100046d4:	4657      	mov	r7, sl
100046d6:	464e      	mov	r6, r9
100046d8:	4645      	mov	r5, r8
100046da:	b5e0      	push	{r5, r6, r7, lr}
100046dc:	b085      	sub	sp, #20
100046de:	0017      	movs	r7, r2
100046e0:	001c      	movs	r4, r3
100046e2:	0006      	movs	r6, r0
100046e4:	000d      	movs	r5, r1
100046e6:	f7fc ff99 	bl	1000161c <time_us_64>
100046ea:	2300      	movs	r3, #0
100046ec:	4a30      	ldr	r2, [pc, #192]	; (100047b0 <stdio_put_string.isra.0+0xe0>)
100046ee:	1812      	adds	r2, r2, r0
100046f0:	414b      	adcs	r3, r1
100046f2:	2b00      	cmp	r3, #0
100046f4:	db58      	blt.n	100047a8 <stdio_put_string.isra.0+0xd8>
100046f6:	492f      	ldr	r1, [pc, #188]	; (100047b4 <stdio_put_string.isra.0+0xe4>)
100046f8:	0008      	movs	r0, r1
100046fa:	468a      	mov	sl, r1
100046fc:	f002 fb88 	bl	10006e10 <__mutex_try_enter_block_until_veneer>
10004700:	9001      	str	r0, [sp, #4]
10004702:	1c6b      	adds	r3, r5, #1
10004704:	d103      	bne.n	1000470e <stdio_put_string.isra.0+0x3e>
10004706:	0030      	movs	r0, r6
10004708:	f002 fb08 	bl	10006d1c <strlen>
1000470c:	0005      	movs	r5, r0
1000470e:	2c00      	cmp	r4, #0
10004710:	d125      	bne.n	1000475e <stdio_put_string.isra.0+0x8e>
10004712:	4b29      	ldr	r3, [pc, #164]	; (100047b8 <stdio_put_string.isra.0+0xe8>)
10004714:	4698      	mov	r8, r3
10004716:	4b29      	ldr	r3, [pc, #164]	; (100047bc <stdio_put_string.isra.0+0xec>)
10004718:	681c      	ldr	r4, [r3, #0]
1000471a:	2c00      	cmp	r4, #0
1000471c:	d015      	beq.n	1000474a <stdio_put_string.isra.0+0x7a>
1000471e:	2f00      	cmp	r7, #0
10004720:	d120      	bne.n	10004764 <stdio_put_string.isra.0+0x94>
10004722:	4f27      	ldr	r7, [pc, #156]	; (100047c0 <stdio_put_string.isra.0+0xf0>)
10004724:	e002      	b.n	1000472c <stdio_put_string.isra.0+0x5c>
10004726:	6924      	ldr	r4, [r4, #16]
10004728:	2c00      	cmp	r4, #0
1000472a:	d00e      	beq.n	1000474a <stdio_put_string.isra.0+0x7a>
1000472c:	6823      	ldr	r3, [r4, #0]
1000472e:	2b00      	cmp	r3, #0
10004730:	d0f9      	beq.n	10004726 <stdio_put_string.isra.0+0x56>
10004732:	683b      	ldr	r3, [r7, #0]
10004734:	2b00      	cmp	r3, #0
10004736:	d001      	beq.n	1000473c <stdio_put_string.isra.0+0x6c>
10004738:	42a3      	cmp	r3, r4
1000473a:	d1f4      	bne.n	10004726 <stdio_put_string.isra.0+0x56>
1000473c:	0020      	movs	r0, r4
1000473e:	002a      	movs	r2, r5
10004740:	0031      	movs	r1, r6
10004742:	47c0      	blx	r8
10004744:	6924      	ldr	r4, [r4, #16]
10004746:	2c00      	cmp	r4, #0
10004748:	d1f0      	bne.n	1000472c <stdio_put_string.isra.0+0x5c>
1000474a:	9b01      	ldr	r3, [sp, #4]
1000474c:	2b00      	cmp	r3, #0
1000474e:	d127      	bne.n	100047a0 <stdio_put_string.isra.0+0xd0>
10004750:	b005      	add	sp, #20
10004752:	bcf0      	pop	{r4, r5, r6, r7}
10004754:	46bb      	mov	fp, r7
10004756:	46b2      	mov	sl, r6
10004758:	46a9      	mov	r9, r5
1000475a:	46a0      	mov	r8, r4
1000475c:	bdf0      	pop	{r4, r5, r6, r7, pc}
1000475e:	4b19      	ldr	r3, [pc, #100]	; (100047c4 <stdio_put_string.isra.0+0xf4>)
10004760:	4698      	mov	r8, r3
10004762:	e7d8      	b.n	10004716 <stdio_put_string.isra.0+0x46>
10004764:	4b16      	ldr	r3, [pc, #88]	; (100047c0 <stdio_put_string.isra.0+0xf0>)
10004766:	4699      	mov	r9, r3
10004768:	ab02      	add	r3, sp, #8
1000476a:	1ddf      	adds	r7, r3, #7
1000476c:	230a      	movs	r3, #10
1000476e:	469b      	mov	fp, r3
10004770:	e002      	b.n	10004778 <stdio_put_string.isra.0+0xa8>
10004772:	6924      	ldr	r4, [r4, #16]
10004774:	2c00      	cmp	r4, #0
10004776:	d0e8      	beq.n	1000474a <stdio_put_string.isra.0+0x7a>
10004778:	6823      	ldr	r3, [r4, #0]
1000477a:	2b00      	cmp	r3, #0
1000477c:	d0f9      	beq.n	10004772 <stdio_put_string.isra.0+0xa2>
1000477e:	464b      	mov	r3, r9
10004780:	681b      	ldr	r3, [r3, #0]
10004782:	2b00      	cmp	r3, #0
10004784:	d001      	beq.n	1000478a <stdio_put_string.isra.0+0xba>
10004786:	42a3      	cmp	r3, r4
10004788:	d1f3      	bne.n	10004772 <stdio_put_string.isra.0+0xa2>
1000478a:	002a      	movs	r2, r5
1000478c:	0031      	movs	r1, r6
1000478e:	0020      	movs	r0, r4
10004790:	47c0      	blx	r8
10004792:	465b      	mov	r3, fp
10004794:	2201      	movs	r2, #1
10004796:	0039      	movs	r1, r7
10004798:	0020      	movs	r0, r4
1000479a:	703b      	strb	r3, [r7, #0]
1000479c:	47c0      	blx	r8
1000479e:	e7e8      	b.n	10004772 <stdio_put_string.isra.0+0xa2>
100047a0:	4650      	mov	r0, sl
100047a2:	f002 faf5 	bl	10006d90 <__mutex_exit_veneer>
100047a6:	e7d3      	b.n	10004750 <stdio_put_string.isra.0+0x80>
100047a8:	2201      	movs	r2, #1
100047aa:	4b07      	ldr	r3, [pc, #28]	; (100047c8 <stdio_put_string.isra.0+0xf8>)
100047ac:	4252      	negs	r2, r2
100047ae:	e7a2      	b.n	100046f6 <stdio_put_string.isra.0+0x26>
100047b0:	000f4240 	.word	0x000f4240
100047b4:	20000f40 	.word	0x20000f40
100047b8:	100045b9 	.word	0x100045b9
100047bc:	20001874 	.word	0x20001874
100047c0:	2000187c 	.word	0x2000187c
100047c4:	100045a9 	.word	0x100045a9
100047c8:	7fffffff 	.word	0x7fffffff

100047cc <__wrap_putchar>:
100047cc:	b5f0      	push	{r4, r5, r6, r7, lr}
100047ce:	46ce      	mov	lr, r9
100047d0:	4647      	mov	r7, r8
100047d2:	b580      	push	{r7, lr}
100047d4:	b083      	sub	sp, #12
100047d6:	466b      	mov	r3, sp
100047d8:	0006      	movs	r6, r0
100047da:	1ddd      	adds	r5, r3, #7
100047dc:	7028      	strb	r0, [r5, #0]
100047de:	f7fc ff1d 	bl	1000161c <time_us_64>
100047e2:	2300      	movs	r3, #0
100047e4:	4a1a      	ldr	r2, [pc, #104]	; (10004850 <__wrap_putchar+0x84>)
100047e6:	1812      	adds	r2, r2, r0
100047e8:	414b      	adcs	r3, r1
100047ea:	2b00      	cmp	r3, #0
100047ec:	db2b      	blt.n	10004846 <__wrap_putchar+0x7a>
100047ee:	4919      	ldr	r1, [pc, #100]	; (10004854 <__wrap_putchar+0x88>)
100047f0:	0008      	movs	r0, r1
100047f2:	4688      	mov	r8, r1
100047f4:	f002 fb0c 	bl	10006e10 <__mutex_try_enter_block_until_veneer>
100047f8:	4b17      	ldr	r3, [pc, #92]	; (10004858 <__wrap_putchar+0x8c>)
100047fa:	4681      	mov	r9, r0
100047fc:	681c      	ldr	r4, [r3, #0]
100047fe:	2c00      	cmp	r4, #0
10004800:	d014      	beq.n	1000482c <__wrap_putchar+0x60>
10004802:	4f16      	ldr	r7, [pc, #88]	; (1000485c <__wrap_putchar+0x90>)
10004804:	e002      	b.n	1000480c <__wrap_putchar+0x40>
10004806:	6924      	ldr	r4, [r4, #16]
10004808:	2c00      	cmp	r4, #0
1000480a:	d00f      	beq.n	1000482c <__wrap_putchar+0x60>
1000480c:	6823      	ldr	r3, [r4, #0]
1000480e:	2b00      	cmp	r3, #0
10004810:	d0f9      	beq.n	10004806 <__wrap_putchar+0x3a>
10004812:	683b      	ldr	r3, [r7, #0]
10004814:	2b00      	cmp	r3, #0
10004816:	d001      	beq.n	1000481c <__wrap_putchar+0x50>
10004818:	42a3      	cmp	r3, r4
1000481a:	d1f4      	bne.n	10004806 <__wrap_putchar+0x3a>
1000481c:	0020      	movs	r0, r4
1000481e:	2201      	movs	r2, #1
10004820:	0029      	movs	r1, r5
10004822:	f7ff fec9 	bl	100045b8 <stdio_out_chars_crlf>
10004826:	6924      	ldr	r4, [r4, #16]
10004828:	2c00      	cmp	r4, #0
1000482a:	d1ef      	bne.n	1000480c <__wrap_putchar+0x40>
1000482c:	464b      	mov	r3, r9
1000482e:	2b00      	cmp	r3, #0
10004830:	d105      	bne.n	1000483e <__wrap_putchar+0x72>
10004832:	0030      	movs	r0, r6
10004834:	b003      	add	sp, #12
10004836:	bcc0      	pop	{r6, r7}
10004838:	46b9      	mov	r9, r7
1000483a:	46b0      	mov	r8, r6
1000483c:	bdf0      	pop	{r4, r5, r6, r7, pc}
1000483e:	4640      	mov	r0, r8
10004840:	f002 faa6 	bl	10006d90 <__mutex_exit_veneer>
10004844:	e7f5      	b.n	10004832 <__wrap_putchar+0x66>
10004846:	2201      	movs	r2, #1
10004848:	4b05      	ldr	r3, [pc, #20]	; (10004860 <__wrap_putchar+0x94>)
1000484a:	4252      	negs	r2, r2
1000484c:	e7cf      	b.n	100047ee <__wrap_putchar+0x22>
1000484e:	46c0      	nop			; (mov r8, r8)
10004850:	000f4240 	.word	0x000f4240
10004854:	20000f40 	.word	0x20000f40
10004858:	20001874 	.word	0x20001874
1000485c:	2000187c 	.word	0x2000187c
10004860:	7fffffff 	.word	0x7fffffff

10004864 <__wrap_puts>:
10004864:	b570      	push	{r4, r5, r6, lr}
10004866:	0004      	movs	r4, r0
10004868:	f002 fa58 	bl	10006d1c <strlen>
1000486c:	2300      	movs	r3, #0
1000486e:	0001      	movs	r1, r0
10004870:	0005      	movs	r5, r0
10004872:	2201      	movs	r2, #1
10004874:	0020      	movs	r0, r4
10004876:	f7ff ff2b 	bl	100046d0 <stdio_put_string.isra.0>
1000487a:	4b08      	ldr	r3, [pc, #32]	; (1000489c <__wrap_puts+0x38>)
1000487c:	681c      	ldr	r4, [r3, #0]
1000487e:	2c00      	cmp	r4, #0
10004880:	d006      	beq.n	10004890 <__wrap_puts+0x2c>
10004882:	6863      	ldr	r3, [r4, #4]
10004884:	2b00      	cmp	r3, #0
10004886:	d005      	beq.n	10004894 <__wrap_puts+0x30>
10004888:	4798      	blx	r3
1000488a:	6924      	ldr	r4, [r4, #16]
1000488c:	2c00      	cmp	r4, #0
1000488e:	d1f8      	bne.n	10004882 <__wrap_puts+0x1e>
10004890:	0028      	movs	r0, r5
10004892:	bd70      	pop	{r4, r5, r6, pc}
10004894:	6924      	ldr	r4, [r4, #16]
10004896:	2c00      	cmp	r4, #0
10004898:	d1f3      	bne.n	10004882 <__wrap_puts+0x1e>
1000489a:	e7f9      	b.n	10004890 <__wrap_puts+0x2c>
1000489c:	20001874 	.word	0x20001874

100048a0 <stdio_set_driver_enabled>:
100048a0:	4a0a      	ldr	r2, [pc, #40]	; (100048cc <stdio_set_driver_enabled+0x2c>)
100048a2:	6813      	ldr	r3, [r2, #0]
100048a4:	2b00      	cmp	r3, #0
100048a6:	d105      	bne.n	100048b4 <stdio_set_driver_enabled+0x14>
100048a8:	e00c      	b.n	100048c4 <stdio_set_driver_enabled+0x24>
100048aa:	001a      	movs	r2, r3
100048ac:	691b      	ldr	r3, [r3, #16]
100048ae:	3210      	adds	r2, #16
100048b0:	2b00      	cmp	r3, #0
100048b2:	d007      	beq.n	100048c4 <stdio_set_driver_enabled+0x24>
100048b4:	4298      	cmp	r0, r3
100048b6:	d1f8      	bne.n	100048aa <stdio_set_driver_enabled+0xa>
100048b8:	2900      	cmp	r1, #0
100048ba:	d102      	bne.n	100048c2 <stdio_set_driver_enabled+0x22>
100048bc:	6903      	ldr	r3, [r0, #16]
100048be:	6013      	str	r3, [r2, #0]
100048c0:	6101      	str	r1, [r0, #16]
100048c2:	4770      	bx	lr
100048c4:	2900      	cmp	r1, #0
100048c6:	d0fc      	beq.n	100048c2 <stdio_set_driver_enabled+0x22>
100048c8:	6010      	str	r0, [r2, #0]
100048ca:	e7fa      	b.n	100048c2 <stdio_set_driver_enabled+0x22>
100048cc:	20001874 	.word	0x20001874

100048d0 <__wrap_vprintf>:
100048d0:	b5f0      	push	{r4, r5, r6, r7, lr}
100048d2:	46ce      	mov	lr, r9
100048d4:	4647      	mov	r7, r8
100048d6:	b580      	push	{r7, lr}
100048d8:	b0a5      	sub	sp, #148	; 0x94
100048da:	0004      	movs	r4, r0
100048dc:	000d      	movs	r5, r1
100048de:	f7fc fe9d 	bl	1000161c <time_us_64>
100048e2:	2300      	movs	r3, #0
100048e4:	4a2a      	ldr	r2, [pc, #168]	; (10004990 <__wrap_vprintf+0xc0>)
100048e6:	1812      	adds	r2, r2, r0
100048e8:	414b      	adcs	r3, r1
100048ea:	2b00      	cmp	r3, #0
100048ec:	db49      	blt.n	10004982 <__wrap_vprintf+0xb2>
100048ee:	4e29      	ldr	r6, [pc, #164]	; (10004994 <__wrap_vprintf+0xc4>)
100048f0:	0030      	movs	r0, r6
100048f2:	f002 fa8d 	bl	10006e10 <__mutex_try_enter_block_until_veneer>
100048f6:	2300      	movs	r3, #0
100048f8:	0007      	movs	r7, r0
100048fa:	9303      	str	r3, [sp, #12]
100048fc:	0022      	movs	r2, r4
100048fe:	002b      	movs	r3, r5
10004900:	4825      	ldr	r0, [pc, #148]	; (10004998 <__wrap_vprintf+0xc8>)
10004902:	a903      	add	r1, sp, #12
10004904:	f7fe ff32 	bl	1000376c <vfctprintf>
10004908:	9b03      	ldr	r3, [sp, #12]
1000490a:	4680      	mov	r8, r0
1000490c:	2b00      	cmp	r3, #0
1000490e:	d114      	bne.n	1000493a <__wrap_vprintf+0x6a>
10004910:	4b22      	ldr	r3, [pc, #136]	; (1000499c <__wrap_vprintf+0xcc>)
10004912:	681c      	ldr	r4, [r3, #0]
10004914:	2c00      	cmp	r4, #0
10004916:	d006      	beq.n	10004926 <__wrap_vprintf+0x56>
10004918:	6863      	ldr	r3, [r4, #4]
1000491a:	2b00      	cmp	r3, #0
1000491c:	d00b      	beq.n	10004936 <__wrap_vprintf+0x66>
1000491e:	4798      	blx	r3
10004920:	6924      	ldr	r4, [r4, #16]
10004922:	2c00      	cmp	r4, #0
10004924:	d1f8      	bne.n	10004918 <__wrap_vprintf+0x48>
10004926:	2f00      	cmp	r7, #0
10004928:	d127      	bne.n	1000497a <__wrap_vprintf+0xaa>
1000492a:	4640      	mov	r0, r8
1000492c:	b025      	add	sp, #148	; 0x94
1000492e:	bcc0      	pop	{r6, r7}
10004930:	46b9      	mov	r9, r7
10004932:	46b0      	mov	r8, r6
10004934:	bdf0      	pop	{r4, r5, r6, r7, pc}
10004936:	6924      	ldr	r4, [r4, #16]
10004938:	e7ec      	b.n	10004914 <__wrap_vprintf+0x44>
1000493a:	4b18      	ldr	r3, [pc, #96]	; (1000499c <__wrap_vprintf+0xcc>)
1000493c:	681d      	ldr	r5, [r3, #0]
1000493e:	4699      	mov	r9, r3
10004940:	2d00      	cmp	r5, #0
10004942:	d022      	beq.n	1000498a <__wrap_vprintf+0xba>
10004944:	4c16      	ldr	r4, [pc, #88]	; (100049a0 <__wrap_vprintf+0xd0>)
10004946:	e002      	b.n	1000494e <__wrap_vprintf+0x7e>
10004948:	692d      	ldr	r5, [r5, #16]
1000494a:	2d00      	cmp	r5, #0
1000494c:	d011      	beq.n	10004972 <__wrap_vprintf+0xa2>
1000494e:	682b      	ldr	r3, [r5, #0]
10004950:	2b00      	cmp	r3, #0
10004952:	d0f9      	beq.n	10004948 <__wrap_vprintf+0x78>
10004954:	6823      	ldr	r3, [r4, #0]
10004956:	2b00      	cmp	r3, #0
10004958:	d001      	beq.n	1000495e <__wrap_vprintf+0x8e>
1000495a:	429d      	cmp	r5, r3
1000495c:	d1f4      	bne.n	10004948 <__wrap_vprintf+0x78>
1000495e:	9b03      	ldr	r3, [sp, #12]
10004960:	0028      	movs	r0, r5
10004962:	001a      	movs	r2, r3
10004964:	a904      	add	r1, sp, #16
10004966:	9301      	str	r3, [sp, #4]
10004968:	f7ff fe26 	bl	100045b8 <stdio_out_chars_crlf>
1000496c:	692d      	ldr	r5, [r5, #16]
1000496e:	2d00      	cmp	r5, #0
10004970:	d1ed      	bne.n	1000494e <__wrap_vprintf+0x7e>
10004972:	464b      	mov	r3, r9
10004974:	9503      	str	r5, [sp, #12]
10004976:	681c      	ldr	r4, [r3, #0]
10004978:	e7cc      	b.n	10004914 <__wrap_vprintf+0x44>
1000497a:	0030      	movs	r0, r6
1000497c:	f002 fa08 	bl	10006d90 <__mutex_exit_veneer>
10004980:	e7d3      	b.n	1000492a <__wrap_vprintf+0x5a>
10004982:	2201      	movs	r2, #1
10004984:	4b07      	ldr	r3, [pc, #28]	; (100049a4 <__wrap_vprintf+0xd4>)
10004986:	4252      	negs	r2, r2
10004988:	e7b1      	b.n	100048ee <__wrap_vprintf+0x1e>
1000498a:	9503      	str	r5, [sp, #12]
1000498c:	e7cb      	b.n	10004926 <__wrap_vprintf+0x56>
1000498e:	46c0      	nop			; (mov r8, r8)
10004990:	000f4240 	.word	0x000f4240
10004994:	20000f40 	.word	0x20000f40
10004998:	1000466d 	.word	0x1000466d
1000499c:	20001874 	.word	0x20001874
100049a0:	2000187c 	.word	0x2000187c
100049a4:	7fffffff 	.word	0x7fffffff

100049a8 <__wrap_printf>:
100049a8:	b40f      	push	{r0, r1, r2, r3}
100049aa:	b500      	push	{lr}
100049ac:	b083      	sub	sp, #12
100049ae:	a904      	add	r1, sp, #16
100049b0:	c901      	ldmia	r1!, {r0}
100049b2:	9101      	str	r1, [sp, #4]
100049b4:	f7ff ff8c 	bl	100048d0 <__wrap_vprintf>
100049b8:	b003      	add	sp, #12
100049ba:	bc08      	pop	{r3}
100049bc:	b004      	add	sp, #16
100049be:	4718      	bx	r3

100049c0 <stdio_init_all>:
100049c0:	b510      	push	{r4, lr}
100049c2:	f000 fa13 	bl	10004dec <stdio_usb_init>
100049c6:	bd10      	pop	{r4, pc}

100049c8 <__wrap_getchar>:
100049c8:	b5f0      	push	{r4, r5, r6, r7, lr}
100049ca:	4b18      	ldr	r3, [pc, #96]	; (10004a2c <__wrap_getchar+0x64>)
100049cc:	b085      	sub	sp, #20
100049ce:	681a      	ldr	r2, [r3, #0]
100049d0:	685d      	ldr	r5, [r3, #4]
100049d2:	4f17      	ldr	r7, [pc, #92]	; (10004a30 <__wrap_getchar+0x68>)
100049d4:	4e17      	ldr	r6, [pc, #92]	; (10004a34 <__wrap_getchar+0x6c>)
100049d6:	9201      	str	r2, [sp, #4]
100049d8:	683c      	ldr	r4, [r7, #0]
100049da:	2c00      	cmp	r4, #0
100049dc:	d103      	bne.n	100049e6 <__wrap_getchar+0x1e>
100049de:	e013      	b.n	10004a08 <__wrap_getchar+0x40>
100049e0:	6924      	ldr	r4, [r4, #16]
100049e2:	2c00      	cmp	r4, #0
100049e4:	d010      	beq.n	10004a08 <__wrap_getchar+0x40>
100049e6:	6833      	ldr	r3, [r6, #0]
100049e8:	2b00      	cmp	r3, #0
100049ea:	d001      	beq.n	100049f0 <__wrap_getchar+0x28>
100049ec:	42a3      	cmp	r3, r4
100049ee:	d1f7      	bne.n	100049e0 <__wrap_getchar+0x18>
100049f0:	68a3      	ldr	r3, [r4, #8]
100049f2:	2b00      	cmp	r3, #0
100049f4:	d0f4      	beq.n	100049e0 <__wrap_getchar+0x18>
100049f6:	2101      	movs	r1, #1
100049f8:	a803      	add	r0, sp, #12
100049fa:	4798      	blx	r3
100049fc:	2800      	cmp	r0, #0
100049fe:	ddef      	ble.n	100049e0 <__wrap_getchar+0x18>
10004a00:	ab02      	add	r3, sp, #8
10004a02:	7918      	ldrb	r0, [r3, #4]
10004a04:	b005      	add	sp, #20
10004a06:	bdf0      	pop	{r4, r5, r6, r7, pc}
10004a08:	4b0b      	ldr	r3, [pc, #44]	; (10004a38 <__wrap_getchar+0x70>)
10004a0a:	6a5a      	ldr	r2, [r3, #36]	; 0x24
10004a0c:	4295      	cmp	r5, r2
10004a0e:	d808      	bhi.n	10004a22 <__wrap_getchar+0x5a>
10004a10:	6a9b      	ldr	r3, [r3, #40]	; 0x28
10004a12:	9901      	ldr	r1, [sp, #4]
10004a14:	428b      	cmp	r3, r1
10004a16:	d201      	bcs.n	10004a1c <__wrap_getchar+0x54>
10004a18:	4295      	cmp	r5, r2
10004a1a:	d002      	beq.n	10004a22 <__wrap_getchar+0x5a>
10004a1c:	2001      	movs	r0, #1
10004a1e:	4240      	negs	r0, r0
10004a20:	e7f0      	b.n	10004a04 <__wrap_getchar+0x3c>
10004a22:	2001      	movs	r0, #1
10004a24:	2100      	movs	r1, #0
10004a26:	f7fc fe03 	bl	10001630 <busy_wait_us>
10004a2a:	e7d5      	b.n	100049d8 <__wrap_getchar+0x10>
10004a2c:	10007258 	.word	0x10007258
10004a30:	20001874 	.word	0x20001874
10004a34:	2000187c 	.word	0x2000187c
10004a38:	40054000 	.word	0x40054000

10004a3c <resetd_init>:
10004a3c:	4770      	bx	lr
10004a3e:	46c0      	nop			; (mov r8, r8)

10004a40 <resetd_reset>:
10004a40:	2200      	movs	r2, #0
10004a42:	4b01      	ldr	r3, [pc, #4]	; (10004a48 <resetd_reset+0x8>)
10004a44:	701a      	strb	r2, [r3, #0]
10004a46:	4770      	bx	lr
10004a48:	20001e22 	.word	0x20001e22

10004a4c <resetd_open>:
10004a4c:	794b      	ldrb	r3, [r1, #5]
10004a4e:	2000      	movs	r0, #0
10004a50:	2bff      	cmp	r3, #255	; 0xff
10004a52:	d10b      	bne.n	10004a6c <resetd_open+0x20>
10004a54:	798b      	ldrb	r3, [r1, #6]
10004a56:	2b00      	cmp	r3, #0
10004a58:	d108      	bne.n	10004a6c <resetd_open+0x20>
10004a5a:	79cb      	ldrb	r3, [r1, #7]
10004a5c:	2b01      	cmp	r3, #1
10004a5e:	d105      	bne.n	10004a6c <resetd_open+0x20>
10004a60:	2a08      	cmp	r2, #8
10004a62:	d903      	bls.n	10004a6c <resetd_open+0x20>
10004a64:	788a      	ldrb	r2, [r1, #2]
10004a66:	4b02      	ldr	r3, [pc, #8]	; (10004a70 <resetd_open+0x24>)
10004a68:	3009      	adds	r0, #9
10004a6a:	701a      	strb	r2, [r3, #0]
10004a6c:	4770      	bx	lr
10004a6e:	46c0      	nop			; (mov r8, r8)
10004a70:	20001e22 	.word	0x20001e22

10004a74 <resetd_xfer_cb>:
10004a74:	2001      	movs	r0, #1
10004a76:	4770      	bx	lr

10004a78 <resetd_control_xfer_cb>:
10004a78:	b570      	push	{r4, r5, r6, lr}
10004a7a:	2901      	cmp	r1, #1
10004a7c:	d109      	bne.n	10004a92 <resetd_control_xfer_cb+0x1a>
10004a7e:	4915      	ldr	r1, [pc, #84]	; (10004ad4 <resetd_control_xfer_cb+0x5c>)
10004a80:	7953      	ldrb	r3, [r2, #5]
10004a82:	7910      	ldrb	r0, [r2, #4]
10004a84:	7809      	ldrb	r1, [r1, #0]
10004a86:	021b      	lsls	r3, r3, #8
10004a88:	4303      	orrs	r3, r0
10004a8a:	2000      	movs	r0, #0
10004a8c:	4299      	cmp	r1, r3
10004a8e:	d002      	beq.n	10004a96 <resetd_control_xfer_cb+0x1e>
10004a90:	bd70      	pop	{r4, r5, r6, pc}
10004a92:	2001      	movs	r0, #1
10004a94:	e7fc      	b.n	10004a90 <resetd_control_xfer_cb+0x18>
10004a96:	7853      	ldrb	r3, [r2, #1]
10004a98:	2b01      	cmp	r3, #1
10004a9a:	d008      	beq.n	10004aae <resetd_control_xfer_cb+0x36>
10004a9c:	2b02      	cmp	r3, #2
10004a9e:	d1f7      	bne.n	10004a90 <resetd_control_xfer_cb+0x18>
10004aa0:	2000      	movs	r0, #0
10004aa2:	2264      	movs	r2, #100	; 0x64
10004aa4:	2100      	movs	r1, #0
10004aa6:	f7fd faab 	bl	10002000 <watchdog_reboot>
10004aaa:	2001      	movs	r0, #1
10004aac:	e7f0      	b.n	10004a90 <resetd_control_xfer_cb+0x18>
10004aae:	7894      	ldrb	r4, [r2, #2]
10004ab0:	78d2      	ldrb	r2, [r2, #3]
10004ab2:	0005      	movs	r5, r0
10004ab4:	0212      	lsls	r2, r2, #8
10004ab6:	4314      	orrs	r4, r2
10004ab8:	05d2      	lsls	r2, r2, #23
10004aba:	d502      	bpl.n	10004ac2 <resetd_control_xfer_cb+0x4a>
10004abc:	0a62      	lsrs	r2, r4, #9
10004abe:	4093      	lsls	r3, r2
10004ac0:	001d      	movs	r5, r3
10004ac2:	4805      	ldr	r0, [pc, #20]	; (10004ad8 <resetd_control_xfer_cb+0x60>)
10004ac4:	f7fe fe82 	bl	100037cc <rom_func_lookup>
10004ac8:	217f      	movs	r1, #127	; 0x7f
10004aca:	0003      	movs	r3, r0
10004acc:	4021      	ands	r1, r4
10004ace:	0028      	movs	r0, r5
10004ad0:	4798      	blx	r3
10004ad2:	46c0      	nop			; (mov r8, r8)
10004ad4:	20001e22 	.word	0x20001e22
10004ad8:	00004255 	.word	0x00004255

10004adc <usbd_app_driver_get_cb>:
10004adc:	2301      	movs	r3, #1
10004ade:	7003      	strb	r3, [r0, #0]
10004ae0:	4800      	ldr	r0, [pc, #0]	; (10004ae4 <usbd_app_driver_get_cb+0x8>)
10004ae2:	4770      	bx	lr
10004ae4:	10007554 	.word	0x10007554

10004ae8 <tud_cdc_line_coding_cb>:
10004ae8:	7848      	ldrb	r0, [r1, #1]
10004aea:	780b      	ldrb	r3, [r1, #0]
10004aec:	788a      	ldrb	r2, [r1, #2]
10004aee:	0200      	lsls	r0, r0, #8
10004af0:	4318      	orrs	r0, r3
10004af2:	0412      	lsls	r2, r2, #16
10004af4:	4310      	orrs	r0, r2
10004af6:	2296      	movs	r2, #150	; 0x96
10004af8:	78cb      	ldrb	r3, [r1, #3]
10004afa:	b510      	push	{r4, lr}
10004afc:	061b      	lsls	r3, r3, #24
10004afe:	4303      	orrs	r3, r0
10004b00:	00d2      	lsls	r2, r2, #3
10004b02:	4293      	cmp	r3, r2
10004b04:	d000      	beq.n	10004b08 <tud_cdc_line_coding_cb+0x20>
10004b06:	bd10      	pop	{r4, pc}
10004b08:	4803      	ldr	r0, [pc, #12]	; (10004b18 <tud_cdc_line_coding_cb+0x30>)
10004b0a:	f7fe fe5f 	bl	100037cc <rom_func_lookup>
10004b0e:	2100      	movs	r1, #0
10004b10:	0003      	movs	r3, r0
10004b12:	0008      	movs	r0, r1
10004b14:	4798      	blx	r3
10004b16:	46c0      	nop			; (mov r8, r8)
10004b18:	00004255 	.word	0x00004255

10004b1c <stdio_usb_set_chars_available_callback>:
10004b1c:	4b02      	ldr	r3, [pc, #8]	; (10004b28 <stdio_usb_set_chars_available_callback+0xc>)
10004b1e:	6018      	str	r0, [r3, #0]
10004b20:	4b02      	ldr	r3, [pc, #8]	; (10004b2c <stdio_usb_set_chars_available_callback+0x10>)
10004b22:	6019      	str	r1, [r3, #0]
10004b24:	4770      	bx	lr
10004b26:	46c0      	nop			; (mov r8, r8)
10004b28:	200017d8 	.word	0x200017d8
10004b2c:	200017dc 	.word	0x200017dc

10004b30 <usb_irq>:
10004b30:	b510      	push	{r4, lr}
10004b32:	4b02      	ldr	r3, [pc, #8]	; (10004b3c <usb_irq+0xc>)
10004b34:	7818      	ldrb	r0, [r3, #0]
10004b36:	f7fb feb3 	bl	100008a0 <irq_set_pending>
10004b3a:	bd10      	pop	{r4, pc}
10004b3c:	20001e23 	.word	0x20001e23

10004b40 <timer_task>:
10004b40:	4b11      	ldr	r3, [pc, #68]	; (10004b88 <timer_task+0x48>)
10004b42:	b570      	push	{r4, r5, r6, lr}
10004b44:	681a      	ldr	r2, [r3, #0]
10004b46:	2a00      	cmp	r2, #0
10004b48:	d01a      	beq.n	10004b80 <timer_task+0x40>
10004b4a:	f3ef 8110 	mrs	r1, PRIMASK
10004b4e:	b672      	cpsid	i
10004b50:	6810      	ldr	r0, [r2, #0]
10004b52:	2800      	cmp	r0, #0
10004b54:	d0fc      	beq.n	10004b50 <timer_task+0x10>
10004b56:	f3bf 8f5f 	dmb	sy
10004b5a:	2200      	movs	r2, #0
10004b5c:	480b      	ldr	r0, [pc, #44]	; (10004b8c <timer_task+0x4c>)
10004b5e:	6059      	str	r1, [r3, #4]
10004b60:	7002      	strb	r2, [r0, #0]
10004b62:	681b      	ldr	r3, [r3, #0]
10004b64:	f3bf 8f5f 	dmb	sy
10004b68:	601a      	str	r2, [r3, #0]
10004b6a:	f381 8810 	msr	PRIMASK, r1
10004b6e:	2400      	movs	r4, #0
10004b70:	2500      	movs	r5, #0
10004b72:	4b07      	ldr	r3, [pc, #28]	; (10004b90 <timer_task+0x50>)
10004b74:	7818      	ldrb	r0, [r3, #0]
10004b76:	f7fb fe93 	bl	100008a0 <irq_set_pending>
10004b7a:	0029      	movs	r1, r5
10004b7c:	0020      	movs	r0, r4
10004b7e:	bd70      	pop	{r4, r5, r6, pc}
10004b80:	24fa      	movs	r4, #250	; 0xfa
10004b82:	2500      	movs	r5, #0
10004b84:	00a4      	lsls	r4, r4, #2
10004b86:	e7f4      	b.n	10004b72 <timer_task+0x32>
10004b88:	20001c8c 	.word	0x20001c8c
10004b8c:	20001e24 	.word	0x20001e24
10004b90:	20001e23 	.word	0x20001e23

10004b94 <stdio_usb_in_chars>:
10004b94:	b570      	push	{r4, r5, r6, lr}
10004b96:	0004      	movs	r4, r0
10004b98:	2000      	movs	r0, #0
10004b9a:	000e      	movs	r6, r1
10004b9c:	f001 fb08 	bl	100061b0 <tud_cdc_n_connected>
10004ba0:	2800      	cmp	r0, #0
10004ba2:	d035      	beq.n	10004c10 <stdio_usb_in_chars+0x7c>
10004ba4:	2000      	movs	r0, #0
10004ba6:	f001 fb1b 	bl	100061e0 <tud_cdc_n_available>
10004baa:	2800      	cmp	r0, #0
10004bac:	d030      	beq.n	10004c10 <stdio_usb_in_chars+0x7c>
10004bae:	f7fc fd35 	bl	1000161c <time_us_64>
10004bb2:	2300      	movs	r3, #0
10004bb4:	4a18      	ldr	r2, [pc, #96]	; (10004c18 <stdio_usb_in_chars+0x84>)
10004bb6:	1812      	adds	r2, r2, r0
10004bb8:	414b      	adcs	r3, r1
10004bba:	2b00      	cmp	r3, #0
10004bbc:	db24      	blt.n	10004c08 <stdio_usb_in_chars+0x74>
10004bbe:	4d17      	ldr	r5, [pc, #92]	; (10004c1c <stdio_usb_in_chars+0x88>)
10004bc0:	0028      	movs	r0, r5
10004bc2:	f002 f925 	bl	10006e10 <__mutex_try_enter_block_until_veneer>
10004bc6:	2800      	cmp	r0, #0
10004bc8:	d022      	beq.n	10004c10 <stdio_usb_in_chars+0x7c>
10004bca:	2000      	movs	r0, #0
10004bcc:	f001 faf0 	bl	100061b0 <tud_cdc_n_connected>
10004bd0:	2800      	cmp	r0, #0
10004bd2:	d10b      	bne.n	10004bec <stdio_usb_in_chars+0x58>
10004bd4:	2001      	movs	r0, #1
10004bd6:	2100      	movs	r1, #0
10004bd8:	2403      	movs	r4, #3
10004bda:	4240      	negs	r0, r0
10004bdc:	f000 fcd2 	bl	10005584 <tud_task_ext>
10004be0:	4264      	negs	r4, r4
10004be2:	0028      	movs	r0, r5
10004be4:	f002 f8d4 	bl	10006d90 <__mutex_exit_veneer>
10004be8:	0020      	movs	r0, r4
10004bea:	bd70      	pop	{r4, r5, r6, pc}
10004bec:	2000      	movs	r0, #0
10004bee:	f001 faf7 	bl	100061e0 <tud_cdc_n_available>
10004bf2:	2800      	cmp	r0, #0
10004bf4:	d0ee      	beq.n	10004bd4 <stdio_usb_in_chars+0x40>
10004bf6:	0021      	movs	r1, r4
10004bf8:	0032      	movs	r2, r6
10004bfa:	2000      	movs	r0, #0
10004bfc:	f001 fafc 	bl	100061f8 <tud_cdc_n_read>
10004c00:	1e04      	subs	r4, r0, #0
10004c02:	d1ee      	bne.n	10004be2 <stdio_usb_in_chars+0x4e>
10004c04:	3c03      	subs	r4, #3
10004c06:	e7ec      	b.n	10004be2 <stdio_usb_in_chars+0x4e>
10004c08:	2201      	movs	r2, #1
10004c0a:	4b05      	ldr	r3, [pc, #20]	; (10004c20 <stdio_usb_in_chars+0x8c>)
10004c0c:	4252      	negs	r2, r2
10004c0e:	e7d6      	b.n	10004bbe <stdio_usb_in_chars+0x2a>
10004c10:	2403      	movs	r4, #3
10004c12:	4264      	negs	r4, r4
10004c14:	e7e8      	b.n	10004be8 <stdio_usb_in_chars+0x54>
10004c16:	46c0      	nop			; (mov r8, r8)
10004c18:	000f4240 	.word	0x000f4240
10004c1c:	20001df4 	.word	0x20001df4
10004c20:	7fffffff 	.word	0x7fffffff

10004c24 <stdio_usb_out_chars>:
10004c24:	b5f8      	push	{r3, r4, r5, r6, r7, lr}
10004c26:	46de      	mov	lr, fp
10004c28:	4657      	mov	r7, sl
10004c2a:	b580      	push	{r7, lr}
10004c2c:	0005      	movs	r5, r0
10004c2e:	000c      	movs	r4, r1
10004c30:	f7fc fcf4 	bl	1000161c <time_us_64>
10004c34:	2300      	movs	r3, #0
10004c36:	4a36      	ldr	r2, [pc, #216]	; (10004d10 <stdio_usb_out_chars+0xec>)
10004c38:	1812      	adds	r2, r2, r0
10004c3a:	414b      	adcs	r3, r1
10004c3c:	2b00      	cmp	r3, #0
10004c3e:	db5a      	blt.n	10004cf6 <stdio_usb_out_chars+0xd2>
10004c40:	4934      	ldr	r1, [pc, #208]	; (10004d14 <stdio_usb_out_chars+0xf0>)
10004c42:	0008      	movs	r0, r1
10004c44:	468a      	mov	sl, r1
10004c46:	f002 f8e3 	bl	10006e10 <__mutex_try_enter_block_until_veneer>
10004c4a:	2800      	cmp	r0, #0
10004c4c:	d103      	bne.n	10004c56 <stdio_usb_out_chars+0x32>
10004c4e:	bcc0      	pop	{r6, r7}
10004c50:	46bb      	mov	fp, r7
10004c52:	46b2      	mov	sl, r6
10004c54:	bdf8      	pop	{r3, r4, r5, r6, r7, pc}
10004c56:	2000      	movs	r0, #0
10004c58:	f001 faaa 	bl	100061b0 <tud_cdc_n_connected>
10004c5c:	2800      	cmp	r0, #0
10004c5e:	d04e      	beq.n	10004cfe <stdio_usb_out_chars+0xda>
10004c60:	2600      	movs	r6, #0
10004c62:	2c00      	cmp	r4, #0
10004c64:	dd43      	ble.n	10004cee <stdio_usb_out_chars+0xca>
10004c66:	4b2c      	ldr	r3, [pc, #176]	; (10004d18 <stdio_usb_out_chars+0xf4>)
10004c68:	469b      	mov	fp, r3
10004c6a:	e014      	b.n	10004c96 <stdio_usb_out_chars+0x72>
10004c6c:	19a9      	adds	r1, r5, r6
10004c6e:	2000      	movs	r0, #0
10004c70:	f001 fb36 	bl	100062e0 <tud_cdc_n_write>
10004c74:	0007      	movs	r7, r0
10004c76:	2001      	movs	r0, #1
10004c78:	2100      	movs	r1, #0
10004c7a:	4240      	negs	r0, r0
10004c7c:	f000 fc82 	bl	10005584 <tud_task_ext>
10004c80:	2000      	movs	r0, #0
10004c82:	f001 faf1 	bl	10006268 <tud_cdc_n_write_flush>
10004c86:	f7fc fcc9 	bl	1000161c <time_us_64>
10004c8a:	4b23      	ldr	r3, [pc, #140]	; (10004d18 <stdio_usb_out_chars+0xf4>)
10004c8c:	19f6      	adds	r6, r6, r7
10004c8e:	6018      	str	r0, [r3, #0]
10004c90:	6059      	str	r1, [r3, #4]
10004c92:	42b4      	cmp	r4, r6
10004c94:	dd2b      	ble.n	10004cee <stdio_usb_out_chars+0xca>
10004c96:	2000      	movs	r0, #0
10004c98:	f001 fb3c 	bl	10006314 <tud_cdc_n_write_available>
10004c9c:	1ba7      	subs	r7, r4, r6
10004c9e:	0002      	movs	r2, r0
10004ca0:	42b8      	cmp	r0, r7
10004ca2:	dd00      	ble.n	10004ca6 <stdio_usb_out_chars+0x82>
10004ca4:	003a      	movs	r2, r7
10004ca6:	2a00      	cmp	r2, #0
10004ca8:	d1e0      	bne.n	10004c6c <stdio_usb_out_chars+0x48>
10004caa:	2001      	movs	r0, #1
10004cac:	2100      	movs	r1, #0
10004cae:	4240      	negs	r0, r0
10004cb0:	f000 fc68 	bl	10005584 <tud_task_ext>
10004cb4:	2000      	movs	r0, #0
10004cb6:	f001 fad7 	bl	10006268 <tud_cdc_n_write_flush>
10004cba:	2000      	movs	r0, #0
10004cbc:	f001 fa78 	bl	100061b0 <tud_cdc_n_connected>
10004cc0:	2800      	cmp	r0, #0
10004cc2:	d014      	beq.n	10004cee <stdio_usb_out_chars+0xca>
10004cc4:	2000      	movs	r0, #0
10004cc6:	f001 fb25 	bl	10006314 <tud_cdc_n_write_available>
10004cca:	2800      	cmp	r0, #0
10004ccc:	d1e1      	bne.n	10004c92 <stdio_usb_out_chars+0x6e>
10004cce:	f7fc fca5 	bl	1000161c <time_us_64>
10004cd2:	465b      	mov	r3, fp
10004cd4:	000f      	movs	r7, r1
10004cd6:	681a      	ldr	r2, [r3, #0]
10004cd8:	685b      	ldr	r3, [r3, #4]
10004cda:	2100      	movs	r1, #0
10004cdc:	4684      	mov	ip, r0
10004cde:	480f      	ldr	r0, [pc, #60]	; (10004d1c <stdio_usb_out_chars+0xf8>)
10004ce0:	1812      	adds	r2, r2, r0
10004ce2:	414b      	adcs	r3, r1
10004ce4:	429f      	cmp	r7, r3
10004ce6:	d802      	bhi.n	10004cee <stdio_usb_out_chars+0xca>
10004ce8:	d1d3      	bne.n	10004c92 <stdio_usb_out_chars+0x6e>
10004cea:	4594      	cmp	ip, r2
10004cec:	d9d1      	bls.n	10004c92 <stdio_usb_out_chars+0x6e>
10004cee:	4650      	mov	r0, sl
10004cf0:	f002 f84e 	bl	10006d90 <__mutex_exit_veneer>
10004cf4:	e7ab      	b.n	10004c4e <stdio_usb_out_chars+0x2a>
10004cf6:	2201      	movs	r2, #1
10004cf8:	4b09      	ldr	r3, [pc, #36]	; (10004d20 <stdio_usb_out_chars+0xfc>)
10004cfa:	4252      	negs	r2, r2
10004cfc:	e7a0      	b.n	10004c40 <stdio_usb_out_chars+0x1c>
10004cfe:	2000      	movs	r0, #0
10004d00:	2100      	movs	r1, #0
10004d02:	4b05      	ldr	r3, [pc, #20]	; (10004d18 <stdio_usb_out_chars+0xf4>)
10004d04:	6018      	str	r0, [r3, #0]
10004d06:	6059      	str	r1, [r3, #4]
10004d08:	4650      	mov	r0, sl
10004d0a:	f002 f841 	bl	10006d90 <__mutex_exit_veneer>
10004d0e:	e79e      	b.n	10004c4e <stdio_usb_out_chars+0x2a>
10004d10:	000f4240 	.word	0x000f4240
10004d14:	20001df4 	.word	0x20001df4
10004d18:	20001060 	.word	0x20001060
10004d1c:	0007a120 	.word	0x0007a120
10004d20:	7fffffff 	.word	0x7fffffff

10004d24 <low_priority_worker_irq>:
10004d24:	b510      	push	{r4, lr}
10004d26:	4c24      	ldr	r4, [pc, #144]	; (10004db8 <low_priority_worker_irq+0x94>)
10004d28:	b084      	sub	sp, #16
10004d2a:	2100      	movs	r1, #0
10004d2c:	0020      	movs	r0, r4
10004d2e:	f002 f85f 	bl	10006df0 <__mutex_try_enter_veneer>
10004d32:	2800      	cmp	r0, #0
10004d34:	d11c      	bne.n	10004d70 <low_priority_worker_irq+0x4c>
10004d36:	4b21      	ldr	r3, [pc, #132]	; (10004dbc <low_priority_worker_irq+0x98>)
10004d38:	681a      	ldr	r2, [r3, #0]
10004d3a:	2a00      	cmp	r2, #0
10004d3c:	d016      	beq.n	10004d6c <low_priority_worker_irq+0x48>
10004d3e:	f3ef 8110 	mrs	r1, PRIMASK
10004d42:	b672      	cpsid	i
10004d44:	6810      	ldr	r0, [r2, #0]
10004d46:	2800      	cmp	r0, #0
10004d48:	d0fc      	beq.n	10004d44 <low_priority_worker_irq+0x20>
10004d4a:	f3bf 8f5f 	dmb	sy
10004d4e:	2401      	movs	r4, #1
10004d50:	481b      	ldr	r0, [pc, #108]	; (10004dc0 <low_priority_worker_irq+0x9c>)
10004d52:	6059      	str	r1, [r3, #4]
10004d54:	7802      	ldrb	r2, [r0, #0]
10004d56:	681b      	ldr	r3, [r3, #0]
10004d58:	b2d2      	uxtb	r2, r2
10004d5a:	7004      	strb	r4, [r0, #0]
10004d5c:	f3bf 8f5f 	dmb	sy
10004d60:	2000      	movs	r0, #0
10004d62:	6018      	str	r0, [r3, #0]
10004d64:	f381 8810 	msr	PRIMASK, r1
10004d68:	2a00      	cmp	r2, #0
10004d6a:	d00a      	beq.n	10004d82 <low_priority_worker_irq+0x5e>
10004d6c:	b004      	add	sp, #16
10004d6e:	bd10      	pop	{r4, pc}
10004d70:	2001      	movs	r0, #1
10004d72:	2100      	movs	r1, #0
10004d74:	4240      	negs	r0, r0
10004d76:	f000 fc05 	bl	10005584 <tud_task_ext>
10004d7a:	0020      	movs	r0, r4
10004d7c:	f002 f808 	bl	10006d90 <__mutex_exit_veneer>
10004d80:	e7f4      	b.n	10004d6c <low_priority_worker_irq+0x48>
10004d82:	f7fc fa2b 	bl	100011dc <alarm_pool_get_default>
10004d86:	0004      	movs	r4, r0
10004d88:	f7fc fc48 	bl	1000161c <time_us_64>
10004d8c:	22fa      	movs	r2, #250	; 0xfa
10004d8e:	2300      	movs	r3, #0
10004d90:	0092      	lsls	r2, r2, #2
10004d92:	1812      	adds	r2, r2, r0
10004d94:	414b      	adcs	r3, r1
10004d96:	2b00      	cmp	r3, #0
10004d98:	db09      	blt.n	10004dae <low_priority_worker_irq+0x8a>
10004d9a:	2101      	movs	r1, #1
10004d9c:	9102      	str	r1, [sp, #8]
10004d9e:	2100      	movs	r1, #0
10004da0:	9101      	str	r1, [sp, #4]
10004da2:	4908      	ldr	r1, [pc, #32]	; (10004dc4 <low_priority_worker_irq+0xa0>)
10004da4:	0020      	movs	r0, r4
10004da6:	9100      	str	r1, [sp, #0]
10004da8:	f7fc fa1c 	bl	100011e4 <alarm_pool_add_alarm_at>
10004dac:	e7de      	b.n	10004d6c <low_priority_worker_irq+0x48>
10004dae:	2201      	movs	r2, #1
10004db0:	4b05      	ldr	r3, [pc, #20]	; (10004dc8 <low_priority_worker_irq+0xa4>)
10004db2:	4252      	negs	r2, r2
10004db4:	e7f1      	b.n	10004d9a <low_priority_worker_irq+0x76>
10004db6:	46c0      	nop			; (mov r8, r8)
10004db8:	20001df4 	.word	0x20001df4
10004dbc:	20001c8c 	.word	0x20001c8c
10004dc0:	20001e24 	.word	0x20001e24
10004dc4:	10004b41 	.word	0x10004b41
10004dc8:	7fffffff 	.word	0x7fffffff

10004dcc <tud_cdc_rx_cb>:
10004dcc:	4b05      	ldr	r3, [pc, #20]	; (10004de4 <tud_cdc_rx_cb+0x18>)
10004dce:	b510      	push	{r4, lr}
10004dd0:	6818      	ldr	r0, [r3, #0]
10004dd2:	2800      	cmp	r0, #0
10004dd4:	d004      	beq.n	10004de0 <tud_cdc_rx_cb+0x14>
10004dd6:	4b04      	ldr	r3, [pc, #16]	; (10004de8 <tud_cdc_rx_cb+0x1c>)
10004dd8:	2200      	movs	r2, #0
10004dda:	6819      	ldr	r1, [r3, #0]
10004ddc:	f001 f84a 	bl	10005e74 <usbd_defer_func>
10004de0:	bd10      	pop	{r4, pc}
10004de2:	46c0      	nop			; (mov r8, r8)
10004de4:	200017d8 	.word	0x200017d8
10004de8:	200017dc 	.word	0x200017dc

10004dec <stdio_usb_init>:
10004dec:	23d0      	movs	r3, #208	; 0xd0
10004dee:	b510      	push	{r4, lr}
10004df0:	061b      	lsls	r3, r3, #24
10004df2:	b084      	sub	sp, #16
10004df4:	681c      	ldr	r4, [r3, #0]
10004df6:	f7fc f9f1 	bl	100011dc <alarm_pool_get_default>
10004dfa:	f7fc faeb 	bl	100013d4 <alarm_pool_core_num>
10004dfe:	42a0      	cmp	r0, r4
10004e00:	d002      	beq.n	10004e08 <stdio_usb_init+0x1c>
10004e02:	2000      	movs	r0, #0
10004e04:	b004      	add	sp, #16
10004e06:	bd10      	pop	{r4, pc}
10004e08:	4b26      	ldr	r3, [pc, #152]	; (10004ea4 <stdio_usb_init+0xb8>)
10004e0a:	781b      	ldrb	r3, [r3, #0]
10004e0c:	f001 fc6c 	bl	100066e8 <tusb_init>
10004e10:	4825      	ldr	r0, [pc, #148]	; (10004ea8 <stdio_usb_init+0xbc>)
10004e12:	f7fb ffe9 	bl	10000de8 <mutex_init>
10004e16:	2001      	movs	r0, #1
10004e18:	f7fb ffca 	bl	10000db0 <user_irq_claim_unused>
10004e1c:	23ff      	movs	r3, #255	; 0xff
10004e1e:	4c23      	ldr	r4, [pc, #140]	; (10004eac <stdio_usb_init+0xc0>)
10004e20:	4923      	ldr	r1, [pc, #140]	; (10004eb0 <stdio_usb_init+0xc4>)
10004e22:	7020      	strb	r0, [r4, #0]
10004e24:	4018      	ands	r0, r3
10004e26:	f7fb fd61 	bl	100008ec <irq_set_exclusive_handler>
10004e2a:	7820      	ldrb	r0, [r4, #0]
10004e2c:	2101      	movs	r1, #1
10004e2e:	f7fb fd25 	bl	1000087c <irq_set_enabled>
10004e32:	2005      	movs	r0, #5
10004e34:	f7fb fd3c 	bl	100008b0 <irq_has_shared_handler>
10004e38:	2800      	cmp	r0, #0
10004e3a:	d122      	bne.n	10004e82 <stdio_usb_init+0x96>
10004e3c:	f7fc f9ce 	bl	100011dc <alarm_pool_get_default>
10004e40:	0004      	movs	r4, r0
10004e42:	f7fc fbeb 	bl	1000161c <time_us_64>
10004e46:	22fa      	movs	r2, #250	; 0xfa
10004e48:	2300      	movs	r3, #0
10004e4a:	0092      	lsls	r2, r2, #2
10004e4c:	1812      	adds	r2, r2, r0
10004e4e:	414b      	adcs	r3, r1
10004e50:	2b00      	cmp	r3, #0
10004e52:	db22      	blt.n	10004e9a <stdio_usb_init+0xae>
10004e54:	2101      	movs	r1, #1
10004e56:	9102      	str	r1, [sp, #8]
10004e58:	2100      	movs	r1, #0
10004e5a:	9101      	str	r1, [sp, #4]
10004e5c:	4915      	ldr	r1, [pc, #84]	; (10004eb4 <stdio_usb_init+0xc8>)
10004e5e:	0020      	movs	r0, r4
10004e60:	9100      	str	r1, [sp, #0]
10004e62:	f7fc f9bf 	bl	100011e4 <alarm_pool_add_alarm_at>
10004e66:	2208      	movs	r2, #8
10004e68:	0004      	movs	r4, r0
10004e6a:	2100      	movs	r1, #0
10004e6c:	4812      	ldr	r0, [pc, #72]	; (10004eb8 <stdio_usb_init+0xcc>)
10004e6e:	f7ff fb8f 	bl	10004590 <__wrap_memset>
10004e72:	2c00      	cmp	r4, #0
10004e74:	dbc5      	blt.n	10004e02 <stdio_usb_init+0x16>
10004e76:	4811      	ldr	r0, [pc, #68]	; (10004ebc <stdio_usb_init+0xd0>)
10004e78:	2101      	movs	r1, #1
10004e7a:	f7ff fd11 	bl	100048a0 <stdio_set_driver_enabled>
10004e7e:	2001      	movs	r0, #1
10004e80:	e7c0      	b.n	10004e04 <stdio_usb_init+0x18>
10004e82:	2200      	movs	r2, #0
10004e84:	490e      	ldr	r1, [pc, #56]	; (10004ec0 <stdio_usb_init+0xd4>)
10004e86:	2005      	movs	r0, #5
10004e88:	f7fb fd5a 	bl	10000940 <irq_add_shared_handler>
10004e8c:	f7fb fcda 	bl	10000844 <next_striped_spin_lock_num>
10004e90:	0001      	movs	r1, r0
10004e92:	4809      	ldr	r0, [pc, #36]	; (10004eb8 <stdio_usb_init+0xcc>)
10004e94:	f7fb ffd4 	bl	10000e40 <critical_section_init_with_lock_num>
10004e98:	e7ed      	b.n	10004e76 <stdio_usb_init+0x8a>
10004e9a:	2201      	movs	r2, #1
10004e9c:	4b09      	ldr	r3, [pc, #36]	; (10004ec4 <stdio_usb_init+0xd8>)
10004e9e:	4252      	negs	r2, r2
10004ea0:	e7d8      	b.n	10004e54 <stdio_usb_init+0x68>
10004ea2:	46c0      	nop			; (mov r8, r8)
10004ea4:	10007760 	.word	0x10007760
10004ea8:	20001df4 	.word	0x20001df4
10004eac:	20001e23 	.word	0x20001e23
10004eb0:	10004d25 	.word	0x10004d25
10004eb4:	10004b41 	.word	0x10004b41
10004eb8:	20001c8c 	.word	0x20001c8c
10004ebc:	20000f00 	.word	0x20000f00
10004ec0:	10004b31 	.word	0x10004b31
10004ec4:	7fffffff 	.word	0x7fffffff

10004ec8 <stdio_usb_connected>:
10004ec8:	b510      	push	{r4, lr}
10004eca:	2000      	movs	r0, #0
10004ecc:	f001 f970 	bl	100061b0 <tud_cdc_n_connected>
10004ed0:	bd10      	pop	{r4, pc}
10004ed2:	46c0      	nop			; (mov r8, r8)

10004ed4 <tud_descriptor_device_cb>:
10004ed4:	4800      	ldr	r0, [pc, #0]	; (10004ed8 <tud_descriptor_device_cb+0x4>)
10004ed6:	4770      	bx	lr
10004ed8:	1000760c 	.word	0x1000760c

10004edc <tud_descriptor_configuration_cb>:
10004edc:	4800      	ldr	r0, [pc, #0]	; (10004ee0 <tud_descriptor_configuration_cb+0x4>)
10004ede:	4770      	bx	lr
10004ee0:	100075b8 	.word	0x100075b8

10004ee4 <tud_descriptor_string_cb>:
10004ee4:	b570      	push	{r4, r5, r6, lr}
10004ee6:	0004      	movs	r4, r0
10004ee8:	4817      	ldr	r0, [pc, #92]	; (10004f48 <tud_descriptor_string_cb+0x64>)
10004eea:	7803      	ldrb	r3, [r0, #0]
10004eec:	2b00      	cmp	r3, #0
10004eee:	d021      	beq.n	10004f34 <tud_descriptor_string_cb+0x50>
10004ef0:	2c00      	cmp	r4, #0
10004ef2:	d106      	bne.n	10004f02 <tud_descriptor_string_cb+0x1e>
10004ef4:	24c1      	movs	r4, #193	; 0xc1
10004ef6:	4815      	ldr	r0, [pc, #84]	; (10004f4c <tud_descriptor_string_cb+0x68>)
10004ef8:	4b15      	ldr	r3, [pc, #84]	; (10004f50 <tud_descriptor_string_cb+0x6c>)
10004efa:	00a4      	lsls	r4, r4, #2
10004efc:	8043      	strh	r3, [r0, #2]
10004efe:	8004      	strh	r4, [r0, #0]
10004f00:	bd70      	pop	{r4, r5, r6, pc}
10004f02:	2c05      	cmp	r4, #5
10004f04:	d81d      	bhi.n	10004f42 <tud_descriptor_string_cb+0x5e>
10004f06:	4b13      	ldr	r3, [pc, #76]	; (10004f54 <tud_descriptor_string_cb+0x70>)
10004f08:	4810      	ldr	r0, [pc, #64]	; (10004f4c <tud_descriptor_string_cb+0x68>)
10004f0a:	00a4      	lsls	r4, r4, #2
10004f0c:	58e5      	ldr	r5, [r4, r3]
10004f0e:	1c81      	adds	r1, r0, #2
10004f10:	2300      	movs	r3, #0
10004f12:	e004      	b.n	10004f1e <tud_descriptor_string_cb+0x3a>
10004f14:	3301      	adds	r3, #1
10004f16:	800a      	strh	r2, [r1, #0]
10004f18:	3102      	adds	r1, #2
10004f1a:	2b13      	cmp	r3, #19
10004f1c:	d00e      	beq.n	10004f3c <tud_descriptor_string_cb+0x58>
10004f1e:	5cea      	ldrb	r2, [r5, r3]
10004f20:	b2dc      	uxtb	r4, r3
10004f22:	2a00      	cmp	r2, #0
10004f24:	d1f6      	bne.n	10004f14 <tud_descriptor_string_cb+0x30>
10004f26:	23c0      	movs	r3, #192	; 0xc0
10004f28:	3401      	adds	r4, #1
10004f2a:	b2e4      	uxtb	r4, r4
10004f2c:	0064      	lsls	r4, r4, #1
10004f2e:	009b      	lsls	r3, r3, #2
10004f30:	431c      	orrs	r4, r3
10004f32:	e7e4      	b.n	10004efe <tud_descriptor_string_cb+0x1a>
10004f34:	2111      	movs	r1, #17
10004f36:	f000 f817 	bl	10004f68 <pico_get_unique_board_id_string>
10004f3a:	e7d9      	b.n	10004ef0 <tud_descriptor_string_cb+0xc>
10004f3c:	24ca      	movs	r4, #202	; 0xca
10004f3e:	00a4      	lsls	r4, r4, #2
10004f40:	e7dd      	b.n	10004efe <tud_descriptor_string_cb+0x1a>
10004f42:	2000      	movs	r0, #0
10004f44:	e7dc      	b.n	10004f00 <tud_descriptor_string_cb+0x1c>
10004f46:	46c0      	nop			; (mov r8, r8)
10004f48:	20001e0c 	.word	0x20001e0c
10004f4c:	2000184c 	.word	0x2000184c
10004f50:	00000409 	.word	0x00000409
10004f54:	10007620 	.word	0x10007620

10004f58 <_retrieve_unique_id_on_boot>:
10004f58:	b510      	push	{r4, lr}
10004f5a:	4802      	ldr	r0, [pc, #8]	; (10004f64 <_retrieve_unique_id_on_boot+0xc>)
10004f5c:	f000 f8d8 	bl	10005110 <flash_get_unique_id>
10004f60:	bd10      	pop	{r4, pc}
10004f62:	46c0      	nop			; (mov r8, r8)
10004f64:	20001ce4 	.word	0x20001ce4

10004f68 <pico_get_unique_board_id_string>:
10004f68:	b530      	push	{r4, r5, lr}
10004f6a:	1e4b      	subs	r3, r1, #1
10004f6c:	2901      	cmp	r1, #1
10004f6e:	d100      	bne.n	10004f72 <pico_get_unique_board_id_string+0xa>
10004f70:	e0a7      	b.n	100050c2 <pico_get_unique_board_id_string+0x15a>
10004f72:	4a66      	ldr	r2, [pc, #408]	; (1000510c <pico_get_unique_board_id_string+0x1a4>)
10004f74:	7811      	ldrb	r1, [r2, #0]
10004f76:	110d      	asrs	r5, r1, #4
10004f78:	002c      	movs	r4, r5
10004f7a:	3430      	adds	r4, #48	; 0x30
10004f7c:	299f      	cmp	r1, #159	; 0x9f
10004f7e:	d900      	bls.n	10004f82 <pico_get_unique_board_id_string+0x1a>
10004f80:	e0a2      	b.n	100050c8 <pico_get_unique_board_id_string+0x160>
10004f82:	7004      	strb	r4, [r0, #0]
10004f84:	2b01      	cmp	r3, #1
10004f86:	d100      	bne.n	10004f8a <pico_get_unique_board_id_string+0x22>
10004f88:	e0be      	b.n	10005108 <pico_get_unique_board_id_string+0x1a0>
10004f8a:	210f      	movs	r1, #15
10004f8c:	7814      	ldrb	r4, [r2, #0]
10004f8e:	4021      	ands	r1, r4
10004f90:	000c      	movs	r4, r1
10004f92:	3430      	adds	r4, #48	; 0x30
10004f94:	2909      	cmp	r1, #9
10004f96:	dd00      	ble.n	10004f9a <pico_get_unique_board_id_string+0x32>
10004f98:	e098      	b.n	100050cc <pico_get_unique_board_id_string+0x164>
10004f9a:	7044      	strb	r4, [r0, #1]
10004f9c:	2b02      	cmp	r3, #2
10004f9e:	d100      	bne.n	10004fa2 <pico_get_unique_board_id_string+0x3a>
10004fa0:	e0b2      	b.n	10005108 <pico_get_unique_board_id_string+0x1a0>
10004fa2:	7854      	ldrb	r4, [r2, #1]
10004fa4:	1125      	asrs	r5, r4, #4
10004fa6:	0029      	movs	r1, r5
10004fa8:	3130      	adds	r1, #48	; 0x30
10004faa:	2c9f      	cmp	r4, #159	; 0x9f
10004fac:	d900      	bls.n	10004fb0 <pico_get_unique_board_id_string+0x48>
10004fae:	e090      	b.n	100050d2 <pico_get_unique_board_id_string+0x16a>
10004fb0:	7081      	strb	r1, [r0, #2]
10004fb2:	2b03      	cmp	r3, #3
10004fb4:	d100      	bne.n	10004fb8 <pico_get_unique_board_id_string+0x50>
10004fb6:	e0a7      	b.n	10005108 <pico_get_unique_board_id_string+0x1a0>
10004fb8:	210f      	movs	r1, #15
10004fba:	4021      	ands	r1, r4
10004fbc:	000c      	movs	r4, r1
10004fbe:	3430      	adds	r4, #48	; 0x30
10004fc0:	2909      	cmp	r1, #9
10004fc2:	dd00      	ble.n	10004fc6 <pico_get_unique_board_id_string+0x5e>
10004fc4:	e087      	b.n	100050d6 <pico_get_unique_board_id_string+0x16e>
10004fc6:	70c4      	strb	r4, [r0, #3]
10004fc8:	2b04      	cmp	r3, #4
10004fca:	d100      	bne.n	10004fce <pico_get_unique_board_id_string+0x66>
10004fcc:	e09c      	b.n	10005108 <pico_get_unique_board_id_string+0x1a0>
10004fce:	7894      	ldrb	r4, [r2, #2]
10004fd0:	1125      	asrs	r5, r4, #4
10004fd2:	0029      	movs	r1, r5
10004fd4:	3130      	adds	r1, #48	; 0x30
10004fd6:	2c9f      	cmp	r4, #159	; 0x9f
10004fd8:	d900      	bls.n	10004fdc <pico_get_unique_board_id_string+0x74>
10004fda:	e07f      	b.n	100050dc <pico_get_unique_board_id_string+0x174>
10004fdc:	7101      	strb	r1, [r0, #4]
10004fde:	2b05      	cmp	r3, #5
10004fe0:	d100      	bne.n	10004fe4 <pico_get_unique_board_id_string+0x7c>
10004fe2:	e091      	b.n	10005108 <pico_get_unique_board_id_string+0x1a0>
10004fe4:	210f      	movs	r1, #15
10004fe6:	4021      	ands	r1, r4
10004fe8:	000c      	movs	r4, r1
10004fea:	3430      	adds	r4, #48	; 0x30
10004fec:	2909      	cmp	r1, #9
10004fee:	dd00      	ble.n	10004ff2 <pico_get_unique_board_id_string+0x8a>
10004ff0:	e076      	b.n	100050e0 <pico_get_unique_board_id_string+0x178>
10004ff2:	7144      	strb	r4, [r0, #5]
10004ff4:	2b06      	cmp	r3, #6
10004ff6:	d100      	bne.n	10004ffa <pico_get_unique_board_id_string+0x92>
10004ff8:	e086      	b.n	10005108 <pico_get_unique_board_id_string+0x1a0>
10004ffa:	78d4      	ldrb	r4, [r2, #3]
10004ffc:	1125      	asrs	r5, r4, #4
10004ffe:	0029      	movs	r1, r5
10005000:	3130      	adds	r1, #48	; 0x30
10005002:	2c9f      	cmp	r4, #159	; 0x9f
10005004:	d900      	bls.n	10005008 <pico_get_unique_board_id_string+0xa0>
10005006:	e06e      	b.n	100050e6 <pico_get_unique_board_id_string+0x17e>
10005008:	7181      	strb	r1, [r0, #6]
1000500a:	2b07      	cmp	r3, #7
1000500c:	d100      	bne.n	10005010 <pico_get_unique_board_id_string+0xa8>
1000500e:	e07b      	b.n	10005108 <pico_get_unique_board_id_string+0x1a0>
10005010:	210f      	movs	r1, #15
10005012:	4021      	ands	r1, r4
10005014:	000c      	movs	r4, r1
10005016:	3430      	adds	r4, #48	; 0x30
10005018:	2909      	cmp	r1, #9
1000501a:	dc66      	bgt.n	100050ea <pico_get_unique_board_id_string+0x182>
1000501c:	71c4      	strb	r4, [r0, #7]
1000501e:	2b08      	cmp	r3, #8
10005020:	d100      	bne.n	10005024 <pico_get_unique_board_id_string+0xbc>
10005022:	e071      	b.n	10005108 <pico_get_unique_board_id_string+0x1a0>
10005024:	7914      	ldrb	r4, [r2, #4]
10005026:	1125      	asrs	r5, r4, #4
10005028:	0029      	movs	r1, r5
1000502a:	3130      	adds	r1, #48	; 0x30
1000502c:	2c9f      	cmp	r4, #159	; 0x9f
1000502e:	d85f      	bhi.n	100050f0 <pico_get_unique_board_id_string+0x188>
10005030:	7201      	strb	r1, [r0, #8]
10005032:	2b09      	cmp	r3, #9
10005034:	d068      	beq.n	10005108 <pico_get_unique_board_id_string+0x1a0>
10005036:	210f      	movs	r1, #15
10005038:	4021      	ands	r1, r4
1000503a:	000c      	movs	r4, r1
1000503c:	3430      	adds	r4, #48	; 0x30
1000503e:	2909      	cmp	r1, #9
10005040:	dc58      	bgt.n	100050f4 <pico_get_unique_board_id_string+0x18c>
10005042:	7244      	strb	r4, [r0, #9]
10005044:	2b0a      	cmp	r3, #10
10005046:	d05f      	beq.n	10005108 <pico_get_unique_board_id_string+0x1a0>
10005048:	7954      	ldrb	r4, [r2, #5]
1000504a:	1125      	asrs	r5, r4, #4
1000504c:	0029      	movs	r1, r5
1000504e:	3130      	adds	r1, #48	; 0x30
10005050:	2c9f      	cmp	r4, #159	; 0x9f
10005052:	d852      	bhi.n	100050fa <pico_get_unique_board_id_string+0x192>
10005054:	7281      	strb	r1, [r0, #10]
10005056:	2b0b      	cmp	r3, #11
10005058:	d056      	beq.n	10005108 <pico_get_unique_board_id_string+0x1a0>
1000505a:	210f      	movs	r1, #15
1000505c:	4021      	ands	r1, r4
1000505e:	000c      	movs	r4, r1
10005060:	3430      	adds	r4, #48	; 0x30
10005062:	2909      	cmp	r1, #9
10005064:	dc4b      	bgt.n	100050fe <pico_get_unique_board_id_string+0x196>
10005066:	72c4      	strb	r4, [r0, #11]
10005068:	2b0c      	cmp	r3, #12
1000506a:	d04d      	beq.n	10005108 <pico_get_unique_board_id_string+0x1a0>
1000506c:	7994      	ldrb	r4, [r2, #6]
1000506e:	1125      	asrs	r5, r4, #4
10005070:	0029      	movs	r1, r5
10005072:	3130      	adds	r1, #48	; 0x30
10005074:	2c9f      	cmp	r4, #159	; 0x9f
10005076:	d900      	bls.n	1000507a <pico_get_unique_board_id_string+0x112>
10005078:	3107      	adds	r1, #7
1000507a:	7301      	strb	r1, [r0, #12]
1000507c:	2b0d      	cmp	r3, #13
1000507e:	d043      	beq.n	10005108 <pico_get_unique_board_id_string+0x1a0>
10005080:	210f      	movs	r1, #15
10005082:	4021      	ands	r1, r4
10005084:	000c      	movs	r4, r1
10005086:	3430      	adds	r4, #48	; 0x30
10005088:	2909      	cmp	r1, #9
1000508a:	dd01      	ble.n	10005090 <pico_get_unique_board_id_string+0x128>
1000508c:	3137      	adds	r1, #55	; 0x37
1000508e:	000c      	movs	r4, r1
10005090:	7344      	strb	r4, [r0, #13]
10005092:	2b0e      	cmp	r3, #14
10005094:	d038      	beq.n	10005108 <pico_get_unique_board_id_string+0x1a0>
10005096:	79d1      	ldrb	r1, [r2, #7]
10005098:	110c      	asrs	r4, r1, #4
1000509a:	0022      	movs	r2, r4
1000509c:	3230      	adds	r2, #48	; 0x30
1000509e:	299f      	cmp	r1, #159	; 0x9f
100050a0:	d900      	bls.n	100050a4 <pico_get_unique_board_id_string+0x13c>
100050a2:	3207      	adds	r2, #7
100050a4:	7382      	strb	r2, [r0, #14]
100050a6:	2b0f      	cmp	r3, #15
100050a8:	d02e      	beq.n	10005108 <pico_get_unique_board_id_string+0x1a0>
100050aa:	220f      	movs	r2, #15
100050ac:	400a      	ands	r2, r1
100050ae:	0011      	movs	r1, r2
100050b0:	3137      	adds	r1, #55	; 0x37
100050b2:	2a09      	cmp	r2, #9
100050b4:	dc01      	bgt.n	100050ba <pico_get_unique_board_id_string+0x152>
100050b6:	3230      	adds	r2, #48	; 0x30
100050b8:	0011      	movs	r1, r2
100050ba:	73c1      	strb	r1, [r0, #15]
100050bc:	2b10      	cmp	r3, #16
100050be:	d023      	beq.n	10005108 <pico_get_unique_board_id_string+0x1a0>
100050c0:	3010      	adds	r0, #16
100050c2:	2300      	movs	r3, #0
100050c4:	7003      	strb	r3, [r0, #0]
100050c6:	bd30      	pop	{r4, r5, pc}
100050c8:	3407      	adds	r4, #7
100050ca:	e75a      	b.n	10004f82 <pico_get_unique_board_id_string+0x1a>
100050cc:	3137      	adds	r1, #55	; 0x37
100050ce:	000c      	movs	r4, r1
100050d0:	e763      	b.n	10004f9a <pico_get_unique_board_id_string+0x32>
100050d2:	3107      	adds	r1, #7
100050d4:	e76c      	b.n	10004fb0 <pico_get_unique_board_id_string+0x48>
100050d6:	3137      	adds	r1, #55	; 0x37
100050d8:	000c      	movs	r4, r1
100050da:	e774      	b.n	10004fc6 <pico_get_unique_board_id_string+0x5e>
100050dc:	3107      	adds	r1, #7
100050de:	e77d      	b.n	10004fdc <pico_get_unique_board_id_string+0x74>
100050e0:	3137      	adds	r1, #55	; 0x37
100050e2:	000c      	movs	r4, r1
100050e4:	e785      	b.n	10004ff2 <pico_get_unique_board_id_string+0x8a>
100050e6:	3107      	adds	r1, #7
100050e8:	e78e      	b.n	10005008 <pico_get_unique_board_id_string+0xa0>
100050ea:	3137      	adds	r1, #55	; 0x37
100050ec:	000c      	movs	r4, r1
100050ee:	e795      	b.n	1000501c <pico_get_unique_board_id_string+0xb4>
100050f0:	3107      	adds	r1, #7
100050f2:	e79d      	b.n	10005030 <pico_get_unique_board_id_string+0xc8>
100050f4:	3137      	adds	r1, #55	; 0x37
100050f6:	000c      	movs	r4, r1
100050f8:	e7a3      	b.n	10005042 <pico_get_unique_board_id_string+0xda>
100050fa:	3107      	adds	r1, #7
100050fc:	e7aa      	b.n	10005054 <pico_get_unique_board_id_string+0xec>
100050fe:	3137      	adds	r1, #55	; 0x37
10005100:	000c      	movs	r4, r1
10005102:	72c4      	strb	r4, [r0, #11]
10005104:	2b0c      	cmp	r3, #12
10005106:	d1b1      	bne.n	1000506c <pico_get_unique_board_id_string+0x104>
10005108:	18c0      	adds	r0, r0, r3
1000510a:	e7da      	b.n	100050c2 <pico_get_unique_board_id_string+0x15a>
1000510c:	20001ce4 	.word	0x20001ce4

10005110 <flash_get_unique_id>:
10005110:	b530      	push	{r4, r5, lr}
10005112:	2500      	movs	r5, #0
10005114:	b089      	sub	sp, #36	; 0x24
10005116:	0004      	movs	r4, r0
10005118:	2209      	movs	r2, #9
1000511a:	2100      	movs	r1, #0
1000511c:	a801      	add	r0, sp, #4
1000511e:	9500      	str	r5, [sp, #0]
10005120:	f7ff fa36 	bl	10004590 <__wrap_memset>
10005124:	2209      	movs	r2, #9
10005126:	2100      	movs	r1, #0
10005128:	a805      	add	r0, sp, #20
1000512a:	9504      	str	r5, [sp, #16]
1000512c:	f7ff fa30 	bl	10004590 <__wrap_memset>
10005130:	234b      	movs	r3, #75	; 0x4b
10005132:	466a      	mov	r2, sp
10005134:	4668      	mov	r0, sp
10005136:	7013      	strb	r3, [r2, #0]
10005138:	a904      	add	r1, sp, #16
1000513a:	220d      	movs	r2, #13
1000513c:	f001 fe20 	bl	10006d80 <__flash_do_cmd_veneer>
10005140:	2115      	movs	r1, #21
10005142:	2208      	movs	r2, #8
10005144:	0020      	movs	r0, r4
10005146:	4469      	add	r1, sp
10005148:	f7ff fa28 	bl	1000459c <__wrap___aeabi_memcpy>
1000514c:	b009      	add	sp, #36	; 0x24
1000514e:	bd30      	pop	{r4, r5, pc}

10005150 <dcd_int_enable>:
10005150:	b510      	push	{r4, lr}
10005152:	2101      	movs	r1, #1
10005154:	2005      	movs	r0, #5
10005156:	f7fb fb91 	bl	1000087c <irq_set_enabled>
1000515a:	bd10      	pop	{r4, pc}

1000515c <dcd_set_address>:
1000515c:	b510      	push	{r4, lr}
1000515e:	2200      	movs	r2, #0
10005160:	2100      	movs	r1, #0
10005162:	4802      	ldr	r0, [pc, #8]	; (1000516c <dcd_set_address+0x10>)
10005164:	f000 f95a 	bl	1000541c <hw_endpoint_xfer_start>
10005168:	bd10      	pop	{r4, pc}
1000516a:	46c0      	nop			; (mov r8, r8)
1000516c:	200018a0 	.word	0x200018a0

10005170 <dcd_connect>:
10005170:	2280      	movs	r2, #128	; 0x80
10005172:	4b02      	ldr	r3, [pc, #8]	; (1000517c <dcd_connect+0xc>)
10005174:	0252      	lsls	r2, r2, #9
10005176:	64da      	str	r2, [r3, #76]	; 0x4c
10005178:	4770      	bx	lr
1000517a:	46c0      	nop			; (mov r8, r8)
1000517c:	50112000 	.word	0x50112000

10005180 <dcd_init>:
10005180:	b5f0      	push	{r4, r5, r6, r7, lr}
10005182:	46c6      	mov	lr, r8
10005184:	b500      	push	{lr}
10005186:	0006      	movs	r6, r0
10005188:	f000 f922 	bl	100053d0 <rp2040_usb_init>
1000518c:	230c      	movs	r3, #12
1000518e:	4d1b      	ldr	r5, [pc, #108]	; (100051fc <dcd_init+0x7c>)
10005190:	22ff      	movs	r2, #255	; 0xff
10005192:	67ab      	str	r3, [r5, #120]	; 0x78
10005194:	2005      	movs	r0, #5
10005196:	491a      	ldr	r1, [pc, #104]	; (10005200 <dcd_init+0x80>)
10005198:	f7fb fbd2 	bl	10000940 <irq_add_shared_handler>
1000519c:	2340      	movs	r3, #64	; 0x40
1000519e:	4698      	mov	r8, r3
100051a0:	4c18      	ldr	r4, [pc, #96]	; (10005204 <dcd_init+0x84>)
100051a2:	2240      	movs	r2, #64	; 0x40
100051a4:	2100      	movs	r1, #0
100051a6:	0020      	movs	r0, r4
100051a8:	f7ff f9f2 	bl	10004590 <__wrap_memset>
100051ac:	4643      	mov	r3, r8
100051ae:	2701      	movs	r7, #1
100051b0:	8323      	strh	r3, [r4, #24]
100051b2:	2121      	movs	r1, #33	; 0x21
100051b4:	2300      	movs	r3, #0
100051b6:	4a14      	ldr	r2, [pc, #80]	; (10005208 <dcd_init+0x88>)
100051b8:	7067      	strb	r7, [r4, #1]
100051ba:	60a2      	str	r2, [r4, #8]
100051bc:	6013      	str	r3, [r2, #0]
100051be:	5463      	strb	r3, [r4, r1]
100051c0:	315f      	adds	r1, #95	; 0x5f
100051c2:	8461      	strh	r1, [r4, #34]	; 0x22
100051c4:	4641      	mov	r1, r8
100051c6:	8721      	strh	r1, [r4, #56]	; 0x38
100051c8:	3905      	subs	r1, #5
100051ca:	5463      	strb	r3, [r4, r1]
100051cc:	4a0f      	ldr	r2, [pc, #60]	; (1000520c <dcd_init+0x8c>)
100051ce:	4910      	ldr	r1, [pc, #64]	; (10005210 <dcd_init+0x90>)
100051d0:	6063      	str	r3, [r4, #4]
100051d2:	60e2      	str	r2, [r4, #12]
100051d4:	62a1      	str	r1, [r4, #40]	; 0x28
100051d6:	600b      	str	r3, [r1, #0]
100051d8:	6263      	str	r3, [r4, #36]	; 0x24
100051da:	62e2      	str	r2, [r4, #44]	; 0x2c
100051dc:	f001 fde8 	bl	10006db0 <__reset_non_control_endpoints_veneer>
100051e0:	2380      	movs	r3, #128	; 0x80
100051e2:	059b      	lsls	r3, r3, #22
100051e4:	642f      	str	r7, [r5, #64]	; 0x40
100051e6:	64eb      	str	r3, [r5, #76]	; 0x4c
100051e8:	2390      	movs	r3, #144	; 0x90
100051ea:	4a0a      	ldr	r2, [pc, #40]	; (10005214 <dcd_init+0x94>)
100051ec:	0030      	movs	r0, r6
100051ee:	50ea      	str	r2, [r5, r3]
100051f0:	f7ff ffbe 	bl	10005170 <dcd_connect>
100051f4:	bc80      	pop	{r7}
100051f6:	46b8      	mov	r8, r7
100051f8:	bdf0      	pop	{r4, r5, r6, r7, pc}
100051fa:	46c0      	nop			; (mov r8, r8)
100051fc:	50110000 	.word	0x50110000
10005200:	200004f9 	.word	0x200004f9
10005204:	20001880 	.word	0x20001880
10005208:	50100084 	.word	0x50100084
1000520c:	50100100 	.word	0x50100100
10005210:	50100080 	.word	0x50100080
10005214:	0001d010 	.word	0x0001d010

10005218 <dcd_edpt0_status_complete>:
10005218:	780b      	ldrb	r3, [r1, #0]
1000521a:	065b      	lsls	r3, r3, #25
1000521c:	d102      	bne.n	10005224 <dcd_edpt0_status_complete+0xc>
1000521e:	784b      	ldrb	r3, [r1, #1]
10005220:	2b05      	cmp	r3, #5
10005222:	d000      	beq.n	10005226 <dcd_edpt0_status_complete+0xe>
10005224:	4770      	bx	lr
10005226:	788a      	ldrb	r2, [r1, #2]
10005228:	4b01      	ldr	r3, [pc, #4]	; (10005230 <dcd_edpt0_status_complete+0x18>)
1000522a:	601a      	str	r2, [r3, #0]
1000522c:	e7fa      	b.n	10005224 <dcd_edpt0_status_complete+0xc>
1000522e:	46c0      	nop			; (mov r8, r8)
10005230:	50110000 	.word	0x50110000

10005234 <dcd_edpt_open>:
10005234:	b5f0      	push	{r4, r5, r6, r7, lr}
10005236:	46c6      	mov	lr, r8
10005238:	b500      	push	{lr}
1000523a:	794b      	ldrb	r3, [r1, #5]
1000523c:	790c      	ldrb	r4, [r1, #4]
1000523e:	021b      	lsls	r3, r3, #8
10005240:	7888      	ldrb	r0, [r1, #2]
10005242:	4323      	orrs	r3, r4
10005244:	78cc      	ldrb	r4, [r1, #3]
10005246:	217f      	movs	r1, #127	; 0x7f
10005248:	07a4      	lsls	r4, r4, #30
1000524a:	4001      	ands	r1, r0
1000524c:	09c5      	lsrs	r5, r0, #7
1000524e:	0fa2      	lsrs	r2, r4, #30
10005250:	004f      	lsls	r7, r1, #1
10005252:	0014      	movs	r4, r2
10005254:	4e32      	ldr	r6, [pc, #200]	; (10005320 <dcd_edpt_open+0xec>)
10005256:	197a      	adds	r2, r7, r5
10005258:	0152      	lsls	r2, r2, #5
1000525a:	18b2      	adds	r2, r6, r2
1000525c:	7090      	strb	r0, [r2, #2]
1000525e:	2001      	movs	r0, #1
10005260:	4068      	eors	r0, r5
10005262:	7050      	strb	r0, [r2, #1]
10005264:	2000      	movs	r0, #0
10005266:	055b      	lsls	r3, r3, #21
10005268:	0d5b      	lsrs	r3, r3, #21
1000526a:	70d0      	strb	r0, [r2, #3]
1000526c:	8313      	strh	r3, [r2, #24]
1000526e:	76d4      	strb	r4, [r2, #27]
10005270:	4680      	mov	r8, r0
10005272:	00ca      	lsls	r2, r1, #3
10005274:	2d01      	cmp	r5, #1
10005276:	d033      	beq.n	100052e0 <dcd_edpt_open+0xac>
10005278:	482a      	ldr	r0, [pc, #168]	; (10005324 <dcd_edpt_open+0xf0>)
1000527a:	4684      	mov	ip, r0
1000527c:	0188      	lsls	r0, r1, #6
1000527e:	4462      	add	r2, ip
10005280:	4684      	mov	ip, r0
10005282:	44b4      	add	ip, r6
10005284:	4660      	mov	r0, ip
10005286:	6082      	str	r2, [r0, #8]
10005288:	4640      	mov	r0, r8
1000528a:	6010      	str	r0, [r2, #0]
1000528c:	2900      	cmp	r1, #0
1000528e:	d033      	beq.n	100052f8 <dcd_edpt_open+0xc4>
10005290:	4a25      	ldr	r2, [pc, #148]	; (10005328 <dcd_edpt_open+0xf4>)
10005292:	00c9      	lsls	r1, r1, #3
10005294:	4690      	mov	r8, r2
10005296:	4662      	mov	r2, ip
10005298:	4441      	add	r1, r8
1000529a:	6051      	str	r1, [r2, #4]
1000529c:	223f      	movs	r2, #63	; 0x3f
1000529e:	333f      	adds	r3, #63	; 0x3f
100052a0:	4393      	bics	r3, r2
100052a2:	2c02      	cmp	r4, #2
100052a4:	d100      	bne.n	100052a8 <dcd_edpt_open+0x74>
100052a6:	005b      	lsls	r3, r3, #1
100052a8:	4820      	ldr	r0, [pc, #128]	; (1000532c <dcd_edpt_open+0xf8>)
100052aa:	197a      	adds	r2, r7, r5
100052ac:	6801      	ldr	r1, [r0, #0]
100052ae:	0152      	lsls	r2, r2, #5
100052b0:	18b2      	adds	r2, r6, r2
100052b2:	60d1      	str	r1, [r2, #12]
100052b4:	4a1e      	ldr	r2, [pc, #120]	; (10005330 <dcd_edpt_open+0xfc>)
100052b6:	18cb      	adds	r3, r1, r3
100052b8:	6003      	str	r3, [r0, #0]
100052ba:	4051      	eors	r1, r2
100052bc:	4053      	eors	r3, r2
100052be:	2280      	movs	r2, #128	; 0x80
100052c0:	4688      	mov	r8, r1
100052c2:	0152      	lsls	r2, r2, #5
100052c4:	4293      	cmp	r3, r2
100052c6:	d828      	bhi.n	1000531a <dcd_edpt_open+0xe6>
100052c8:	4643      	mov	r3, r8
100052ca:	06a4      	lsls	r4, r4, #26
100052cc:	431c      	orrs	r4, r3
100052ce:	2380      	movs	r3, #128	; 0x80
100052d0:	197f      	adds	r7, r7, r5
100052d2:	017f      	lsls	r7, r7, #5
100052d4:	061b      	lsls	r3, r3, #24
100052d6:	19f6      	adds	r6, r6, r7
100052d8:	431c      	orrs	r4, r3
100052da:	6873      	ldr	r3, [r6, #4]
100052dc:	601c      	str	r4, [r3, #0]
100052de:	e011      	b.n	10005304 <dcd_edpt_open+0xd0>
100052e0:	4814      	ldr	r0, [pc, #80]	; (10005334 <dcd_edpt_open+0x100>)
100052e2:	4684      	mov	ip, r0
100052e4:	0188      	lsls	r0, r1, #6
100052e6:	4462      	add	r2, ip
100052e8:	4684      	mov	ip, r0
100052ea:	44b4      	add	ip, r6
100052ec:	4660      	mov	r0, ip
100052ee:	6282      	str	r2, [r0, #40]	; 0x28
100052f0:	4640      	mov	r0, r8
100052f2:	6010      	str	r0, [r2, #0]
100052f4:	2900      	cmp	r1, #0
100052f6:	d109      	bne.n	1000530c <dcd_edpt_open+0xd8>
100052f8:	2300      	movs	r3, #0
100052fa:	016d      	lsls	r5, r5, #5
100052fc:	1976      	adds	r6, r6, r5
100052fe:	6073      	str	r3, [r6, #4]
10005300:	4b0d      	ldr	r3, [pc, #52]	; (10005338 <dcd_edpt_open+0x104>)
10005302:	60f3      	str	r3, [r6, #12]
10005304:	2001      	movs	r0, #1
10005306:	bc80      	pop	{r7}
10005308:	46b8      	mov	r8, r7
1000530a:	bdf0      	pop	{r4, r5, r6, r7, pc}
1000530c:	4a08      	ldr	r2, [pc, #32]	; (10005330 <dcd_edpt_open+0xfc>)
1000530e:	00c9      	lsls	r1, r1, #3
10005310:	4690      	mov	r8, r2
10005312:	4662      	mov	r2, ip
10005314:	4441      	add	r1, r8
10005316:	6251      	str	r1, [r2, #36]	; 0x24
10005318:	e7c0      	b.n	1000529c <dcd_edpt_open+0x68>
1000531a:	f7fc ff67 	bl	100021ec <hard_assertion_failure>
1000531e:	e7d3      	b.n	100052c8 <dcd_edpt_open+0x94>
10005320:	20001880 	.word	0x20001880
10005324:	50100084 	.word	0x50100084
10005328:	50100004 	.word	0x50100004
1000532c:	20001c88 	.word	0x20001c88
10005330:	50100000 	.word	0x50100000
10005334:	50100080 	.word	0x50100080
10005338:	50100100 	.word	0x50100100

1000533c <dcd_edpt_close_all>:
1000533c:	b510      	push	{r4, lr}
1000533e:	f001 fd37 	bl	10006db0 <__reset_non_control_endpoints_veneer>
10005342:	bd10      	pop	{r4, pc}

10005344 <dcd_edpt_xfer>:
10005344:	b510      	push	{r4, lr}
10005346:	207f      	movs	r0, #127	; 0x7f
10005348:	000c      	movs	r4, r1
1000534a:	4020      	ands	r0, r4
1000534c:	0040      	lsls	r0, r0, #1
1000534e:	09e4      	lsrs	r4, r4, #7
10005350:	0011      	movs	r1, r2
10005352:	1900      	adds	r0, r0, r4
10005354:	001a      	movs	r2, r3
10005356:	4b03      	ldr	r3, [pc, #12]	; (10005364 <dcd_edpt_xfer+0x20>)
10005358:	0140      	lsls	r0, r0, #5
1000535a:	18c0      	adds	r0, r0, r3
1000535c:	f000 f85e 	bl	1000541c <hw_endpoint_xfer_start>
10005360:	2001      	movs	r0, #1
10005362:	bd10      	pop	{r4, pc}
10005364:	20001880 	.word	0x20001880

10005368 <dcd_edpt_stall>:
10005368:	227f      	movs	r2, #127	; 0x7f
1000536a:	0013      	movs	r3, r2
1000536c:	b510      	push	{r4, lr}
1000536e:	400b      	ands	r3, r1
10005370:	420a      	tst	r2, r1
10005372:	d00b      	beq.n	1000538c <dcd_edpt_stall+0x24>
10005374:	09c9      	lsrs	r1, r1, #7
10005376:	2280      	movs	r2, #128	; 0x80
10005378:	0058      	lsls	r0, r3, #1
1000537a:	1840      	adds	r0, r0, r1
1000537c:	4906      	ldr	r1, [pc, #24]	; (10005398 <dcd_edpt_stall+0x30>)
1000537e:	0140      	lsls	r0, r0, #5
10005380:	1840      	adds	r0, r0, r1
10005382:	0112      	lsls	r2, r2, #4
10005384:	2100      	movs	r1, #0
10005386:	f001 fd5b 	bl	10006e40 <___hw_endpoint_buffer_control_update32_veneer>
1000538a:	bd10      	pop	{r4, pc}
1000538c:	2202      	movs	r2, #2
1000538e:	4803      	ldr	r0, [pc, #12]	; (1000539c <dcd_edpt_stall+0x34>)
10005390:	09c9      	lsrs	r1, r1, #7
10005392:	1a52      	subs	r2, r2, r1
10005394:	6682      	str	r2, [r0, #104]	; 0x68
10005396:	e7ee      	b.n	10005376 <dcd_edpt_stall+0xe>
10005398:	20001880 	.word	0x20001880
1000539c:	50112000 	.word	0x50112000

100053a0 <dcd_edpt_clear_stall>:
100053a0:	227f      	movs	r2, #127	; 0x7f
100053a2:	0010      	movs	r0, r2
100053a4:	b510      	push	{r4, lr}
100053a6:	4008      	ands	r0, r1
100053a8:	420a      	tst	r2, r1
100053aa:	d100      	bne.n	100053ae <dcd_edpt_clear_stall+0xe>
100053ac:	bd10      	pop	{r4, pc}
100053ae:	2300      	movs	r3, #0
100053b0:	09c9      	lsrs	r1, r1, #7
100053b2:	0040      	lsls	r0, r0, #1
100053b4:	1840      	adds	r0, r0, r1
100053b6:	4904      	ldr	r1, [pc, #16]	; (100053c8 <dcd_edpt_clear_stall+0x28>)
100053b8:	0140      	lsls	r0, r0, #5
100053ba:	1808      	adds	r0, r1, r0
100053bc:	2200      	movs	r2, #0
100053be:	4903      	ldr	r1, [pc, #12]	; (100053cc <dcd_edpt_clear_stall+0x2c>)
100053c0:	70c3      	strb	r3, [r0, #3]
100053c2:	f001 fd3d 	bl	10006e40 <___hw_endpoint_buffer_control_update32_veneer>
100053c6:	e7f1      	b.n	100053ac <dcd_edpt_clear_stall+0xc>
100053c8:	20001880 	.word	0x20001880
100053cc:	fffff7ff 	.word	0xfffff7ff

100053d0 <rp2040_usb_init>:
100053d0:	2280      	movs	r2, #128	; 0x80
100053d2:	4b0d      	ldr	r3, [pc, #52]	; (10005408 <rp2040_usb_init+0x38>)
100053d4:	0452      	lsls	r2, r2, #17
100053d6:	b510      	push	{r4, lr}
100053d8:	601a      	str	r2, [r3, #0]
100053da:	4b0c      	ldr	r3, [pc, #48]	; (1000540c <rp2040_usb_init+0x3c>)
100053dc:	490c      	ldr	r1, [pc, #48]	; (10005410 <rp2040_usb_init+0x40>)
100053de:	601a      	str	r2, [r3, #0]
100053e0:	0010      	movs	r0, r2
100053e2:	688b      	ldr	r3, [r1, #8]
100053e4:	4398      	bics	r0, r3
100053e6:	d1fb      	bne.n	100053e0 <rp2040_usb_init+0x10>
100053e8:	4c0a      	ldr	r4, [pc, #40]	; (10005414 <rp2040_usb_init+0x44>)
100053ea:	229c      	movs	r2, #156	; 0x9c
100053ec:	2100      	movs	r1, #0
100053ee:	0020      	movs	r0, r4
100053f0:	f7ff f8ce 	bl	10004590 <__wrap_memset>
100053f4:	2280      	movs	r2, #128	; 0x80
100053f6:	2100      	movs	r1, #0
100053f8:	0152      	lsls	r2, r2, #5
100053fa:	4807      	ldr	r0, [pc, #28]	; (10005418 <rp2040_usb_init+0x48>)
100053fc:	f7ff f8c8 	bl	10004590 <__wrap_memset>
10005400:	2309      	movs	r3, #9
10005402:	6763      	str	r3, [r4, #116]	; 0x74
10005404:	bd10      	pop	{r4, pc}
10005406:	46c0      	nop			; (mov r8, r8)
10005408:	4000e000 	.word	0x4000e000
1000540c:	4000f000 	.word	0x4000f000
10005410:	4000c000 	.word	0x4000c000
10005414:	50110000 	.word	0x50110000
10005418:	50100000 	.word	0x50100000

1000541c <hw_endpoint_xfer_start>:
1000541c:	b570      	push	{r4, r5, r6, lr}
1000541e:	7e83      	ldrb	r3, [r0, #26]
10005420:	0004      	movs	r4, r0
10005422:	000d      	movs	r5, r1
10005424:	0016      	movs	r6, r2
10005426:	2b00      	cmp	r3, #0
10005428:	d117      	bne.n	1000545a <hw_endpoint_xfer_start+0x3e>
1000542a:	2300      	movs	r3, #0
1000542c:	82e3      	strh	r3, [r4, #22]
1000542e:	3301      	adds	r3, #1
10005430:	0020      	movs	r0, r4
10005432:	82a6      	strh	r6, [r4, #20]
10005434:	76a3      	strb	r3, [r4, #26]
10005436:	6125      	str	r5, [r4, #16]
10005438:	f001 fd0a 	bl	10006e50 <__e15_is_bulkin_ep_veneer>
1000543c:	2800      	cmp	r0, #0
1000543e:	d004      	beq.n	1000544a <hw_endpoint_xfer_start+0x2e>
10005440:	2180      	movs	r1, #128	; 0x80
10005442:	2390      	movs	r3, #144	; 0x90
10005444:	4a08      	ldr	r2, [pc, #32]	; (10005468 <hw_endpoint_xfer_start+0x4c>)
10005446:	0289      	lsls	r1, r1, #10
10005448:	50d1      	str	r1, [r2, r3]
1000544a:	0020      	movs	r0, r4
1000544c:	f001 fcc0 	bl	10006dd0 <__e15_is_critical_frame_period_veneer>
10005450:	2800      	cmp	r0, #0
10005452:	d005      	beq.n	10005460 <hw_endpoint_xfer_start+0x44>
10005454:	2301      	movs	r3, #1
10005456:	7723      	strb	r3, [r4, #28]
10005458:	bd70      	pop	{r4, r5, r6, pc}
1000545a:	f001 fce9 	bl	10006e30 <__hw_endpoint_reset_transfer_veneer>
1000545e:	e7e4      	b.n	1000542a <hw_endpoint_xfer_start+0xe>
10005460:	0020      	movs	r0, r4
10005462:	f001 fcdd 	bl	10006e20 <__hw_endpoint_start_next_buffer_veneer>
10005466:	e7f7      	b.n	10005458 <hw_endpoint_xfer_start+0x3c>
10005468:	50112000 	.word	0x50112000

1000546c <tud_mounted>:
1000546c:	4b02      	ldr	r3, [pc, #8]	; (10005478 <tud_mounted+0xc>)
1000546e:	7858      	ldrb	r0, [r3, #1]
10005470:	1e43      	subs	r3, r0, #1
10005472:	4198      	sbcs	r0, r3
10005474:	b2c0      	uxtb	r0, r0
10005476:	4770      	bx	lr
10005478:	200015ac 	.word	0x200015ac

1000547c <tud_suspended>:
1000547c:	4b02      	ldr	r3, [pc, #8]	; (10005488 <tud_suspended+0xc>)
1000547e:	7818      	ldrb	r0, [r3, #0]
10005480:	0740      	lsls	r0, r0, #29
10005482:	0fc0      	lsrs	r0, r0, #31
10005484:	4770      	bx	lr
10005486:	46c0      	nop			; (mov r8, r8)
10005488:	200015ac 	.word	0x200015ac

1000548c <tud_inited>:
1000548c:	4b03      	ldr	r3, [pc, #12]	; (1000549c <tud_inited+0x10>)
1000548e:	7818      	ldrb	r0, [r3, #0]
10005490:	38ff      	subs	r0, #255	; 0xff
10005492:	1e43      	subs	r3, r0, #1
10005494:	4198      	sbcs	r0, r3
10005496:	b2c0      	uxtb	r0, r0
10005498:	4770      	bx	lr
1000549a:	46c0      	nop			; (mov r8, r8)
1000549c:	20000f3c 	.word	0x20000f3c

100054a0 <tud_init>:
100054a0:	b5f8      	push	{r3, r4, r5, r6, r7, lr}
100054a2:	46ce      	mov	lr, r9
100054a4:	4647      	mov	r7, r8
100054a6:	b580      	push	{r7, lr}
100054a8:	4e2c      	ldr	r6, [pc, #176]	; (1000555c <tud_init+0xbc>)
100054aa:	0005      	movs	r5, r0
100054ac:	7833      	ldrb	r3, [r6, #0]
100054ae:	2001      	movs	r0, #1
100054b0:	2bff      	cmp	r3, #255	; 0xff
100054b2:	d003      	beq.n	100054bc <tud_init+0x1c>
100054b4:	bcc0      	pop	{r6, r7}
100054b6:	46b9      	mov	r9, r7
100054b8:	46b0      	mov	r8, r6
100054ba:	bdf8      	pop	{r3, r4, r5, r6, r7, pc}
100054bc:	2253      	movs	r2, #83	; 0x53
100054be:	2100      	movs	r1, #0
100054c0:	4827      	ldr	r0, [pc, #156]	; (10005560 <tud_init+0xc0>)
100054c2:	f7ff f865 	bl	10004590 <__wrap_memset>
100054c6:	4c27      	ldr	r4, [pc, #156]	; (10005564 <tud_init+0xc4>)
100054c8:	0020      	movs	r0, r4
100054ca:	f7fb fc8d 	bl	10000de8 <mutex_init>
100054ce:	4b26      	ldr	r3, [pc, #152]	; (10005568 <tud_init+0xc8>)
100054d0:	601c      	str	r4, [r3, #0]
100054d2:	4c26      	ldr	r4, [pc, #152]	; (1000556c <tud_init+0xcc>)
100054d4:	0020      	movs	r0, r4
100054d6:	3014      	adds	r0, #20
100054d8:	f7fb fca2 	bl	10000e20 <critical_section_init>
100054dc:	0020      	movs	r0, r4
100054de:	f001 fbd1 	bl	10006c84 <tu_fifo_clear>
100054e2:	4b23      	ldr	r3, [pc, #140]	; (10005570 <tud_init+0xd0>)
100054e4:	4f23      	ldr	r7, [pc, #140]	; (10005574 <tud_init+0xd4>)
100054e6:	601c      	str	r4, [r3, #0]
100054e8:	4b23      	ldr	r3, [pc, #140]	; (10005578 <tud_init+0xd8>)
100054ea:	4698      	mov	r8, r3
100054ec:	2b00      	cmp	r3, #0
100054ee:	d004      	beq.n	100054fa <tud_init+0x5a>
100054f0:	0038      	movs	r0, r7
100054f2:	f7ff faf3 	bl	10004adc <usbd_app_driver_get_cb>
100054f6:	4b21      	ldr	r3, [pc, #132]	; (1000557c <tud_init+0xdc>)
100054f8:	6018      	str	r0, [r3, #0]
100054fa:	4642      	mov	r2, r8
100054fc:	2400      	movs	r4, #0
100054fe:	783b      	ldrb	r3, [r7, #0]
10005500:	2a00      	cmp	r2, #0
10005502:	d023      	beq.n	1000554c <tud_init+0xac>
10005504:	4a1e      	ldr	r2, [pc, #120]	; (10005580 <tud_init+0xe0>)
10005506:	4690      	mov	r8, r2
10005508:	4a1c      	ldr	r2, [pc, #112]	; (1000557c <tud_init+0xdc>)
1000550a:	4691      	mov	r9, r2
1000550c:	42a3      	cmp	r3, r4
1000550e:	d812      	bhi.n	10005536 <tud_init+0x96>
10005510:	d10f      	bne.n	10005532 <tud_init+0x92>
10005512:	4643      	mov	r3, r8
10005514:	4798      	blx	r3
10005516:	3401      	adds	r4, #1
10005518:	783b      	ldrb	r3, [r7, #0]
1000551a:	b2e4      	uxtb	r4, r4
1000551c:	42a3      	cmp	r3, r4
1000551e:	d2f5      	bcs.n	1000550c <tud_init+0x6c>
10005520:	0028      	movs	r0, r5
10005522:	7035      	strb	r5, [r6, #0]
10005524:	f7ff fe2c 	bl	10005180 <dcd_init>
10005528:	0028      	movs	r0, r5
1000552a:	f7ff fe11 	bl	10005150 <dcd_int_enable>
1000552e:	2001      	movs	r0, #1
10005530:	e7c0      	b.n	100054b4 <tud_init+0x14>
10005532:	2000      	movs	r0, #0
10005534:	e7be      	b.n	100054b4 <tud_init+0x14>
10005536:	464a      	mov	r2, r9
10005538:	6812      	ldr	r2, [r2, #0]
1000553a:	0063      	lsls	r3, r4, #1
1000553c:	4694      	mov	ip, r2
1000553e:	191b      	adds	r3, r3, r4
10005540:	00db      	lsls	r3, r3, #3
10005542:	4463      	add	r3, ip
10005544:	2b00      	cmp	r3, #0
10005546:	d0f4      	beq.n	10005532 <tud_init+0x92>
10005548:	681b      	ldr	r3, [r3, #0]
1000554a:	e7e3      	b.n	10005514 <tud_init+0x74>
1000554c:	f000 feee 	bl	1000632c <cdcd_init>
10005550:	783b      	ldrb	r3, [r7, #0]
10005552:	2000      	movs	r0, #0
10005554:	2b00      	cmp	r3, #0
10005556:	d1ad      	bne.n	100054b4 <tud_init+0x14>
10005558:	e7e2      	b.n	10005520 <tud_init+0x80>
1000555a:	46c0      	nop			; (mov r8, r8)
1000555c:	20000f3c 	.word	0x20000f3c
10005560:	200015ac 	.word	0x200015ac
10005564:	20001564 	.word	0x20001564
10005568:	20001600 	.word	0x20001600
1000556c:	20000f20 	.word	0x20000f20
10005570:	20001604 	.word	0x20001604
10005574:	20001e1d 	.word	0x20001e1d
10005578:	10004add 	.word	0x10004add
1000557c:	20001284 	.word	0x20001284
10005580:	1000632d 	.word	0x1000632d

10005584 <tud_task_ext>:
10005584:	b5f0      	push	{r4, r5, r6, r7, lr}
10005586:	46de      	mov	lr, fp
10005588:	4657      	mov	r7, sl
1000558a:	464e      	mov	r6, r9
1000558c:	4645      	mov	r5, r8
1000558e:	b5e0      	push	{r5, r6, r7, lr}
10005590:	b08b      	sub	sp, #44	; 0x2c
10005592:	f001 f8af 	bl	100066f4 <tusb_inited>
10005596:	2800      	cmp	r0, #0
10005598:	d100      	bne.n	1000559c <tud_task_ext+0x18>
1000559a:	e10f      	b.n	100057bc <tud_task_ext+0x238>
1000559c:	4bcd      	ldr	r3, [pc, #820]	; (100058d4 <tud_task_ext+0x350>)
1000559e:	4dce      	ldr	r5, [pc, #824]	; (100058d8 <tud_task_ext+0x354>)
100055a0:	4699      	mov	r9, r3
100055a2:	4bce      	ldr	r3, [pc, #824]	; (100058dc <tud_task_ext+0x358>)
100055a4:	ac07      	add	r4, sp, #28
100055a6:	469b      	mov	fp, r3
100055a8:	682e      	ldr	r6, [r5, #0]
100055aa:	6972      	ldr	r2, [r6, #20]
100055ac:	f3ef 8110 	mrs	r1, PRIMASK
100055b0:	b672      	cpsid	i
100055b2:	6813      	ldr	r3, [r2, #0]
100055b4:	2b00      	cmp	r3, #0
100055b6:	d0fc      	beq.n	100055b2 <tud_task_ext+0x2e>
100055b8:	f3bf 8f5f 	dmb	sy
100055bc:	61b1      	str	r1, [r6, #24]
100055be:	0030      	movs	r0, r6
100055c0:	0021      	movs	r1, r4
100055c2:	f001 f9a1 	bl	10006908 <tu_fifo_read>
100055c6:	6972      	ldr	r2, [r6, #20]
100055c8:	69b3      	ldr	r3, [r6, #24]
100055ca:	f3bf 8f5f 	dmb	sy
100055ce:	2100      	movs	r1, #0
100055d0:	6011      	str	r1, [r2, #0]
100055d2:	f383 8810 	msr	PRIMASK, r3
100055d6:	2800      	cmp	r0, #0
100055d8:	d100      	bne.n	100055dc <tud_task_ext+0x58>
100055da:	e0ef      	b.n	100057bc <tud_task_ext+0x238>
100055dc:	7863      	ldrb	r3, [r4, #1]
100055de:	2b08      	cmp	r3, #8
100055e0:	d8e2      	bhi.n	100055a8 <tud_task_ext+0x24>
100055e2:	464a      	mov	r2, r9
100055e4:	009b      	lsls	r3, r3, #2
100055e6:	58d3      	ldr	r3, [r2, r3]
100055e8:	469f      	mov	pc, r3
100055ea:	6863      	ldr	r3, [r4, #4]
100055ec:	2b00      	cmp	r3, #0
100055ee:	d0db      	beq.n	100055a8 <tud_task_ext+0x24>
100055f0:	68a0      	ldr	r0, [r4, #8]
100055f2:	4798      	blx	r3
100055f4:	e7d8      	b.n	100055a8 <tud_task_ext+0x24>
100055f6:	227f      	movs	r2, #127	; 0x7f
100055f8:	7921      	ldrb	r1, [r4, #4]
100055fa:	4eb8      	ldr	r6, [pc, #736]	; (100058dc <tud_task_ext+0x358>)
100055fc:	400a      	ands	r2, r1
100055fe:	0050      	lsls	r0, r2, #1
10005600:	09cb      	lsrs	r3, r1, #7
10005602:	1836      	adds	r6, r6, r0
10005604:	18f6      	adds	r6, r6, r3
10005606:	0030      	movs	r0, r6
10005608:	2701      	movs	r7, #1
1000560a:	3030      	adds	r0, #48	; 0x30
1000560c:	78c3      	ldrb	r3, [r0, #3]
1000560e:	43bb      	bics	r3, r7
10005610:	70c3      	strb	r3, [r0, #3]
10005612:	78c3      	ldrb	r3, [r0, #3]
10005614:	3703      	adds	r7, #3
10005616:	43bb      	bics	r3, r7
10005618:	70c3      	strb	r3, [r0, #3]
1000561a:	2a00      	cmp	r2, #0
1000561c:	d100      	bne.n	10005620 <tud_task_ext+0x9c>
1000561e:	e0f2      	b.n	10005806 <tud_task_ext+0x282>
10005620:	4aaf      	ldr	r2, [pc, #700]	; (100058e0 <tud_task_ext+0x35c>)
10005622:	7cf3      	ldrb	r3, [r6, #19]
10005624:	2a00      	cmp	r2, #0
10005626:	d006      	beq.n	10005636 <tud_task_ext+0xb2>
10005628:	4aae      	ldr	r2, [pc, #696]	; (100058e4 <tud_task_ext+0x360>)
1000562a:	7812      	ldrb	r2, [r2, #0]
1000562c:	4293      	cmp	r3, r2
1000562e:	d200      	bcs.n	10005632 <tud_task_ext+0xae>
10005630:	e144      	b.n	100058bc <tud_task_ext+0x338>
10005632:	1a9b      	subs	r3, r3, r2
10005634:	b2db      	uxtb	r3, r3
10005636:	2b00      	cmp	r3, #0
10005638:	d000      	beq.n	1000563c <tud_task_ext+0xb8>
1000563a:	e0bf      	b.n	100057bc <tud_task_ext+0x238>
1000563c:	4eaa      	ldr	r6, [pc, #680]	; (100058e8 <tud_task_ext+0x364>)
1000563e:	7962      	ldrb	r2, [r4, #5]
10005640:	7820      	ldrb	r0, [r4, #0]
10005642:	68a3      	ldr	r3, [r4, #8]
10005644:	47b0      	blx	r6
10005646:	e7af      	b.n	100055a8 <tud_task_ext+0x24>
10005648:	465b      	mov	r3, fp
1000564a:	2201      	movs	r2, #1
1000564c:	781b      	ldrb	r3, [r3, #0]
1000564e:	2101      	movs	r1, #1
10005650:	4313      	orrs	r3, r2
10005652:	465a      	mov	r2, fp
10005654:	7013      	strb	r3, [r2, #0]
10005656:	2333      	movs	r3, #51	; 0x33
10005658:	4658      	mov	r0, fp
1000565a:	5cd2      	ldrb	r2, [r2, r3]
1000565c:	465e      	mov	r6, fp
1000565e:	438a      	bics	r2, r1
10005660:	54c2      	strb	r2, [r0, r3]
10005662:	5cc2      	ldrb	r2, [r0, r3]
10005664:	2004      	movs	r0, #4
10005666:	4382      	bics	r2, r0
10005668:	54f2      	strb	r2, [r6, r3]
1000566a:	3301      	adds	r3, #1
1000566c:	5cf2      	ldrb	r2, [r6, r3]
1000566e:	438a      	bics	r2, r1
10005670:	54f2      	strb	r2, [r6, r3]
10005672:	5cf2      	ldrb	r2, [r6, r3]
10005674:	4382      	bics	r2, r0
10005676:	54f2      	strb	r2, [r6, r3]
10005678:	7823      	ldrb	r3, [r4, #0]
1000567a:	2000      	movs	r0, #0
1000567c:	469a      	mov	sl, r3
1000567e:	f000 fd05 	bl	1000608c <usbd_control_set_complete_callback>
10005682:	2260      	movs	r2, #96	; 0x60
10005684:	7923      	ldrb	r3, [r4, #4]
10005686:	401a      	ands	r2, r3
10005688:	2a60      	cmp	r2, #96	; 0x60
1000568a:	d00d      	beq.n	100056a8 <tud_task_ext+0x124>
1000568c:	2a40      	cmp	r2, #64	; 0x40
1000568e:	d100      	bne.n	10005692 <tud_task_ext+0x10e>
10005690:	e0bf      	b.n	10005812 <tud_task_ext+0x28e>
10005692:	06db      	lsls	r3, r3, #27
10005694:	0edb      	lsrs	r3, r3, #27
10005696:	2b01      	cmp	r3, #1
10005698:	d100      	bne.n	1000569c <tud_task_ext+0x118>
1000569a:	e137      	b.n	1000590c <tud_task_ext+0x388>
1000569c:	2b02      	cmp	r3, #2
1000569e:	d100      	bne.n	100056a2 <tud_task_ext+0x11e>
100056a0:	e0d4      	b.n	1000584c <tud_task_ext+0x2c8>
100056a2:	2b00      	cmp	r3, #0
100056a4:	d100      	bne.n	100056a8 <tud_task_ext+0x124>
100056a6:	e0c3      	b.n	10005830 <tud_task_ext+0x2ac>
100056a8:	7820      	ldrb	r0, [r4, #0]
100056aa:	2100      	movs	r1, #0
100056ac:	f7ff fe5c 	bl	10005368 <dcd_edpt_stall>
100056b0:	2180      	movs	r1, #128	; 0x80
100056b2:	7820      	ldrb	r0, [r4, #0]
100056b4:	f7ff fe58 	bl	10005368 <dcd_edpt_stall>
100056b8:	e776      	b.n	100055a8 <tud_task_ext+0x24>
100056ba:	4e88      	ldr	r6, [pc, #544]	; (100058dc <tud_task_ext+0x358>)
100056bc:	7833      	ldrb	r3, [r6, #0]
100056be:	07db      	lsls	r3, r3, #31
100056c0:	d400      	bmi.n	100056c4 <tud_task_ext+0x140>
100056c2:	e771      	b.n	100055a8 <tud_task_ext+0x24>
100056c4:	4b89      	ldr	r3, [pc, #548]	; (100058ec <tud_task_ext+0x368>)
100056c6:	2b00      	cmp	r3, #0
100056c8:	d100      	bne.n	100056cc <tud_task_ext+0x148>
100056ca:	e76d      	b.n	100055a8 <tud_task_ext+0x24>
100056cc:	e000      	b.n	100056d0 <tud_task_ext+0x14c>
100056ce:	bf00      	nop
100056d0:	e76a      	b.n	100055a8 <tud_task_ext+0x24>
100056d2:	4e82      	ldr	r6, [pc, #520]	; (100058dc <tud_task_ext+0x358>)
100056d4:	7833      	ldrb	r3, [r6, #0]
100056d6:	07db      	lsls	r3, r3, #31
100056d8:	d400      	bmi.n	100056dc <tud_task_ext+0x158>
100056da:	e765      	b.n	100055a8 <tud_task_ext+0x24>
100056dc:	4b84      	ldr	r3, [pc, #528]	; (100058f0 <tud_task_ext+0x36c>)
100056de:	2b00      	cmp	r3, #0
100056e0:	d100      	bne.n	100056e4 <tud_task_ext+0x160>
100056e2:	e761      	b.n	100055a8 <tud_task_ext+0x24>
100056e4:	7830      	ldrb	r0, [r6, #0]
100056e6:	0700      	lsls	r0, r0, #28
100056e8:	0fc0      	lsrs	r0, r0, #31
100056ea:	e000      	b.n	100056ee <tud_task_ext+0x16a>
100056ec:	bf00      	nop
100056ee:	e75b      	b.n	100055a8 <tud_task_ext+0x24>
100056f0:	4b7c      	ldr	r3, [pc, #496]	; (100058e4 <tud_task_ext+0x360>)
100056f2:	4a7b      	ldr	r2, [pc, #492]	; (100058e0 <tud_task_ext+0x35c>)
100056f4:	4698      	mov	r8, r3
100056f6:	2600      	movs	r6, #0
100056f8:	7827      	ldrb	r7, [r4, #0]
100056fa:	781b      	ldrb	r3, [r3, #0]
100056fc:	2a00      	cmp	r2, #0
100056fe:	d100      	bne.n	10005702 <tud_task_ext+0x17e>
10005700:	e079      	b.n	100057f6 <tud_task_ext+0x272>
10005702:	4a7c      	ldr	r2, [pc, #496]	; (100058f4 <tud_task_ext+0x370>)
10005704:	4692      	mov	sl, r2
10005706:	429e      	cmp	r6, r3
10005708:	d35f      	bcc.n	100057ca <tud_task_ext+0x246>
1000570a:	d119      	bne.n	10005740 <tud_task_ext+0x1bc>
1000570c:	4b7a      	ldr	r3, [pc, #488]	; (100058f8 <tud_task_ext+0x374>)
1000570e:	0038      	movs	r0, r7
10005710:	4798      	blx	r3
10005712:	4643      	mov	r3, r8
10005714:	3601      	adds	r6, #1
10005716:	781b      	ldrb	r3, [r3, #0]
10005718:	b2f6      	uxtb	r6, r6
1000571a:	42b3      	cmp	r3, r6
1000571c:	d2f3      	bcs.n	10005706 <tud_task_ext+0x182>
1000571e:	4e6f      	ldr	r6, [pc, #444]	; (100058dc <tud_task_ext+0x358>)
10005720:	2253      	movs	r2, #83	; 0x53
10005722:	2100      	movs	r1, #0
10005724:	0030      	movs	r0, r6
10005726:	f7fe ff33 	bl	10004590 <__wrap_memset>
1000572a:	2210      	movs	r2, #16
1000572c:	21ff      	movs	r1, #255	; 0xff
1000572e:	1cf0      	adds	r0, r6, #3
10005730:	f7fe ff2e 	bl	10004590 <__wrap_memset>
10005734:	0030      	movs	r0, r6
10005736:	2220      	movs	r2, #32
10005738:	21ff      	movs	r1, #255	; 0xff
1000573a:	3013      	adds	r0, #19
1000573c:	f7fe ff28 	bl	10004590 <__wrap_memset>
10005740:	f000 fc9a 	bl	10006078 <usbd_control_reset>
10005744:	4b6d      	ldr	r3, [pc, #436]	; (100058fc <tud_task_ext+0x378>)
10005746:	2b00      	cmp	r3, #0
10005748:	d100      	bne.n	1000574c <tud_task_ext+0x1c8>
1000574a:	e72d      	b.n	100055a8 <tud_task_ext+0x24>
1000574c:	e000      	b.n	10005750 <tud_task_ext+0x1cc>
1000574e:	bf00      	nop
10005750:	e72a      	b.n	100055a8 <tud_task_ext+0x24>
10005752:	4b64      	ldr	r3, [pc, #400]	; (100058e4 <tud_task_ext+0x360>)
10005754:	4a62      	ldr	r2, [pc, #392]	; (100058e0 <tud_task_ext+0x35c>)
10005756:	4698      	mov	r8, r3
10005758:	2600      	movs	r6, #0
1000575a:	7827      	ldrb	r7, [r4, #0]
1000575c:	781b      	ldrb	r3, [r3, #0]
1000575e:	2a00      	cmp	r2, #0
10005760:	d01f      	beq.n	100057a2 <tud_task_ext+0x21e>
10005762:	4a64      	ldr	r2, [pc, #400]	; (100058f4 <tud_task_ext+0x370>)
10005764:	4692      	mov	sl, r2
10005766:	429e      	cmp	r6, r3
10005768:	d33a      	bcc.n	100057e0 <tud_task_ext+0x25c>
1000576a:	d121      	bne.n	100057b0 <tud_task_ext+0x22c>
1000576c:	4b62      	ldr	r3, [pc, #392]	; (100058f8 <tud_task_ext+0x374>)
1000576e:	0038      	movs	r0, r7
10005770:	4798      	blx	r3
10005772:	4643      	mov	r3, r8
10005774:	3601      	adds	r6, #1
10005776:	781b      	ldrb	r3, [r3, #0]
10005778:	b2f6      	uxtb	r6, r6
1000577a:	42b3      	cmp	r3, r6
1000577c:	d2f3      	bcs.n	10005766 <tud_task_ext+0x1e2>
1000577e:	4e57      	ldr	r6, [pc, #348]	; (100058dc <tud_task_ext+0x358>)
10005780:	2253      	movs	r2, #83	; 0x53
10005782:	2100      	movs	r1, #0
10005784:	0030      	movs	r0, r6
10005786:	f7fe ff03 	bl	10004590 <__wrap_memset>
1000578a:	2210      	movs	r2, #16
1000578c:	21ff      	movs	r1, #255	; 0xff
1000578e:	1cf0      	adds	r0, r6, #3
10005790:	f7fe fefe 	bl	10004590 <__wrap_memset>
10005794:	0030      	movs	r0, r6
10005796:	2220      	movs	r2, #32
10005798:	21ff      	movs	r1, #255	; 0xff
1000579a:	3013      	adds	r0, #19
1000579c:	f7fe fef8 	bl	10004590 <__wrap_memset>
100057a0:	e007      	b.n	100057b2 <tud_task_ext+0x22e>
100057a2:	0038      	movs	r0, r7
100057a4:	f000 fe00 	bl	100063a8 <cdcd_reset>
100057a8:	4643      	mov	r3, r8
100057aa:	781b      	ldrb	r3, [r3, #0]
100057ac:	2b00      	cmp	r3, #0
100057ae:	d0e6      	beq.n	1000577e <tud_task_ext+0x1fa>
100057b0:	4e4a      	ldr	r6, [pc, #296]	; (100058dc <tud_task_ext+0x358>)
100057b2:	f000 fc61 	bl	10006078 <usbd_control_reset>
100057b6:	7923      	ldrb	r3, [r4, #4]
100057b8:	70b3      	strb	r3, [r6, #2]
100057ba:	e6f5      	b.n	100055a8 <tud_task_ext+0x24>
100057bc:	b00b      	add	sp, #44	; 0x2c
100057be:	bcf0      	pop	{r4, r5, r6, r7}
100057c0:	46bb      	mov	fp, r7
100057c2:	46b2      	mov	sl, r6
100057c4:	46a9      	mov	r9, r5
100057c6:	46a0      	mov	r8, r4
100057c8:	bdf0      	pop	{r4, r5, r6, r7, pc}
100057ca:	4652      	mov	r2, sl
100057cc:	6812      	ldr	r2, [r2, #0]
100057ce:	0073      	lsls	r3, r6, #1
100057d0:	4694      	mov	ip, r2
100057d2:	199b      	adds	r3, r3, r6
100057d4:	00db      	lsls	r3, r3, #3
100057d6:	4463      	add	r3, ip
100057d8:	2b00      	cmp	r3, #0
100057da:	d0b1      	beq.n	10005740 <tud_task_ext+0x1bc>
100057dc:	685b      	ldr	r3, [r3, #4]
100057de:	e796      	b.n	1000570e <tud_task_ext+0x18a>
100057e0:	4652      	mov	r2, sl
100057e2:	6812      	ldr	r2, [r2, #0]
100057e4:	0073      	lsls	r3, r6, #1
100057e6:	4694      	mov	ip, r2
100057e8:	199b      	adds	r3, r3, r6
100057ea:	00db      	lsls	r3, r3, #3
100057ec:	4463      	add	r3, ip
100057ee:	2b00      	cmp	r3, #0
100057f0:	d0de      	beq.n	100057b0 <tud_task_ext+0x22c>
100057f2:	685b      	ldr	r3, [r3, #4]
100057f4:	e7bb      	b.n	1000576e <tud_task_ext+0x1ea>
100057f6:	0038      	movs	r0, r7
100057f8:	f000 fdd6 	bl	100063a8 <cdcd_reset>
100057fc:	4643      	mov	r3, r8
100057fe:	781b      	ldrb	r3, [r3, #0]
10005800:	2b00      	cmp	r3, #0
10005802:	d19d      	bne.n	10005740 <tud_task_ext+0x1bc>
10005804:	e78b      	b.n	1000571e <tud_task_ext+0x19a>
10005806:	7962      	ldrb	r2, [r4, #5]
10005808:	7820      	ldrb	r0, [r4, #0]
1000580a:	68a3      	ldr	r3, [r4, #8]
1000580c:	f000 fc52 	bl	100060b4 <usbd_control_xfer_cb>
10005810:	e6ca      	b.n	100055a8 <tud_task_ext+0x24>
10005812:	483b      	ldr	r0, [pc, #236]	; (10005900 <tud_task_ext+0x37c>)
10005814:	2800      	cmp	r0, #0
10005816:	d100      	bne.n	1000581a <tud_task_ext+0x296>
10005818:	e746      	b.n	100056a8 <tud_task_ext+0x124>
1000581a:	f000 fc37 	bl	1000608c <usbd_control_set_complete_callback>
1000581e:	2101      	movs	r1, #1
10005820:	4650      	mov	r0, sl
10005822:	aa08      	add	r2, sp, #32
10005824:	e000      	b.n	10005828 <tud_task_ext+0x2a4>
10005826:	bf00      	nop
10005828:	2800      	cmp	r0, #0
1000582a:	d000      	beq.n	1000582e <tud_task_ext+0x2aa>
1000582c:	e6bc      	b.n	100055a8 <tud_task_ext+0x24>
1000582e:	e73b      	b.n	100056a8 <tud_task_ext+0x124>
10005830:	2a20      	cmp	r2, #32
10005832:	d100      	bne.n	10005836 <tud_task_ext+0x2b2>
10005834:	e09f      	b.n	10005976 <tud_task_ext+0x3f2>
10005836:	2a00      	cmp	r2, #0
10005838:	d000      	beq.n	1000583c <tud_task_ext+0x2b8>
1000583a:	e735      	b.n	100056a8 <tud_task_ext+0x124>
1000583c:	7963      	ldrb	r3, [r4, #5]
1000583e:	2b09      	cmp	r3, #9
10005840:	d900      	bls.n	10005844 <tud_task_ext+0x2c0>
10005842:	e731      	b.n	100056a8 <tud_task_ext+0x124>
10005844:	4a2f      	ldr	r2, [pc, #188]	; (10005904 <tud_task_ext+0x380>)
10005846:	009b      	lsls	r3, r3, #2
10005848:	58d3      	ldr	r3, [r2, r3]
1000584a:	469f      	mov	pc, r3
1000584c:	2370      	movs	r3, #112	; 0x70
1000584e:	7a21      	ldrb	r1, [r4, #8]
10005850:	420b      	tst	r3, r1
10005852:	d000      	beq.n	10005856 <tud_task_ext+0x2d2>
10005854:	e728      	b.n	100056a8 <tud_task_ext+0x124>
10005856:	4658      	mov	r0, fp
10005858:	330f      	adds	r3, #15
1000585a:	400b      	ands	r3, r1
1000585c:	005b      	lsls	r3, r3, #1
1000585e:	09ce      	lsrs	r6, r1, #7
10005860:	18c0      	adds	r0, r0, r3
10005862:	4f1f      	ldr	r7, [pc, #124]	; (100058e0 <tud_task_ext+0x35c>)
10005864:	1980      	adds	r0, r0, r6
10005866:	7cc0      	ldrb	r0, [r0, #19]
10005868:	2f00      	cmp	r7, #0
1000586a:	d006      	beq.n	1000587a <tud_task_ext+0x2f6>
1000586c:	4f1d      	ldr	r7, [pc, #116]	; (100058e4 <tud_task_ext+0x360>)
1000586e:	783f      	ldrb	r7, [r7, #0]
10005870:	42b8      	cmp	r0, r7
10005872:	d200      	bcs.n	10005876 <tud_task_ext+0x2f2>
10005874:	e0a1      	b.n	100059ba <tud_task_ext+0x436>
10005876:	1bc0      	subs	r0, r0, r7
10005878:	b2c0      	uxtb	r0, r0
1000587a:	2800      	cmp	r0, #0
1000587c:	d000      	beq.n	10005880 <tud_task_ext+0x2fc>
1000587e:	e097      	b.n	100059b0 <tud_task_ext+0x42c>
10005880:	2a00      	cmp	r2, #0
10005882:	d000      	beq.n	10005886 <tud_task_ext+0x302>
10005884:	e148      	b.n	10005b18 <tud_task_ext+0x594>
10005886:	4f20      	ldr	r7, [pc, #128]	; (10005908 <tud_task_ext+0x384>)
10005888:	2002      	movs	r0, #2
1000588a:	7962      	ldrb	r2, [r4, #5]
1000588c:	4690      	mov	r8, r2
1000588e:	4382      	bics	r2, r0
10005890:	2a01      	cmp	r2, #1
10005892:	d100      	bne.n	10005896 <tud_task_ext+0x312>
10005894:	e143      	b.n	10005b1e <tud_task_ext+0x59a>
10005896:	4642      	mov	r2, r8
10005898:	2a00      	cmp	r2, #0
1000589a:	d000      	beq.n	1000589e <tud_task_ext+0x31a>
1000589c:	e704      	b.n	100056a8 <tud_task_ext+0x124>
1000589e:	445b      	add	r3, fp
100058a0:	199e      	adds	r6, r3, r6
100058a2:	3630      	adds	r6, #48	; 0x30
100058a4:	78f3      	ldrb	r3, [r6, #3]
100058a6:	aa06      	add	r2, sp, #24
100058a8:	079b      	lsls	r3, r3, #30
100058aa:	0fdb      	lsrs	r3, r3, #31
100058ac:	3202      	adds	r2, #2
100058ae:	8013      	strh	r3, [r2, #0]
100058b0:	4650      	mov	r0, sl
100058b2:	2302      	movs	r3, #2
100058b4:	a908      	add	r1, sp, #32
100058b6:	f000 fb81 	bl	10005fbc <tud_control_xfer>
100058ba:	e675      	b.n	100055a8 <tud_task_ext+0x24>
100058bc:	005a      	lsls	r2, r3, #1
100058be:	18d3      	adds	r3, r2, r3
100058c0:	4a0c      	ldr	r2, [pc, #48]	; (100058f4 <tud_task_ext+0x370>)
100058c2:	00db      	lsls	r3, r3, #3
100058c4:	6812      	ldr	r2, [r2, #0]
100058c6:	18d3      	adds	r3, r2, r3
100058c8:	2b00      	cmp	r3, #0
100058ca:	d100      	bne.n	100058ce <tud_task_ext+0x34a>
100058cc:	e776      	b.n	100057bc <tud_task_ext+0x238>
100058ce:	691e      	ldr	r6, [r3, #16]
100058d0:	e6b5      	b.n	1000563e <tud_task_ext+0xba>
100058d2:	46c0      	nop			; (mov r8, r8)
100058d4:	100076a0 	.word	0x100076a0
100058d8:	20001604 	.word	0x20001604
100058dc:	200015ac 	.word	0x200015ac
100058e0:	10004add 	.word	0x10004add
100058e4:	20001e1d 	.word	0x20001e1d
100058e8:	100065a1 	.word	0x100065a1
	...
100058f4:	20001284 	.word	0x20001284
100058f8:	100063a9 	.word	0x100063a9
	...
10005904:	100076c4 	.word	0x100076c4
10005908:	1000772c 	.word	0x1000772c
1000590c:	7a23      	ldrb	r3, [r4, #8]
1000590e:	2b0f      	cmp	r3, #15
10005910:	d900      	bls.n	10005914 <tud_task_ext+0x390>
10005912:	e6c9      	b.n	100056a8 <tud_task_ext+0x124>
10005914:	4aaa      	ldr	r2, [pc, #680]	; (10005bc0 <tud_task_ext+0x63c>)
10005916:	445b      	add	r3, fp
10005918:	78db      	ldrb	r3, [r3, #3]
1000591a:	2a00      	cmp	r2, #0
1000591c:	d005      	beq.n	1000592a <tud_task_ext+0x3a6>
1000591e:	4aa9      	ldr	r2, [pc, #676]	; (10005bc4 <tud_task_ext+0x640>)
10005920:	7812      	ldrb	r2, [r2, #0]
10005922:	4293      	cmp	r3, r2
10005924:	d35e      	bcc.n	100059e4 <tud_task_ext+0x460>
10005926:	1a9b      	subs	r3, r3, r2
10005928:	b2db      	uxtb	r3, r3
1000592a:	2b00      	cmp	r3, #0
1000592c:	d000      	beq.n	10005930 <tud_task_ext+0x3ac>
1000592e:	e6bb      	b.n	100056a8 <tud_task_ext+0x124>
10005930:	48a5      	ldr	r0, [pc, #660]	; (10005bc8 <tud_task_ext+0x644>)
10005932:	4ea6      	ldr	r6, [pc, #664]	; (10005bcc <tud_task_ext+0x648>)
10005934:	f000 fbaa 	bl	1000608c <usbd_control_set_complete_callback>
10005938:	2101      	movs	r1, #1
1000593a:	4650      	mov	r0, sl
1000593c:	68f3      	ldr	r3, [r6, #12]
1000593e:	aa08      	add	r2, sp, #32
10005940:	4798      	blx	r3
10005942:	2800      	cmp	r0, #0
10005944:	d000      	beq.n	10005948 <tud_task_ext+0x3c4>
10005946:	e62f      	b.n	100055a8 <tud_task_ext+0x24>
10005948:	2260      	movs	r2, #96	; 0x60
1000594a:	0016      	movs	r6, r2
1000594c:	7923      	ldrb	r3, [r4, #4]
1000594e:	401e      	ands	r6, r3
10005950:	421a      	tst	r2, r3
10005952:	d000      	beq.n	10005956 <tud_task_ext+0x3d2>
10005954:	e6a8      	b.n	100056a8 <tud_task_ext+0x124>
10005956:	7963      	ldrb	r3, [r4, #5]
10005958:	3b0a      	subs	r3, #10
1000595a:	2b01      	cmp	r3, #1
1000595c:	d900      	bls.n	10005960 <tud_task_ext+0x3dc>
1000595e:	e6a3      	b.n	100056a8 <tud_task_ext+0x124>
10005960:	f000 fb94 	bl	1000608c <usbd_control_set_complete_callback>
10005964:	7963      	ldrb	r3, [r4, #5]
10005966:	2b0a      	cmp	r3, #10
10005968:	d100      	bne.n	1000596c <tud_task_ext+0x3e8>
1000596a:	e120      	b.n	10005bae <tud_task_ext+0x62a>
1000596c:	4650      	mov	r0, sl
1000596e:	a908      	add	r1, sp, #32
10005970:	f000 fb0c 	bl	10005f8c <tud_control_status>
10005974:	e618      	b.n	100055a8 <tud_task_ext+0x24>
10005976:	7a23      	ldrb	r3, [r4, #8]
10005978:	2b0f      	cmp	r3, #15
1000597a:	d900      	bls.n	1000597e <tud_task_ext+0x3fa>
1000597c:	e694      	b.n	100056a8 <tud_task_ext+0x124>
1000597e:	4a90      	ldr	r2, [pc, #576]	; (10005bc0 <tud_task_ext+0x63c>)
10005980:	445b      	add	r3, fp
10005982:	78db      	ldrb	r3, [r3, #3]
10005984:	2a00      	cmp	r2, #0
10005986:	d006      	beq.n	10005996 <tud_task_ext+0x412>
10005988:	4a8e      	ldr	r2, [pc, #568]	; (10005bc4 <tud_task_ext+0x640>)
1000598a:	7812      	ldrb	r2, [r2, #0]
1000598c:	4293      	cmp	r3, r2
1000598e:	d200      	bcs.n	10005992 <tud_task_ext+0x40e>
10005990:	e0e6      	b.n	10005b60 <tud_task_ext+0x5dc>
10005992:	1a9b      	subs	r3, r3, r2
10005994:	b2db      	uxtb	r3, r3
10005996:	2b00      	cmp	r3, #0
10005998:	d000      	beq.n	1000599c <tud_task_ext+0x418>
1000599a:	e685      	b.n	100056a8 <tud_task_ext+0x124>
1000599c:	488a      	ldr	r0, [pc, #552]	; (10005bc8 <tud_task_ext+0x644>)
1000599e:	4e8b      	ldr	r6, [pc, #556]	; (10005bcc <tud_task_ext+0x648>)
100059a0:	f000 fb74 	bl	1000608c <usbd_control_set_complete_callback>
100059a4:	2101      	movs	r1, #1
100059a6:	4650      	mov	r0, sl
100059a8:	68f3      	ldr	r3, [r6, #12]
100059aa:	aa08      	add	r2, sp, #32
100059ac:	4798      	blx	r3
100059ae:	e73b      	b.n	10005828 <tud_task_ext+0x2a4>
100059b0:	2700      	movs	r7, #0
100059b2:	2a00      	cmp	r2, #0
100059b4:	d100      	bne.n	100059b8 <tud_task_ext+0x434>
100059b6:	e767      	b.n	10005888 <tud_task_ext+0x304>
100059b8:	e676      	b.n	100056a8 <tud_task_ext+0x124>
100059ba:	0047      	lsls	r7, r0, #1
100059bc:	1838      	adds	r0, r7, r0
100059be:	4f84      	ldr	r7, [pc, #528]	; (10005bd0 <tud_task_ext+0x64c>)
100059c0:	00c0      	lsls	r0, r0, #3
100059c2:	683f      	ldr	r7, [r7, #0]
100059c4:	183f      	adds	r7, r7, r0
100059c6:	2a00      	cmp	r2, #0
100059c8:	d100      	bne.n	100059cc <tud_task_ext+0x448>
100059ca:	e75d      	b.n	10005888 <tud_task_ext+0x304>
100059cc:	2f00      	cmp	r7, #0
100059ce:	d100      	bne.n	100059d2 <tud_task_ext+0x44e>
100059d0:	e66a      	b.n	100056a8 <tud_task_ext+0x124>
100059d2:	68f8      	ldr	r0, [r7, #12]
100059d4:	f000 fb5a 	bl	1000608c <usbd_control_set_complete_callback>
100059d8:	2101      	movs	r1, #1
100059da:	4650      	mov	r0, sl
100059dc:	68fb      	ldr	r3, [r7, #12]
100059de:	aa08      	add	r2, sp, #32
100059e0:	4798      	blx	r3
100059e2:	e721      	b.n	10005828 <tud_task_ext+0x2a4>
100059e4:	4a7a      	ldr	r2, [pc, #488]	; (10005bd0 <tud_task_ext+0x64c>)
100059e6:	005e      	lsls	r6, r3, #1
100059e8:	18f3      	adds	r3, r6, r3
100059ea:	6816      	ldr	r6, [r2, #0]
100059ec:	00db      	lsls	r3, r3, #3
100059ee:	18f6      	adds	r6, r6, r3
100059f0:	2e00      	cmp	r6, #0
100059f2:	d100      	bne.n	100059f6 <tud_task_ext+0x472>
100059f4:	e658      	b.n	100056a8 <tud_task_ext+0x124>
100059f6:	68f0      	ldr	r0, [r6, #12]
100059f8:	e79c      	b.n	10005934 <tud_task_ext+0x3b0>
100059fa:	79a2      	ldrb	r2, [r4, #6]
100059fc:	9201      	str	r2, [sp, #4]
100059fe:	7873      	ldrb	r3, [r6, #1]
10005a00:	429a      	cmp	r2, r3
10005a02:	d007      	beq.n	10005a14 <tud_task_ext+0x490>
10005a04:	7873      	ldrb	r3, [r6, #1]
10005a06:	2b00      	cmp	r3, #0
10005a08:	d000      	beq.n	10005a0c <tud_task_ext+0x488>
10005a0a:	e145      	b.n	10005c98 <tud_task_ext+0x714>
10005a0c:	9b01      	ldr	r3, [sp, #4]
10005a0e:	2b00      	cmp	r3, #0
10005a10:	d000      	beq.n	10005a14 <tud_task_ext+0x490>
10005a12:	e0e9      	b.n	10005be8 <tud_task_ext+0x664>
10005a14:	465b      	mov	r3, fp
10005a16:	9a01      	ldr	r2, [sp, #4]
10005a18:	4650      	mov	r0, sl
10005a1a:	a908      	add	r1, sp, #32
10005a1c:	705a      	strb	r2, [r3, #1]
10005a1e:	f000 fab5 	bl	10005f8c <tud_control_status>
10005a22:	e5c1      	b.n	100055a8 <tud_task_ext+0x24>
10005a24:	7873      	ldrb	r3, [r6, #1]
10005a26:	aa06      	add	r2, sp, #24
10005a28:	3202      	adds	r2, #2
10005a2a:	7013      	strb	r3, [r2, #0]
10005a2c:	4650      	mov	r0, sl
10005a2e:	2301      	movs	r3, #1
10005a30:	a908      	add	r1, sp, #32
10005a32:	f000 fac3 	bl	10005fbc <tud_control_xfer>
10005a36:	e5b7      	b.n	100055a8 <tud_task_ext+0x24>
10005a38:	88e0      	ldrh	r0, [r4, #6]
10005a3a:	0a03      	lsrs	r3, r0, #8
10005a3c:	b2c0      	uxtb	r0, r0
10005a3e:	2b0f      	cmp	r3, #15
10005a40:	d900      	bls.n	10005a44 <tud_task_ext+0x4c0>
10005a42:	e631      	b.n	100056a8 <tud_task_ext+0x124>
10005a44:	4963      	ldr	r1, [pc, #396]	; (10005bd4 <tud_task_ext+0x650>)
10005a46:	009a      	lsls	r2, r3, #2
10005a48:	588a      	ldr	r2, [r1, r2]
10005a4a:	4697      	mov	pc, r2
10005a4c:	a808      	add	r0, sp, #32
10005a4e:	f000 fb23 	bl	10006098 <usbd_control_set_request>
10005a52:	4650      	mov	r0, sl
10005a54:	79a1      	ldrb	r1, [r4, #6]
10005a56:	f7ff fb81 	bl	1000515c <dcd_set_address>
10005a5a:	2202      	movs	r2, #2
10005a5c:	7833      	ldrb	r3, [r6, #0]
10005a5e:	4313      	orrs	r3, r2
10005a60:	7033      	strb	r3, [r6, #0]
10005a62:	e5a1      	b.n	100055a8 <tud_task_ext+0x24>
10005a64:	88e3      	ldrh	r3, [r4, #6]
10005a66:	2b01      	cmp	r3, #1
10005a68:	d000      	beq.n	10005a6c <tud_task_ext+0x4e8>
10005a6a:	e61d      	b.n	100056a8 <tud_task_ext+0x124>
10005a6c:	2208      	movs	r2, #8
10005a6e:	7833      	ldrb	r3, [r6, #0]
10005a70:	4393      	bics	r3, r2
10005a72:	465a      	mov	r2, fp
10005a74:	7013      	strb	r3, [r2, #0]
10005a76:	e779      	b.n	1000596c <tud_task_ext+0x3e8>
10005a78:	2002      	movs	r0, #2
10005a7a:	7831      	ldrb	r1, [r6, #0]
10005a7c:	ab06      	add	r3, sp, #24
10005a7e:	1c9a      	adds	r2, r3, #2
10005a80:	068b      	lsls	r3, r1, #26
10005a82:	0889      	lsrs	r1, r1, #2
10005a84:	0fdb      	lsrs	r3, r3, #31
10005a86:	4001      	ands	r1, r0
10005a88:	430b      	orrs	r3, r1
10005a8a:	e710      	b.n	100058ae <tud_task_ext+0x32a>
10005a8c:	88e3      	ldrh	r3, [r4, #6]
10005a8e:	2b01      	cmp	r3, #1
10005a90:	d000      	beq.n	10005a94 <tud_task_ext+0x510>
10005a92:	e609      	b.n	100056a8 <tud_task_ext+0x124>
10005a94:	2208      	movs	r2, #8
10005a96:	7833      	ldrb	r3, [r6, #0]
10005a98:	4313      	orrs	r3, r2
10005a9a:	e7ea      	b.n	10005a72 <tud_task_ext+0x4ee>
10005a9c:	4b4e      	ldr	r3, [pc, #312]	; (10005bd8 <tud_task_ext+0x654>)
10005a9e:	2b00      	cmp	r3, #0
10005aa0:	d100      	bne.n	10005aa4 <tud_task_ext+0x520>
10005aa2:	e601      	b.n	100056a8 <tud_task_ext+0x124>
10005aa4:	e000      	b.n	10005aa8 <tud_task_ext+0x524>
10005aa6:	bf00      	nop
10005aa8:	1e02      	subs	r2, r0, #0
10005aaa:	d100      	bne.n	10005aae <tud_task_ext+0x52a>
10005aac:	e5fc      	b.n	100056a8 <tud_task_ext+0x124>
10005aae:	78d3      	ldrb	r3, [r2, #3]
10005ab0:	7891      	ldrb	r1, [r2, #2]
10005ab2:	021b      	lsls	r3, r3, #8
10005ab4:	430b      	orrs	r3, r1
10005ab6:	4650      	mov	r0, sl
10005ab8:	a908      	add	r1, sp, #32
10005aba:	f000 fa7f 	bl	10005fbc <tud_control_xfer>
10005abe:	e6b3      	b.n	10005828 <tud_task_ext+0x2a4>
10005ac0:	4b46      	ldr	r3, [pc, #280]	; (10005bdc <tud_task_ext+0x658>)
10005ac2:	2b00      	cmp	r3, #0
10005ac4:	d100      	bne.n	10005ac8 <tud_task_ext+0x544>
10005ac6:	e5ef      	b.n	100056a8 <tud_task_ext+0x124>
10005ac8:	e000      	b.n	10005acc <tud_task_ext+0x548>
10005aca:	bf00      	nop
10005acc:	1e02      	subs	r2, r0, #0
10005ace:	d100      	bne.n	10005ad2 <tud_task_ext+0x54e>
10005ad0:	e5ea      	b.n	100056a8 <tud_task_ext+0x124>
10005ad2:	4650      	mov	r0, sl
10005ad4:	7813      	ldrb	r3, [r2, #0]
10005ad6:	a908      	add	r1, sp, #32
10005ad8:	f000 fa70 	bl	10005fbc <tud_control_xfer>
10005adc:	e6a4      	b.n	10005828 <tud_task_ext+0x2a4>
10005ade:	8921      	ldrh	r1, [r4, #8]
10005ae0:	f7ff fa00 	bl	10004ee4 <tud_descriptor_string_cb>
10005ae4:	1e02      	subs	r2, r0, #0
10005ae6:	d1f4      	bne.n	10005ad2 <tud_task_ext+0x54e>
10005ae8:	e5de      	b.n	100056a8 <tud_task_ext+0x124>
10005aea:	2b02      	cmp	r3, #2
10005aec:	d100      	bne.n	10005af0 <tud_task_ext+0x56c>
10005aee:	e111      	b.n	10005d14 <tud_task_ext+0x790>
10005af0:	4b3b      	ldr	r3, [pc, #236]	; (10005be0 <tud_task_ext+0x65c>)
10005af2:	2b00      	cmp	r3, #0
10005af4:	d100      	bne.n	10005af8 <tud_task_ext+0x574>
10005af6:	e5d7      	b.n	100056a8 <tud_task_ext+0x124>
10005af8:	e000      	b.n	10005afc <tud_task_ext+0x578>
10005afa:	bf00      	nop
10005afc:	0002      	movs	r2, r0
10005afe:	2a00      	cmp	r2, #0
10005b00:	d100      	bne.n	10005b04 <tud_task_ext+0x580>
10005b02:	e5d1      	b.n	100056a8 <tud_task_ext+0x124>
10005b04:	e7d3      	b.n	10005aae <tud_task_ext+0x52a>
10005b06:	f7ff f9e5 	bl	10004ed4 <tud_descriptor_device_cb>
10005b0a:	2312      	movs	r3, #18
10005b0c:	0002      	movs	r2, r0
10005b0e:	a908      	add	r1, sp, #32
10005b10:	4650      	mov	r0, sl
10005b12:	f000 fa53 	bl	10005fbc <tud_control_xfer>
10005b16:	e687      	b.n	10005828 <tud_task_ext+0x2a4>
10005b18:	482b      	ldr	r0, [pc, #172]	; (10005bc8 <tud_task_ext+0x644>)
10005b1a:	4f2c      	ldr	r7, [pc, #176]	; (10005bcc <tud_task_ext+0x648>)
10005b1c:	e75a      	b.n	100059d4 <tud_task_ext+0x450>
10005b1e:	88e2      	ldrh	r2, [r4, #6]
10005b20:	2a00      	cmp	r2, #0
10005b22:	d108      	bne.n	10005b36 <tud_task_ext+0x5b2>
10005b24:	4642      	mov	r2, r8
10005b26:	445b      	add	r3, fp
10005b28:	199e      	adds	r6, r3, r6
10005b2a:	3630      	adds	r6, #48	; 0x30
10005b2c:	78f3      	ldrb	r3, [r6, #3]
10005b2e:	2a01      	cmp	r2, #1
10005b30:	d021      	beq.n	10005b76 <tud_task_ext+0x5f2>
10005b32:	079b      	lsls	r3, r3, #30
10005b34:	d52e      	bpl.n	10005b94 <tud_task_ext+0x610>
10005b36:	2f00      	cmp	r7, #0
10005b38:	d100      	bne.n	10005b3c <tud_task_ext+0x5b8>
10005b3a:	e535      	b.n	100055a8 <tud_task_ext+0x24>
10005b3c:	68f8      	ldr	r0, [r7, #12]
10005b3e:	f000 faa5 	bl	1000608c <usbd_control_set_complete_callback>
10005b42:	68fb      	ldr	r3, [r7, #12]
10005b44:	aa08      	add	r2, sp, #32
10005b46:	2101      	movs	r1, #1
10005b48:	4650      	mov	r0, sl
10005b4a:	4798      	blx	r3
10005b4c:	2000      	movs	r0, #0
10005b4e:	f000 fa9d 	bl	1000608c <usbd_control_set_complete_callback>
10005b52:	2334      	movs	r3, #52	; 0x34
10005b54:	465a      	mov	r2, fp
10005b56:	5cd3      	ldrb	r3, [r2, r3]
10005b58:	07db      	lsls	r3, r3, #31
10005b5a:	d500      	bpl.n	10005b5e <tud_task_ext+0x5da>
10005b5c:	e524      	b.n	100055a8 <tud_task_ext+0x24>
10005b5e:	e705      	b.n	1000596c <tud_task_ext+0x3e8>
10005b60:	4a1b      	ldr	r2, [pc, #108]	; (10005bd0 <tud_task_ext+0x64c>)
10005b62:	005e      	lsls	r6, r3, #1
10005b64:	18f3      	adds	r3, r6, r3
10005b66:	6816      	ldr	r6, [r2, #0]
10005b68:	00db      	lsls	r3, r3, #3
10005b6a:	18f6      	adds	r6, r6, r3
10005b6c:	2e00      	cmp	r6, #0
10005b6e:	d100      	bne.n	10005b72 <tud_task_ext+0x5ee>
10005b70:	e59a      	b.n	100056a8 <tud_task_ext+0x124>
10005b72:	68f0      	ldr	r0, [r6, #12]
10005b74:	e714      	b.n	100059a0 <tud_task_ext+0x41c>
10005b76:	079b      	lsls	r3, r3, #30
10005b78:	d5dd      	bpl.n	10005b36 <tud_task_ext+0x5b2>
10005b7a:	4b1a      	ldr	r3, [pc, #104]	; (10005be4 <tud_task_ext+0x660>)
10005b7c:	7818      	ldrb	r0, [r3, #0]
10005b7e:	f7ff fc0f 	bl	100053a0 <dcd_edpt_clear_stall>
10005b82:	2202      	movs	r2, #2
10005b84:	78f3      	ldrb	r3, [r6, #3]
10005b86:	4393      	bics	r3, r2
10005b88:	4642      	mov	r2, r8
10005b8a:	70f3      	strb	r3, [r6, #3]
10005b8c:	78f3      	ldrb	r3, [r6, #3]
10005b8e:	4393      	bics	r3, r2
10005b90:	70f3      	strb	r3, [r6, #3]
10005b92:	e7d0      	b.n	10005b36 <tud_task_ext+0x5b2>
10005b94:	4b13      	ldr	r3, [pc, #76]	; (10005be4 <tud_task_ext+0x660>)
10005b96:	7818      	ldrb	r0, [r3, #0]
10005b98:	f7ff fbe6 	bl	10005368 <dcd_edpt_stall>
10005b9c:	2202      	movs	r2, #2
10005b9e:	78f3      	ldrb	r3, [r6, #3]
10005ba0:	4313      	orrs	r3, r2
10005ba2:	2201      	movs	r2, #1
10005ba4:	70f3      	strb	r3, [r6, #3]
10005ba6:	78f3      	ldrb	r3, [r6, #3]
10005ba8:	4313      	orrs	r3, r2
10005baa:	70f3      	strb	r3, [r6, #3]
10005bac:	e7c3      	b.n	10005b36 <tud_task_ext+0x5b2>
10005bae:	ab06      	add	r3, sp, #24
10005bb0:	1c9a      	adds	r2, r3, #2
10005bb2:	4650      	mov	r0, sl
10005bb4:	2301      	movs	r3, #1
10005bb6:	a908      	add	r1, sp, #32
10005bb8:	7016      	strb	r6, [r2, #0]
10005bba:	f000 f9ff 	bl	10005fbc <tud_control_xfer>
10005bbe:	e4f3      	b.n	100055a8 <tud_task_ext+0x24>
10005bc0:	10004add 	.word	0x10004add
10005bc4:	20001e1d 	.word	0x20001e1d
10005bc8:	100064bd 	.word	0x100064bd
10005bcc:	1000772c 	.word	0x1000772c
10005bd0:	20001284 	.word	0x20001284
10005bd4:	100076ec 	.word	0x100076ec
	...
10005be4:	20000f3c 	.word	0x20000f3c
10005be8:	1e58      	subs	r0, r3, #1
10005bea:	b2c0      	uxtb	r0, r0
10005bec:	f7ff f976 	bl	10004edc <tud_descriptor_configuration_cb>
10005bf0:	2800      	cmp	r0, #0
10005bf2:	d100      	bne.n	10005bf6 <tud_task_ext+0x672>
10005bf4:	e558      	b.n	100056a8 <tud_task_ext+0x124>
10005bf6:	7843      	ldrb	r3, [r0, #1]
10005bf8:	9305      	str	r3, [sp, #20]
10005bfa:	2b02      	cmp	r3, #2
10005bfc:	d000      	beq.n	10005c00 <tud_task_ext+0x67c>
10005bfe:	e553      	b.n	100056a8 <tud_task_ext+0x124>
10005c00:	2101      	movs	r1, #1
10005c02:	79c2      	ldrb	r2, [r0, #7]
10005c04:	0007      	movs	r7, r0
10005c06:	1193      	asrs	r3, r2, #6
10005c08:	1152      	asrs	r2, r2, #5
10005c0a:	400b      	ands	r3, r1
10005c0c:	400a      	ands	r2, r1
10005c0e:	0112      	lsls	r2, r2, #4
10005c10:	015b      	lsls	r3, r3, #5
10005c12:	4313      	orrs	r3, r2
10005c14:	465a      	mov	r2, fp
10005c16:	7812      	ldrb	r2, [r2, #0]
10005c18:	312f      	adds	r1, #47	; 0x2f
10005c1a:	438a      	bics	r2, r1
10005c1c:	4313      	orrs	r3, r2
10005c1e:	465a      	mov	r2, fp
10005c20:	7013      	strb	r3, [r2, #0]
10005c22:	78c3      	ldrb	r3, [r0, #3]
10005c24:	7882      	ldrb	r2, [r0, #2]
10005c26:	021b      	lsls	r3, r3, #8
10005c28:	4313      	orrs	r3, r2
10005c2a:	18c3      	adds	r3, r0, r3
10005c2c:	3709      	adds	r7, #9
10005c2e:	9303      	str	r3, [sp, #12]
10005c30:	9b03      	ldr	r3, [sp, #12]
10005c32:	42bb      	cmp	r3, r7
10005c34:	d800      	bhi.n	10005c38 <tud_task_ext+0x6b4>
10005c36:	e0ac      	b.n	10005d92 <tud_task_ext+0x80e>
10005c38:	2201      	movs	r2, #1
10005c3a:	787b      	ldrb	r3, [r7, #1]
10005c3c:	9200      	str	r2, [sp, #0]
10005c3e:	2b0b      	cmp	r3, #11
10005c40:	d103      	bne.n	10005c4a <tud_task_ext+0x6c6>
10005c42:	78fb      	ldrb	r3, [r7, #3]
10005c44:	9300      	str	r3, [sp, #0]
10005c46:	783b      	ldrb	r3, [r7, #0]
10005c48:	18ff      	adds	r7, r7, r3
10005c4a:	787b      	ldrb	r3, [r7, #1]
10005c4c:	2b04      	cmp	r3, #4
10005c4e:	d000      	beq.n	10005c52 <tud_task_ext+0x6ce>
10005c50:	e52a      	b.n	100056a8 <tud_task_ext+0x124>
10005c52:	2600      	movs	r6, #0
10005c54:	9b03      	ldr	r3, [sp, #12]
10005c56:	4a58      	ldr	r2, [pc, #352]	; (10005db8 <tud_task_ext+0x834>)
10005c58:	1bdb      	subs	r3, r3, r7
10005c5a:	b29b      	uxth	r3, r3
10005c5c:	9302      	str	r3, [sp, #8]
10005c5e:	4b57      	ldr	r3, [pc, #348]	; (10005dbc <tud_task_ext+0x838>)
10005c60:	9304      	str	r3, [sp, #16]
10005c62:	781b      	ldrb	r3, [r3, #0]
10005c64:	42b2      	cmp	r2, r6
10005c66:	d063      	beq.n	10005d30 <tud_task_ext+0x7ac>
10005c68:	46b8      	mov	r8, r7
10005c6a:	42b3      	cmp	r3, r6
10005c6c:	d856      	bhi.n	10005d1c <tud_task_ext+0x798>
10005c6e:	d000      	beq.n	10005c72 <tud_task_ext+0x6ee>
10005c70:	e51a      	b.n	100056a8 <tud_task_ext+0x124>
10005c72:	4b53      	ldr	r3, [pc, #332]	; (10005dc0 <tud_task_ext+0x83c>)
10005c74:	4f53      	ldr	r7, [pc, #332]	; (10005dc4 <tud_task_ext+0x840>)
10005c76:	4641      	mov	r1, r8
10005c78:	4650      	mov	r0, sl
10005c7a:	9a02      	ldr	r2, [sp, #8]
10005c7c:	4798      	blx	r3
10005c7e:	2808      	cmp	r0, #8
10005c80:	d903      	bls.n	10005c8a <tud_task_ext+0x706>
10005c82:	9a02      	ldr	r2, [sp, #8]
10005c84:	4282      	cmp	r2, r0
10005c86:	d300      	bcc.n	10005c8a <tud_task_ext+0x706>
10005c88:	e08a      	b.n	10005da0 <tud_task_ext+0x81c>
10005c8a:	9b04      	ldr	r3, [sp, #16]
10005c8c:	3601      	adds	r6, #1
10005c8e:	781b      	ldrb	r3, [r3, #0]
10005c90:	b2f6      	uxtb	r6, r6
10005c92:	42b3      	cmp	r3, r6
10005c94:	d2e9      	bcs.n	10005c6a <tud_task_ext+0x6e6>
10005c96:	e507      	b.n	100056a8 <tud_task_ext+0x124>
10005c98:	4650      	mov	r0, sl
10005c9a:	f7ff fb4f 	bl	1000533c <dcd_edpt_close_all>
10005c9e:	78b3      	ldrb	r3, [r6, #2]
10005ca0:	4a45      	ldr	r2, [pc, #276]	; (10005db8 <tud_task_ext+0x834>)
10005ca2:	9300      	str	r3, [sp, #0]
10005ca4:	4b45      	ldr	r3, [pc, #276]	; (10005dbc <tud_task_ext+0x838>)
10005ca6:	2600      	movs	r6, #0
10005ca8:	4698      	mov	r8, r3
10005caa:	781b      	ldrb	r3, [r3, #0]
10005cac:	2a00      	cmp	r2, #0
10005cae:	d00d      	beq.n	10005ccc <tud_task_ext+0x748>
10005cb0:	4f45      	ldr	r7, [pc, #276]	; (10005dc8 <tud_task_ext+0x844>)
10005cb2:	42b3      	cmp	r3, r6
10005cb4:	d825      	bhi.n	10005d02 <tud_task_ext+0x77e>
10005cb6:	d120      	bne.n	10005cfa <tud_task_ext+0x776>
10005cb8:	4b44      	ldr	r3, [pc, #272]	; (10005dcc <tud_task_ext+0x848>)
10005cba:	4650      	mov	r0, sl
10005cbc:	4798      	blx	r3
10005cbe:	4643      	mov	r3, r8
10005cc0:	3601      	adds	r6, #1
10005cc2:	781b      	ldrb	r3, [r3, #0]
10005cc4:	b2f6      	uxtb	r6, r6
10005cc6:	42b3      	cmp	r3, r6
10005cc8:	d2f3      	bcs.n	10005cb2 <tud_task_ext+0x72e>
10005cca:	e006      	b.n	10005cda <tud_task_ext+0x756>
10005ccc:	4650      	mov	r0, sl
10005cce:	f000 fb6b 	bl	100063a8 <cdcd_reset>
10005cd2:	4643      	mov	r3, r8
10005cd4:	781b      	ldrb	r3, [r3, #0]
10005cd6:	2b00      	cmp	r3, #0
10005cd8:	d10f      	bne.n	10005cfa <tud_task_ext+0x776>
10005cda:	2253      	movs	r2, #83	; 0x53
10005cdc:	2100      	movs	r1, #0
10005cde:	4658      	mov	r0, fp
10005ce0:	f7fe fc56 	bl	10004590 <__wrap_memset>
10005ce4:	465b      	mov	r3, fp
10005ce6:	2210      	movs	r2, #16
10005ce8:	21ff      	movs	r1, #255	; 0xff
10005cea:	1cd8      	adds	r0, r3, #3
10005cec:	f7fe fc50 	bl	10004590 <__wrap_memset>
10005cf0:	2220      	movs	r2, #32
10005cf2:	21ff      	movs	r1, #255	; 0xff
10005cf4:	4836      	ldr	r0, [pc, #216]	; (10005dd0 <tud_task_ext+0x84c>)
10005cf6:	f7fe fc4b 	bl	10004590 <__wrap_memset>
10005cfa:	465b      	mov	r3, fp
10005cfc:	9a00      	ldr	r2, [sp, #0]
10005cfe:	709a      	strb	r2, [r3, #2]
10005d00:	e684      	b.n	10005a0c <tud_task_ext+0x488>
10005d02:	2318      	movs	r3, #24
10005d04:	683a      	ldr	r2, [r7, #0]
10005d06:	4373      	muls	r3, r6
10005d08:	4694      	mov	ip, r2
10005d0a:	4463      	add	r3, ip
10005d0c:	2b00      	cmp	r3, #0
10005d0e:	d0f4      	beq.n	10005cfa <tud_task_ext+0x776>
10005d10:	685b      	ldr	r3, [r3, #4]
10005d12:	e7d2      	b.n	10005cba <tud_task_ext+0x736>
10005d14:	f7ff f8e2 	bl	10004edc <tud_descriptor_configuration_cb>
10005d18:	0002      	movs	r2, r0
10005d1a:	e6f0      	b.n	10005afe <tud_task_ext+0x57a>
10005d1c:	4b2a      	ldr	r3, [pc, #168]	; (10005dc8 <tud_task_ext+0x844>)
10005d1e:	681f      	ldr	r7, [r3, #0]
10005d20:	2318      	movs	r3, #24
10005d22:	4373      	muls	r3, r6
10005d24:	18ff      	adds	r7, r7, r3
10005d26:	2f00      	cmp	r7, #0
10005d28:	d100      	bne.n	10005d2c <tud_task_ext+0x7a8>
10005d2a:	e4bd      	b.n	100056a8 <tud_task_ext+0x124>
10005d2c:	68bb      	ldr	r3, [r7, #8]
10005d2e:	e7a2      	b.n	10005c76 <tud_task_ext+0x6f2>
10005d30:	9b02      	ldr	r3, [sp, #8]
10005d32:	0039      	movs	r1, r7
10005d34:	001a      	movs	r2, r3
10005d36:	4650      	mov	r0, sl
10005d38:	4698      	mov	r8, r3
10005d3a:	f000 fb4b 	bl	100063d4 <cdcd_open>
10005d3e:	2808      	cmp	r0, #8
10005d40:	d800      	bhi.n	10005d44 <tud_task_ext+0x7c0>
10005d42:	e4b1      	b.n	100056a8 <tud_task_ext+0x124>
10005d44:	4642      	mov	r2, r8
10005d46:	4282      	cmp	r2, r0
10005d48:	d200      	bcs.n	10005d4c <tud_task_ext+0x7c8>
10005d4a:	e4ad      	b.n	100056a8 <tud_task_ext+0x124>
10005d4c:	4b1d      	ldr	r3, [pc, #116]	; (10005dc4 <tud_task_ext+0x840>)
10005d4e:	4698      	mov	r8, r3
10005d50:	9b00      	ldr	r3, [sp, #0]
10005d52:	2b01      	cmp	r3, #1
10005d54:	d028      	beq.n	10005da8 <tud_task_ext+0x824>
10005d56:	2200      	movs	r2, #0
10005d58:	e00a      	b.n	10005d70 <tud_task_ext+0x7ec>
10005d5a:	78bb      	ldrb	r3, [r7, #2]
10005d5c:	18d3      	adds	r3, r2, r3
10005d5e:	b2db      	uxtb	r3, r3
10005d60:	445b      	add	r3, fp
10005d62:	78d9      	ldrb	r1, [r3, #3]
10005d64:	29ff      	cmp	r1, #255	; 0xff
10005d66:	d000      	beq.n	10005d6a <tud_task_ext+0x7e6>
10005d68:	e49e      	b.n	100056a8 <tud_task_ext+0x124>
10005d6a:	3201      	adds	r2, #1
10005d6c:	70de      	strb	r6, [r3, #3]
10005d6e:	b2d2      	uxtb	r2, r2
10005d70:	9b00      	ldr	r3, [sp, #0]
10005d72:	429a      	cmp	r2, r3
10005d74:	d1f1      	bne.n	10005d5a <tud_task_ext+0x7d6>
10005d76:	4680      	mov	r8, r0
10005d78:	0033      	movs	r3, r6
10005d7a:	0002      	movs	r2, r0
10005d7c:	0039      	movs	r1, r7
10005d7e:	4814      	ldr	r0, [pc, #80]	; (10005dd0 <tud_task_ext+0x84c>)
10005d80:	f000 fd3c 	bl	100067fc <tu_edpt_bind_driver>
10005d84:	9b04      	ldr	r3, [sp, #16]
10005d86:	4447      	add	r7, r8
10005d88:	781b      	ldrb	r3, [r3, #0]
10005d8a:	42b3      	cmp	r3, r6
10005d8c:	d300      	bcc.n	10005d90 <tud_task_ext+0x80c>
10005d8e:	e74f      	b.n	10005c30 <tud_task_ext+0x6ac>
10005d90:	e48a      	b.n	100056a8 <tud_task_ext+0x124>
10005d92:	4b10      	ldr	r3, [pc, #64]	; (10005dd4 <tud_task_ext+0x850>)
10005d94:	2b00      	cmp	r3, #0
10005d96:	d100      	bne.n	10005d9a <tud_task_ext+0x816>
10005d98:	e63c      	b.n	10005a14 <tud_task_ext+0x490>
10005d9a:	e000      	b.n	10005d9e <tud_task_ext+0x81a>
10005d9c:	bf00      	nop
10005d9e:	e639      	b.n	10005a14 <tud_task_ext+0x490>
10005da0:	003b      	movs	r3, r7
10005da2:	4647      	mov	r7, r8
10005da4:	4698      	mov	r8, r3
10005da6:	e7d3      	b.n	10005d50 <tud_task_ext+0x7cc>
10005da8:	4642      	mov	r2, r8
10005daa:	4b05      	ldr	r3, [pc, #20]	; (10005dc0 <tud_task_ext+0x83c>)
10005dac:	6892      	ldr	r2, [r2, #8]
10005dae:	429a      	cmp	r2, r3
10005db0:	d1d1      	bne.n	10005d56 <tud_task_ext+0x7d2>
10005db2:	9b05      	ldr	r3, [sp, #20]
10005db4:	9300      	str	r3, [sp, #0]
10005db6:	e7ce      	b.n	10005d56 <tud_task_ext+0x7d2>
10005db8:	10004add 	.word	0x10004add
10005dbc:	20001e1d 	.word	0x20001e1d
10005dc0:	100063d5 	.word	0x100063d5
10005dc4:	1000772c 	.word	0x1000772c
10005dc8:	20001284 	.word	0x20001284
10005dcc:	100063a9 	.word	0x100063a9
10005dd0:	200015bf 	.word	0x200015bf
10005dd4:	00000000 	.word	0x00000000

10005dd8 <usbd_open_edpt_pair>:
10005dd8:	b5f8      	push	{r3, r4, r5, r6, r7, lr}
10005dda:	4657      	mov	r7, sl
10005ddc:	464e      	mov	r6, r9
10005dde:	46de      	mov	lr, fp
10005de0:	4645      	mov	r5, r8
10005de2:	000c      	movs	r4, r1
10005de4:	b5e0      	push	{r5, r6, r7, lr}
10005de6:	0016      	movs	r6, r2
10005de8:	001f      	movs	r7, r3
10005dea:	2a00      	cmp	r2, #0
10005dec:	d03c      	beq.n	10005e68 <usbd_open_edpt_pair+0x90>
10005dee:	2370      	movs	r3, #112	; 0x70
10005df0:	4698      	mov	r8, r3
10005df2:	4b1e      	ldr	r3, [pc, #120]	; (10005e6c <usbd_open_edpt_pair+0x94>)
10005df4:	2500      	movs	r5, #0
10005df6:	469b      	mov	fp, r3
10005df8:	4b1d      	ldr	r3, [pc, #116]	; (10005e70 <usbd_open_edpt_pair+0x98>)
10005dfa:	469a      	mov	sl, r3
10005dfc:	e01a      	b.n	10005e34 <usbd_open_edpt_pair+0x5c>
10005dfe:	465b      	mov	r3, fp
10005e00:	781b      	ldrb	r3, [r3, #0]
10005e02:	0020      	movs	r0, r4
10005e04:	4699      	mov	r9, r3
10005e06:	4653      	mov	r3, sl
10005e08:	7899      	ldrb	r1, [r3, #2]
10005e0a:	f000 fcbb 	bl	10006784 <tu_edpt_validate>
10005e0e:	2800      	cmp	r0, #0
10005e10:	d01c      	beq.n	10005e4c <usbd_open_edpt_pair+0x74>
10005e12:	0021      	movs	r1, r4
10005e14:	4648      	mov	r0, r9
10005e16:	f7ff fa0d 	bl	10005234 <dcd_edpt_open>
10005e1a:	2800      	cmp	r0, #0
10005e1c:	d016      	beq.n	10005e4c <usbd_open_edpt_pair+0x74>
10005e1e:	78a3      	ldrb	r3, [r4, #2]
10005e20:	09da      	lsrs	r2, r3, #7
10005e22:	2a01      	cmp	r2, #1
10005e24:	d019      	beq.n	10005e5a <usbd_open_edpt_pair+0x82>
10005e26:	9a0a      	ldr	r2, [sp, #40]	; 0x28
10005e28:	3501      	adds	r5, #1
10005e2a:	7013      	strb	r3, [r2, #0]
10005e2c:	7823      	ldrb	r3, [r4, #0]
10005e2e:	18e4      	adds	r4, r4, r3
10005e30:	42b5      	cmp	r5, r6
10005e32:	da19      	bge.n	10005e68 <usbd_open_edpt_pair+0x90>
10005e34:	7863      	ldrb	r3, [r4, #1]
10005e36:	2b05      	cmp	r3, #5
10005e38:	d108      	bne.n	10005e4c <usbd_open_edpt_pair+0x74>
10005e3a:	78e3      	ldrb	r3, [r4, #3]
10005e3c:	079b      	lsls	r3, r3, #30
10005e3e:	0f9b      	lsrs	r3, r3, #30
10005e40:	42bb      	cmp	r3, r7
10005e42:	d103      	bne.n	10005e4c <usbd_open_edpt_pair+0x74>
10005e44:	4642      	mov	r2, r8
10005e46:	78a3      	ldrb	r3, [r4, #2]
10005e48:	421a      	tst	r2, r3
10005e4a:	d0d8      	beq.n	10005dfe <usbd_open_edpt_pair+0x26>
10005e4c:	2000      	movs	r0, #0
10005e4e:	bcf0      	pop	{r4, r5, r6, r7}
10005e50:	46bb      	mov	fp, r7
10005e52:	46b2      	mov	sl, r6
10005e54:	46a9      	mov	r9, r5
10005e56:	46a0      	mov	r8, r4
10005e58:	bdf8      	pop	{r3, r4, r5, r6, r7, pc}
10005e5a:	9a0b      	ldr	r2, [sp, #44]	; 0x2c
10005e5c:	3501      	adds	r5, #1
10005e5e:	7013      	strb	r3, [r2, #0]
10005e60:	7823      	ldrb	r3, [r4, #0]
10005e62:	18e4      	adds	r4, r4, r3
10005e64:	42b5      	cmp	r5, r6
10005e66:	dbe5      	blt.n	10005e34 <usbd_open_edpt_pair+0x5c>
10005e68:	2001      	movs	r0, #1
10005e6a:	e7f0      	b.n	10005e4e <usbd_open_edpt_pair+0x76>
10005e6c:	20000f3c 	.word	0x20000f3c
10005e70:	200015ac 	.word	0x200015ac

10005e74 <usbd_defer_func>:
10005e74:	2380      	movs	r3, #128	; 0x80
10005e76:	b510      	push	{r4, lr}
10005e78:	011b      	lsls	r3, r3, #4
10005e7a:	b084      	sub	sp, #16
10005e7c:	9301      	str	r3, [sp, #4]
10005e7e:	4b0e      	ldr	r3, [pc, #56]	; (10005eb8 <usbd_defer_func+0x44>)
10005e80:	9002      	str	r0, [sp, #8]
10005e82:	681c      	ldr	r4, [r3, #0]
10005e84:	9103      	str	r1, [sp, #12]
10005e86:	6962      	ldr	r2, [r4, #20]
10005e88:	f3ef 8310 	mrs	r3, PRIMASK
10005e8c:	b672      	cpsid	i
10005e8e:	6811      	ldr	r1, [r2, #0]
10005e90:	2900      	cmp	r1, #0
10005e92:	d0fc      	beq.n	10005e8e <usbd_defer_func+0x1a>
10005e94:	f3bf 8f5f 	dmb	sy
10005e98:	61a3      	str	r3, [r4, #24]
10005e9a:	0020      	movs	r0, r4
10005e9c:	a901      	add	r1, sp, #4
10005e9e:	f000 fdf9 	bl	10006a94 <tu_fifo_write>
10005ea2:	6962      	ldr	r2, [r4, #20]
10005ea4:	69a3      	ldr	r3, [r4, #24]
10005ea6:	f3bf 8f5f 	dmb	sy
10005eaa:	2100      	movs	r1, #0
10005eac:	6011      	str	r1, [r2, #0]
10005eae:	f383 8810 	msr	PRIMASK, r3
10005eb2:	b004      	add	sp, #16
10005eb4:	bd10      	pop	{r4, pc}
10005eb6:	46c0      	nop			; (mov r8, r8)
10005eb8:	20001604 	.word	0x20001604

10005ebc <usbd_edpt_open>:
10005ebc:	2270      	movs	r2, #112	; 0x70
10005ebe:	b570      	push	{r4, r5, r6, lr}
10005ec0:	788b      	ldrb	r3, [r1, #2]
10005ec2:	000c      	movs	r4, r1
10005ec4:	421a      	tst	r2, r3
10005ec6:	d001      	beq.n	10005ecc <usbd_edpt_open+0x10>
10005ec8:	2000      	movs	r0, #0
10005eca:	bd70      	pop	{r4, r5, r6, pc}
10005ecc:	4b06      	ldr	r3, [pc, #24]	; (10005ee8 <usbd_edpt_open+0x2c>)
10005ece:	0020      	movs	r0, r4
10005ed0:	781d      	ldrb	r5, [r3, #0]
10005ed2:	4b06      	ldr	r3, [pc, #24]	; (10005eec <usbd_edpt_open+0x30>)
10005ed4:	7899      	ldrb	r1, [r3, #2]
10005ed6:	f000 fc55 	bl	10006784 <tu_edpt_validate>
10005eda:	2800      	cmp	r0, #0
10005edc:	d0f4      	beq.n	10005ec8 <usbd_edpt_open+0xc>
10005ede:	0021      	movs	r1, r4
10005ee0:	0028      	movs	r0, r5
10005ee2:	f7ff f9a7 	bl	10005234 <dcd_edpt_open>
10005ee6:	e7f0      	b.n	10005eca <usbd_edpt_open+0xe>
10005ee8:	20000f3c 	.word	0x20000f3c
10005eec:	200015ac 	.word	0x200015ac

10005ef0 <usbd_edpt_claim>:
10005ef0:	4b07      	ldr	r3, [pc, #28]	; (10005f10 <usbd_edpt_claim+0x20>)
10005ef2:	0008      	movs	r0, r1
10005ef4:	6819      	ldr	r1, [r3, #0]
10005ef6:	237f      	movs	r3, #127	; 0x7f
10005ef8:	b510      	push	{r4, lr}
10005efa:	4003      	ands	r3, r0
10005efc:	09c0      	lsrs	r0, r0, #7
10005efe:	005b      	lsls	r3, r3, #1
10005f00:	3033      	adds	r0, #51	; 0x33
10005f02:	1818      	adds	r0, r3, r0
10005f04:	4b03      	ldr	r3, [pc, #12]	; (10005f14 <usbd_edpt_claim+0x24>)
10005f06:	1818      	adds	r0, r3, r0
10005f08:	f000 fbf8 	bl	100066fc <tu_edpt_claim>
10005f0c:	bd10      	pop	{r4, pc}
10005f0e:	46c0      	nop			; (mov r8, r8)
10005f10:	20001600 	.word	0x20001600
10005f14:	200015ac 	.word	0x200015ac

10005f18 <usbd_edpt_release>:
10005f18:	4b07      	ldr	r3, [pc, #28]	; (10005f38 <usbd_edpt_release+0x20>)
10005f1a:	0008      	movs	r0, r1
10005f1c:	6819      	ldr	r1, [r3, #0]
10005f1e:	237f      	movs	r3, #127	; 0x7f
10005f20:	b510      	push	{r4, lr}
10005f22:	4003      	ands	r3, r0
10005f24:	09c0      	lsrs	r0, r0, #7
10005f26:	005b      	lsls	r3, r3, #1
10005f28:	3033      	adds	r0, #51	; 0x33
10005f2a:	1818      	adds	r0, r3, r0
10005f2c:	4b03      	ldr	r3, [pc, #12]	; (10005f3c <usbd_edpt_release+0x24>)
10005f2e:	1818      	adds	r0, r3, r0
10005f30:	f000 fc0c 	bl	1000674c <tu_edpt_release>
10005f34:	bd10      	pop	{r4, pc}
10005f36:	46c0      	nop			; (mov r8, r8)
10005f38:	20001600 	.word	0x20001600
10005f3c:	200015ac 	.word	0x200015ac

10005f40 <usbd_edpt_xfer>:
10005f40:	207f      	movs	r0, #127	; 0x7f
10005f42:	b570      	push	{r4, r5, r6, lr}
10005f44:	4008      	ands	r0, r1
10005f46:	4c0f      	ldr	r4, [pc, #60]	; (10005f84 <usbd_edpt_xfer+0x44>)
10005f48:	0040      	lsls	r0, r0, #1
10005f4a:	09cd      	lsrs	r5, r1, #7
10005f4c:	1824      	adds	r4, r4, r0
10005f4e:	1964      	adds	r4, r4, r5
10005f50:	3430      	adds	r4, #48	; 0x30
10005f52:	78e5      	ldrb	r5, [r4, #3]
10005f54:	2000      	movs	r0, #0
10005f56:	07ed      	lsls	r5, r5, #31
10005f58:	d500      	bpl.n	10005f5c <usbd_edpt_xfer+0x1c>
10005f5a:	bd70      	pop	{r4, r5, r6, pc}
10005f5c:	2601      	movs	r6, #1
10005f5e:	78e5      	ldrb	r5, [r4, #3]
10005f60:	4809      	ldr	r0, [pc, #36]	; (10005f88 <usbd_edpt_xfer+0x48>)
10005f62:	4335      	orrs	r5, r6
10005f64:	7800      	ldrb	r0, [r0, #0]
10005f66:	70e5      	strb	r5, [r4, #3]
10005f68:	f7ff f9ec 	bl	10005344 <dcd_edpt_xfer>
10005f6c:	2800      	cmp	r0, #0
10005f6e:	d1f4      	bne.n	10005f5a <usbd_edpt_xfer+0x1a>
10005f70:	2201      	movs	r2, #1
10005f72:	78e3      	ldrb	r3, [r4, #3]
10005f74:	4393      	bics	r3, r2
10005f76:	70e3      	strb	r3, [r4, #3]
10005f78:	78e3      	ldrb	r3, [r4, #3]
10005f7a:	3203      	adds	r2, #3
10005f7c:	4393      	bics	r3, r2
10005f7e:	70e3      	strb	r3, [r4, #3]
10005f80:	e7eb      	b.n	10005f5a <usbd_edpt_xfer+0x1a>
10005f82:	46c0      	nop			; (mov r8, r8)
10005f84:	200015ac 	.word	0x200015ac
10005f88:	20000f3c 	.word	0x20000f3c

10005f8c <tud_control_status>:
10005f8c:	b570      	push	{r4, r5, r6, lr}
10005f8e:	4e0a      	ldr	r6, [pc, #40]	; (10005fb8 <tud_control_status+0x2c>)
10005f90:	0005      	movs	r5, r0
10005f92:	0030      	movs	r0, r6
10005f94:	2208      	movs	r2, #8
10005f96:	000c      	movs	r4, r1
10005f98:	f7fe fb00 	bl	1000459c <__wrap___aeabi_memcpy>
10005f9c:	2300      	movs	r3, #0
10005f9e:	217f      	movs	r1, #127	; 0x7f
10005fa0:	60f3      	str	r3, [r6, #12]
10005fa2:	7822      	ldrb	r2, [r4, #0]
10005fa4:	60b3      	str	r3, [r6, #8]
10005fa6:	4291      	cmp	r1, r2
10005fa8:	415b      	adcs	r3, r3
10005faa:	0028      	movs	r0, r5
10005fac:	01d9      	lsls	r1, r3, #7
10005fae:	2200      	movs	r2, #0
10005fb0:	2300      	movs	r3, #0
10005fb2:	f7ff ffc5 	bl	10005f40 <usbd_edpt_xfer>
10005fb6:	bd70      	pop	{r4, r5, r6, pc}
10005fb8:	20001550 	.word	0x20001550

10005fbc <tud_control_xfer>:
10005fbc:	b5f8      	push	{r3, r4, r5, r6, r7, lr}
10005fbe:	46ce      	mov	lr, r9
10005fc0:	4647      	mov	r7, r8
10005fc2:	4691      	mov	r9, r2
10005fc4:	4e2a      	ldr	r6, [pc, #168]	; (10006070 <tud_control_xfer+0xb4>)
10005fc6:	b580      	push	{r7, lr}
10005fc8:	2208      	movs	r2, #8
10005fca:	0007      	movs	r7, r0
10005fcc:	0030      	movs	r0, r6
10005fce:	000d      	movs	r5, r1
10005fd0:	4698      	mov	r8, r3
10005fd2:	f7fe fae3 	bl	1000459c <__wrap___aeabi_memcpy>
10005fd6:	464b      	mov	r3, r9
10005fd8:	60b3      	str	r3, [r6, #8]
10005fda:	2300      	movs	r3, #0
10005fdc:	81f3      	strh	r3, [r6, #14]
10005fde:	79ec      	ldrb	r4, [r5, #7]
10005fe0:	79a9      	ldrb	r1, [r5, #6]
10005fe2:	0224      	lsls	r4, r4, #8
10005fe4:	430c      	orrs	r4, r1
10005fe6:	1c23      	adds	r3, r4, #0
10005fe8:	4544      	cmp	r4, r8
10005fea:	d900      	bls.n	10005fee <tud_control_xfer+0x32>
10005fec:	4643      	mov	r3, r8
10005fee:	b29a      	uxth	r2, r3
10005ff0:	4690      	mov	r8, r2
10005ff2:	81b3      	strh	r3, [r6, #12]
10005ff4:	2c00      	cmp	r4, #0
10005ff6:	d013      	beq.n	10006020 <tud_control_xfer+0x64>
10005ff8:	2a00      	cmp	r2, #0
10005ffa:	d01f      	beq.n	1000603c <tud_control_xfer+0x80>
10005ffc:	464b      	mov	r3, r9
10005ffe:	2b00      	cmp	r3, #0
10006000:	d034      	beq.n	1000606c <tud_control_xfer+0xb0>
10006002:	1c13      	adds	r3, r2, #0
10006004:	2a40      	cmp	r2, #64	; 0x40
10006006:	d81f      	bhi.n	10006048 <tud_control_xfer+0x8c>
10006008:	b29b      	uxth	r3, r3
1000600a:	4698      	mov	r8, r3
1000600c:	7833      	ldrb	r3, [r6, #0]
1000600e:	2b7f      	cmp	r3, #127	; 0x7f
10006010:	d820      	bhi.n	10006054 <tud_control_xfer+0x98>
10006012:	2100      	movs	r1, #0
10006014:	4a17      	ldr	r2, [pc, #92]	; (10006074 <tud_control_xfer+0xb8>)
10006016:	4643      	mov	r3, r8
10006018:	0038      	movs	r0, r7
1000601a:	f7ff ff91 	bl	10005f40 <usbd_edpt_xfer>
1000601e:	e009      	b.n	10006034 <tud_control_xfer+0x78>
10006020:	227f      	movs	r2, #127	; 0x7f
10006022:	782b      	ldrb	r3, [r5, #0]
10006024:	0038      	movs	r0, r7
10006026:	429a      	cmp	r2, r3
10006028:	4164      	adcs	r4, r4
1000602a:	2300      	movs	r3, #0
1000602c:	2200      	movs	r2, #0
1000602e:	01e1      	lsls	r1, r4, #7
10006030:	f7ff ff86 	bl	10005f40 <usbd_edpt_xfer>
10006034:	bcc0      	pop	{r6, r7}
10006036:	46b9      	mov	r9, r7
10006038:	46b0      	mov	r8, r6
1000603a:	bdf8      	pop	{r3, r4, r5, r6, r7, pc}
1000603c:	7833      	ldrb	r3, [r6, #0]
1000603e:	2b7f      	cmp	r3, #127	; 0x7f
10006040:	d911      	bls.n	10006066 <tud_control_xfer+0xaa>
10006042:	2180      	movs	r1, #128	; 0x80
10006044:	2200      	movs	r2, #0
10006046:	e7e6      	b.n	10006016 <tud_control_xfer+0x5a>
10006048:	2340      	movs	r3, #64	; 0x40
1000604a:	b29b      	uxth	r3, r3
1000604c:	4698      	mov	r8, r3
1000604e:	7833      	ldrb	r3, [r6, #0]
10006050:	2b7f      	cmp	r3, #127	; 0x7f
10006052:	d9de      	bls.n	10006012 <tud_control_xfer+0x56>
10006054:	4c07      	ldr	r4, [pc, #28]	; (10006074 <tud_control_xfer+0xb8>)
10006056:	4642      	mov	r2, r8
10006058:	4649      	mov	r1, r9
1000605a:	0020      	movs	r0, r4
1000605c:	f7fe fa9e 	bl	1000459c <__wrap___aeabi_memcpy>
10006060:	2180      	movs	r1, #128	; 0x80
10006062:	0022      	movs	r2, r4
10006064:	e7d7      	b.n	10006016 <tud_control_xfer+0x5a>
10006066:	2100      	movs	r1, #0
10006068:	2200      	movs	r2, #0
1000606a:	e7d4      	b.n	10006016 <tud_control_xfer+0x5a>
1000606c:	2000      	movs	r0, #0
1000606e:	e7e1      	b.n	10006034 <tud_control_xfer+0x78>
10006070:	20001550 	.word	0x20001550
10006074:	2000156c 	.word	0x2000156c

10006078 <usbd_control_reset>:
10006078:	b510      	push	{r4, lr}
1000607a:	2214      	movs	r2, #20
1000607c:	2100      	movs	r1, #0
1000607e:	4802      	ldr	r0, [pc, #8]	; (10006088 <usbd_control_reset+0x10>)
10006080:	f7fe fa86 	bl	10004590 <__wrap_memset>
10006084:	bd10      	pop	{r4, pc}
10006086:	46c0      	nop			; (mov r8, r8)
10006088:	20001550 	.word	0x20001550

1000608c <usbd_control_set_complete_callback>:
1000608c:	4b01      	ldr	r3, [pc, #4]	; (10006094 <usbd_control_set_complete_callback+0x8>)
1000608e:	6118      	str	r0, [r3, #16]
10006090:	4770      	bx	lr
10006092:	46c0      	nop			; (mov r8, r8)
10006094:	20001550 	.word	0x20001550

10006098 <usbd_control_set_request>:
10006098:	b510      	push	{r4, lr}
1000609a:	4c05      	ldr	r4, [pc, #20]	; (100060b0 <usbd_control_set_request+0x18>)
1000609c:	0001      	movs	r1, r0
1000609e:	2208      	movs	r2, #8
100060a0:	0020      	movs	r0, r4
100060a2:	f7fe fa7b 	bl	1000459c <__wrap___aeabi_memcpy>
100060a6:	2300      	movs	r3, #0
100060a8:	60a3      	str	r3, [r4, #8]
100060aa:	60e3      	str	r3, [r4, #12]
100060ac:	bd10      	pop	{r4, pc}
100060ae:	46c0      	nop			; (mov r8, r8)
100060b0:	20001550 	.word	0x20001550

100060b4 <usbd_control_xfer_cb>:
100060b4:	b5f8      	push	{r3, r4, r5, r6, r7, lr}
100060b6:	4c3b      	ldr	r4, [pc, #236]	; (100061a4 <usbd_control_xfer_cb+0xf0>)
100060b8:	001d      	movs	r5, r3
100060ba:	7823      	ldrb	r3, [r4, #0]
100060bc:	0006      	movs	r6, r0
100060be:	09da      	lsrs	r2, r3, #7
100060c0:	09c9      	lsrs	r1, r1, #7
100060c2:	428a      	cmp	r2, r1
100060c4:	d013      	beq.n	100060ee <usbd_control_xfer_cb+0x3a>
100060c6:	2000      	movs	r0, #0
100060c8:	2d00      	cmp	r5, #0
100060ca:	d000      	beq.n	100060ce <usbd_control_xfer_cb+0x1a>
100060cc:	bdf8      	pop	{r3, r4, r5, r6, r7, pc}
100060ce:	4b36      	ldr	r3, [pc, #216]	; (100061a8 <usbd_control_xfer_cb+0xf4>)
100060d0:	2b00      	cmp	r3, #0
100060d2:	d003      	beq.n	100060dc <usbd_control_xfer_cb+0x28>
100060d4:	0021      	movs	r1, r4
100060d6:	0030      	movs	r0, r6
100060d8:	f7ff f89e 	bl	10005218 <dcd_edpt0_status_complete>
100060dc:	6923      	ldr	r3, [r4, #16]
100060de:	2b00      	cmp	r3, #0
100060e0:	d044      	beq.n	1000616c <usbd_control_xfer_cb+0xb8>
100060e2:	0022      	movs	r2, r4
100060e4:	2103      	movs	r1, #3
100060e6:	0030      	movs	r0, r6
100060e8:	4798      	blx	r3
100060ea:	2001      	movs	r0, #1
100060ec:	e7ee      	b.n	100060cc <usbd_control_xfer_cb+0x18>
100060ee:	2b7f      	cmp	r3, #127	; 0x7f
100060f0:	d806      	bhi.n	10006100 <usbd_control_xfer_cb+0x4c>
100060f2:	68a0      	ldr	r0, [r4, #8]
100060f4:	2800      	cmp	r0, #0
100060f6:	d037      	beq.n	10006168 <usbd_control_xfer_cb+0xb4>
100060f8:	002a      	movs	r2, r5
100060fa:	492c      	ldr	r1, [pc, #176]	; (100061ac <usbd_control_xfer_cb+0xf8>)
100060fc:	f7fe fa4e 	bl	1000459c <__wrap___aeabi_memcpy>
10006100:	68a3      	ldr	r3, [r4, #8]
10006102:	89e2      	ldrh	r2, [r4, #14]
10006104:	1959      	adds	r1, r3, r5
10006106:	1952      	adds	r2, r2, r5
10006108:	88e3      	ldrh	r3, [r4, #6]
1000610a:	b292      	uxth	r2, r2
1000610c:	81e2      	strh	r2, [r4, #14]
1000610e:	60a1      	str	r1, [r4, #8]
10006110:	4293      	cmp	r3, r2
10006112:	d014      	beq.n	1000613e <usbd_control_xfer_cb+0x8a>
10006114:	2d3f      	cmp	r5, #63	; 0x3f
10006116:	d912      	bls.n	1000613e <usbd_control_xfer_cb+0x8a>
10006118:	89a5      	ldrh	r5, [r4, #12]
1000611a:	1aa8      	subs	r0, r5, r2
1000611c:	1c07      	adds	r7, r0, #0
1000611e:	b280      	uxth	r0, r0
10006120:	2840      	cmp	r0, #64	; 0x40
10006122:	d82f      	bhi.n	10006184 <usbd_control_xfer_cb+0xd0>
10006124:	7823      	ldrb	r3, [r4, #0]
10006126:	b2bf      	uxth	r7, r7
10006128:	2b7f      	cmp	r3, #127	; 0x7f
1000612a:	d82d      	bhi.n	10006188 <usbd_control_xfer_cb+0xd4>
1000612c:	2100      	movs	r1, #0
1000612e:	42aa      	cmp	r2, r5
10006130:	d035      	beq.n	1000619e <usbd_control_xfer_cb+0xea>
10006132:	4a1e      	ldr	r2, [pc, #120]	; (100061ac <usbd_control_xfer_cb+0xf8>)
10006134:	003b      	movs	r3, r7
10006136:	0030      	movs	r0, r6
10006138:	f7ff ff02 	bl	10005f40 <usbd_edpt_xfer>
1000613c:	e7c6      	b.n	100060cc <usbd_control_xfer_cb+0x18>
1000613e:	6923      	ldr	r3, [r4, #16]
10006140:	2b00      	cmp	r3, #0
10006142:	d005      	beq.n	10006150 <usbd_control_xfer_cb+0x9c>
10006144:	0022      	movs	r2, r4
10006146:	2102      	movs	r1, #2
10006148:	0030      	movs	r0, r6
1000614a:	4798      	blx	r3
1000614c:	2800      	cmp	r0, #0
1000614e:	d00f      	beq.n	10006170 <usbd_control_xfer_cb+0xbc>
10006150:	227f      	movs	r2, #127	; 0x7f
10006152:	2100      	movs	r1, #0
10006154:	7823      	ldrb	r3, [r4, #0]
10006156:	0030      	movs	r0, r6
10006158:	429a      	cmp	r2, r3
1000615a:	4149      	adcs	r1, r1
1000615c:	2300      	movs	r3, #0
1000615e:	2200      	movs	r2, #0
10006160:	01c9      	lsls	r1, r1, #7
10006162:	f7ff feed 	bl	10005f40 <usbd_edpt_xfer>
10006166:	e7b1      	b.n	100060cc <usbd_control_xfer_cb+0x18>
10006168:	2000      	movs	r0, #0
1000616a:	e7af      	b.n	100060cc <usbd_control_xfer_cb+0x18>
1000616c:	2001      	movs	r0, #1
1000616e:	e7ad      	b.n	100060cc <usbd_control_xfer_cb+0x18>
10006170:	2100      	movs	r1, #0
10006172:	0030      	movs	r0, r6
10006174:	f7ff f8f8 	bl	10005368 <dcd_edpt_stall>
10006178:	0030      	movs	r0, r6
1000617a:	2180      	movs	r1, #128	; 0x80
1000617c:	f7ff f8f4 	bl	10005368 <dcd_edpt_stall>
10006180:	2001      	movs	r0, #1
10006182:	e7a3      	b.n	100060cc <usbd_control_xfer_cb+0x18>
10006184:	2740      	movs	r7, #64	; 0x40
10006186:	e7cd      	b.n	10006124 <usbd_control_xfer_cb+0x70>
10006188:	42aa      	cmp	r2, r5
1000618a:	d007      	beq.n	1000619c <usbd_control_xfer_cb+0xe8>
1000618c:	4c07      	ldr	r4, [pc, #28]	; (100061ac <usbd_control_xfer_cb+0xf8>)
1000618e:	003a      	movs	r2, r7
10006190:	0020      	movs	r0, r4
10006192:	f7fe fa03 	bl	1000459c <__wrap___aeabi_memcpy>
10006196:	2180      	movs	r1, #128	; 0x80
10006198:	0022      	movs	r2, r4
1000619a:	e7cb      	b.n	10006134 <usbd_control_xfer_cb+0x80>
1000619c:	2180      	movs	r1, #128	; 0x80
1000619e:	2200      	movs	r2, #0
100061a0:	e7c8      	b.n	10006134 <usbd_control_xfer_cb+0x80>
100061a2:	46c0      	nop			; (mov r8, r8)
100061a4:	20001550 	.word	0x20001550
100061a8:	10005219 	.word	0x10005219
100061ac:	2000156c 	.word	0x2000156c

100061b0 <tud_cdc_n_connected>:
100061b0:	b510      	push	{r4, lr}
100061b2:	0004      	movs	r4, r0
100061b4:	f7ff f95a 	bl	1000546c <tud_mounted>
100061b8:	2800      	cmp	r0, #0
100061ba:	d101      	bne.n	100061c0 <tud_cdc_n_connected+0x10>
100061bc:	2000      	movs	r0, #0
100061be:	bd10      	pop	{r4, pc}
100061c0:	f7ff f95c 	bl	1000547c <tud_suspended>
100061c4:	2800      	cmp	r0, #0
100061c6:	d1f9      	bne.n	100061bc <tud_cdc_n_connected+0xc>
100061c8:	20b2      	movs	r0, #178	; 0xb2
100061ca:	0080      	lsls	r0, r0, #2
100061cc:	4344      	muls	r4, r0
100061ce:	4803      	ldr	r0, [pc, #12]	; (100061dc <tud_cdc_n_connected+0x2c>)
100061d0:	1900      	adds	r0, r0, r4
100061d2:	7903      	ldrb	r3, [r0, #4]
100061d4:	2001      	movs	r0, #1
100061d6:	4018      	ands	r0, r3
100061d8:	e7f1      	b.n	100061be <tud_cdc_n_connected+0xe>
100061da:	46c0      	nop			; (mov r8, r8)
100061dc:	20001288 	.word	0x20001288

100061e0 <tud_cdc_n_available>:
100061e0:	23b2      	movs	r3, #178	; 0xb2
100061e2:	009b      	lsls	r3, r3, #2
100061e4:	4358      	muls	r0, r3
100061e6:	b510      	push	{r4, lr}
100061e8:	4b02      	ldr	r3, [pc, #8]	; (100061f4 <tud_cdc_n_available+0x14>)
100061ea:	3010      	adds	r0, #16
100061ec:	18c0      	adds	r0, r0, r3
100061ee:	f000 fb57 	bl	100068a0 <tu_fifo_count>
100061f2:	bd10      	pop	{r4, pc}
100061f4:	20001288 	.word	0x20001288

100061f8 <tud_cdc_n_read>:
100061f8:	b5f0      	push	{r4, r5, r6, r7, lr}
100061fa:	25b2      	movs	r5, #178	; 0xb2
100061fc:	00ad      	lsls	r5, r5, #2
100061fe:	4345      	muls	r5, r0
10006200:	002c      	movs	r4, r5
10006202:	46c6      	mov	lr, r8
10006204:	4f17      	ldr	r7, [pc, #92]	; (10006264 <tud_cdc_n_read+0x6c>)
10006206:	3410      	adds	r4, #16
10006208:	19e4      	adds	r4, r4, r7
1000620a:	b500      	push	{lr}
1000620c:	0020      	movs	r0, r4
1000620e:	b292      	uxth	r2, r2
10006210:	f000 fbca 	bl	100069a8 <tu_fifo_read_n>
10006214:	0006      	movs	r6, r0
10006216:	0020      	movs	r0, r4
10006218:	f000 fb60 	bl	100068dc <tu_fifo_remaining>
1000621c:	283f      	cmp	r0, #63	; 0x3f
1000621e:	d803      	bhi.n	10006228 <tud_cdc_n_read+0x30>
10006220:	0030      	movs	r0, r6
10006222:	bc80      	pop	{r7}
10006224:	46b8      	mov	r8, r7
10006226:	bdf0      	pop	{r4, r5, r6, r7, pc}
10006228:	197b      	adds	r3, r7, r5
1000622a:	2000      	movs	r0, #0
1000622c:	78d9      	ldrb	r1, [r3, #3]
1000622e:	4698      	mov	r8, r3
10006230:	f7ff fe5e 	bl	10005ef0 <usbd_edpt_claim>
10006234:	2800      	cmp	r0, #0
10006236:	d0f3      	beq.n	10006220 <tud_cdc_n_read+0x28>
10006238:	0020      	movs	r0, r4
1000623a:	f000 fb4f 	bl	100068dc <tu_fifo_remaining>
1000623e:	283f      	cmp	r0, #63	; 0x3f
10006240:	d90a      	bls.n	10006258 <tud_cdc_n_read+0x60>
10006242:	2392      	movs	r3, #146	; 0x92
10006244:	009b      	lsls	r3, r3, #2
10006246:	18ea      	adds	r2, r5, r3
10006248:	4643      	mov	r3, r8
1000624a:	19d2      	adds	r2, r2, r7
1000624c:	78d9      	ldrb	r1, [r3, #3]
1000624e:	2000      	movs	r0, #0
10006250:	2340      	movs	r3, #64	; 0x40
10006252:	f7ff fe75 	bl	10005f40 <usbd_edpt_xfer>
10006256:	e7e3      	b.n	10006220 <tud_cdc_n_read+0x28>
10006258:	4643      	mov	r3, r8
1000625a:	2000      	movs	r0, #0
1000625c:	78d9      	ldrb	r1, [r3, #3]
1000625e:	f7ff fe5b 	bl	10005f18 <usbd_edpt_release>
10006262:	e7dd      	b.n	10006220 <tud_cdc_n_read+0x28>
10006264:	20001288 	.word	0x20001288

10006268 <tud_cdc_n_write_flush>:
10006268:	b5f8      	push	{r3, r4, r5, r6, r7, lr}
1000626a:	0004      	movs	r4, r0
1000626c:	f7ff f8fe 	bl	1000546c <tud_mounted>
10006270:	2800      	cmp	r0, #0
10006272:	d101      	bne.n	10006278 <tud_cdc_n_write_flush+0x10>
10006274:	2000      	movs	r0, #0
10006276:	bdf8      	pop	{r3, r4, r5, r6, r7, pc}
10006278:	f7ff f900 	bl	1000547c <tud_suspended>
1000627c:	2800      	cmp	r0, #0
1000627e:	d1f9      	bne.n	10006274 <tud_cdc_n_write_flush+0xc>
10006280:	20b2      	movs	r0, #178	; 0xb2
10006282:	0080      	lsls	r0, r0, #2
10006284:	4344      	muls	r4, r0
10006286:	0025      	movs	r5, r4
10006288:	4e14      	ldr	r6, [pc, #80]	; (100062dc <tud_cdc_n_write_flush+0x74>)
1000628a:	3524      	adds	r5, #36	; 0x24
1000628c:	19ad      	adds	r5, r5, r6
1000628e:	0028      	movs	r0, r5
10006290:	f000 fb06 	bl	100068a0 <tu_fifo_count>
10006294:	2800      	cmp	r0, #0
10006296:	d0ed      	beq.n	10006274 <tud_cdc_n_write_flush+0xc>
10006298:	1937      	adds	r7, r6, r4
1000629a:	2000      	movs	r0, #0
1000629c:	78b9      	ldrb	r1, [r7, #2]
1000629e:	f7ff fe27 	bl	10005ef0 <usbd_edpt_claim>
100062a2:	2800      	cmp	r0, #0
100062a4:	d0e6      	beq.n	10006274 <tud_cdc_n_write_flush+0xc>
100062a6:	23a2      	movs	r3, #162	; 0xa2
100062a8:	009b      	lsls	r3, r3, #2
100062aa:	469c      	mov	ip, r3
100062ac:	4464      	add	r4, ip
100062ae:	19a4      	adds	r4, r4, r6
100062b0:	0021      	movs	r1, r4
100062b2:	0028      	movs	r0, r5
100062b4:	2240      	movs	r2, #64	; 0x40
100062b6:	f000 fb77 	bl	100069a8 <tu_fifo_read_n>
100062ba:	78b9      	ldrb	r1, [r7, #2]
100062bc:	1e05      	subs	r5, r0, #0
100062be:	d008      	beq.n	100062d2 <tud_cdc_n_write_flush+0x6a>
100062c0:	0003      	movs	r3, r0
100062c2:	0022      	movs	r2, r4
100062c4:	2000      	movs	r0, #0
100062c6:	f7ff fe3b 	bl	10005f40 <usbd_edpt_xfer>
100062ca:	2800      	cmp	r0, #0
100062cc:	d0d2      	beq.n	10006274 <tud_cdc_n_write_flush+0xc>
100062ce:	0028      	movs	r0, r5
100062d0:	e7d1      	b.n	10006276 <tud_cdc_n_write_flush+0xe>
100062d2:	2000      	movs	r0, #0
100062d4:	f7ff fe20 	bl	10005f18 <usbd_edpt_release>
100062d8:	e7cc      	b.n	10006274 <tud_cdc_n_write_flush+0xc>
100062da:	46c0      	nop			; (mov r8, r8)
100062dc:	20001288 	.word	0x20001288

100062e0 <tud_cdc_n_write>:
100062e0:	b570      	push	{r4, r5, r6, lr}
100062e2:	24b2      	movs	r4, #178	; 0xb2
100062e4:	00a4      	lsls	r4, r4, #2
100062e6:	4344      	muls	r4, r0
100062e8:	4b09      	ldr	r3, [pc, #36]	; (10006310 <tud_cdc_n_write+0x30>)
100062ea:	3424      	adds	r4, #36	; 0x24
100062ec:	18e4      	adds	r4, r4, r3
100062ee:	0005      	movs	r5, r0
100062f0:	b292      	uxth	r2, r2
100062f2:	0020      	movs	r0, r4
100062f4:	f000 fc12 	bl	10006b1c <tu_fifo_write_n>
100062f8:	0006      	movs	r6, r0
100062fa:	0020      	movs	r0, r4
100062fc:	f000 fad0 	bl	100068a0 <tu_fifo_count>
10006300:	283f      	cmp	r0, #63	; 0x3f
10006302:	d801      	bhi.n	10006308 <tud_cdc_n_write+0x28>
10006304:	0030      	movs	r0, r6
10006306:	bd70      	pop	{r4, r5, r6, pc}
10006308:	0028      	movs	r0, r5
1000630a:	f7ff ffad 	bl	10006268 <tud_cdc_n_write_flush>
1000630e:	e7f9      	b.n	10006304 <tud_cdc_n_write+0x24>
10006310:	20001288 	.word	0x20001288

10006314 <tud_cdc_n_write_available>:
10006314:	23b2      	movs	r3, #178	; 0xb2
10006316:	009b      	lsls	r3, r3, #2
10006318:	4358      	muls	r0, r3
1000631a:	b510      	push	{r4, lr}
1000631c:	4b02      	ldr	r3, [pc, #8]	; (10006328 <tud_cdc_n_write_available+0x14>)
1000631e:	3024      	adds	r0, #36	; 0x24
10006320:	18c0      	adds	r0, r0, r3
10006322:	f000 fadb 	bl	100068dc <tu_fifo_remaining>
10006326:	bd10      	pop	{r4, pc}
10006328:	20001288 	.word	0x20001288

1000632c <cdcd_init>:
1000632c:	22b2      	movs	r2, #178	; 0xb2
1000632e:	b5f0      	push	{r4, r5, r6, r7, lr}
10006330:	4c1b      	ldr	r4, [pc, #108]	; (100063a0 <cdcd_init+0x74>)
10006332:	b083      	sub	sp, #12
10006334:	2100      	movs	r1, #0
10006336:	0020      	movs	r0, r4
10006338:	0092      	lsls	r2, r2, #2
1000633a:	f7fe f929 	bl	10004590 <__wrap_memset>
1000633e:	23ff      	movs	r3, #255	; 0xff
10006340:	7163      	strb	r3, [r4, #5]
10006342:	4b18      	ldr	r3, [pc, #96]	; (100063a4 <cdcd_init+0x78>)
10006344:	2680      	movs	r6, #128	; 0x80
10006346:	2500      	movs	r5, #0
10006348:	80e3      	strh	r3, [r4, #6]
1000634a:	2701      	movs	r7, #1
1000634c:	2308      	movs	r3, #8
1000634e:	0021      	movs	r1, r4
10006350:	0020      	movs	r0, r4
10006352:	0076      	lsls	r6, r6, #1
10006354:	7323      	strb	r3, [r4, #12]
10006356:	0032      	movs	r2, r6
10006358:	8127      	strh	r7, [r4, #8]
1000635a:	3138      	adds	r1, #56	; 0x38
1000635c:	9500      	str	r5, [sp, #0]
1000635e:	3b07      	subs	r3, #7
10006360:	3010      	adds	r0, #16
10006362:	f000 fa65 	bl	10006830 <tu_fifo_config>
10006366:	0021      	movs	r1, r4
10006368:	0020      	movs	r0, r4
1000636a:	3139      	adds	r1, #57	; 0x39
1000636c:	0032      	movs	r2, r6
1000636e:	31ff      	adds	r1, #255	; 0xff
10006370:	2301      	movs	r3, #1
10006372:	9700      	str	r7, [sp, #0]
10006374:	3024      	adds	r0, #36	; 0x24
10006376:	f000 fa5b 	bl	10006830 <tu_fifo_config>
1000637a:	238e      	movs	r3, #142	; 0x8e
1000637c:	009b      	lsls	r3, r3, #2
1000637e:	18e6      	adds	r6, r4, r3
10006380:	0030      	movs	r0, r6
10006382:	f7fa fd31 	bl	10000de8 <mutex_init>
10006386:	2390      	movs	r3, #144	; 0x90
10006388:	009b      	lsls	r3, r3, #2
1000638a:	6226      	str	r6, [r4, #32]
1000638c:	18e6      	adds	r6, r4, r3
1000638e:	0030      	movs	r0, r6
10006390:	61e5      	str	r5, [r4, #28]
10006392:	f7fa fd29 	bl	10000de8 <mutex_init>
10006396:	6326      	str	r6, [r4, #48]	; 0x30
10006398:	6365      	str	r5, [r4, #52]	; 0x34
1000639a:	b003      	add	sp, #12
1000639c:	bdf0      	pop	{r4, r5, r6, r7, pc}
1000639e:	46c0      	nop			; (mov r8, r8)
100063a0:	20001288 	.word	0x20001288
100063a4:	ffffc200 	.word	0xffffc200

100063a8 <cdcd_reset>:
100063a8:	b510      	push	{r4, lr}
100063aa:	4c09      	ldr	r4, [pc, #36]	; (100063d0 <cdcd_reset+0x28>)
100063ac:	2205      	movs	r2, #5
100063ae:	2100      	movs	r1, #0
100063b0:	0020      	movs	r0, r4
100063b2:	f7fe f8ed 	bl	10004590 <__wrap_memset>
100063b6:	0020      	movs	r0, r4
100063b8:	3424      	adds	r4, #36	; 0x24
100063ba:	3010      	adds	r0, #16
100063bc:	f000 fc62 	bl	10006c84 <tu_fifo_clear>
100063c0:	0020      	movs	r0, r4
100063c2:	f000 fc5f 	bl	10006c84 <tu_fifo_clear>
100063c6:	2101      	movs	r1, #1
100063c8:	0020      	movs	r0, r4
100063ca:	f000 fc7b 	bl	10006cc4 <tu_fifo_set_overwritable>
100063ce:	bd10      	pop	{r4, pc}
100063d0:	20001288 	.word	0x20001288

100063d4 <cdcd_open>:
100063d4:	b5f0      	push	{r4, r5, r6, r7, lr}
100063d6:	794b      	ldrb	r3, [r1, #5]
100063d8:	0006      	movs	r6, r0
100063da:	b083      	sub	sp, #12
100063dc:	2b02      	cmp	r3, #2
100063de:	d102      	bne.n	100063e6 <cdcd_open+0x12>
100063e0:	798b      	ldrb	r3, [r1, #6]
100063e2:	2b02      	cmp	r3, #2
100063e4:	d003      	beq.n	100063ee <cdcd_open+0x1a>
100063e6:	2500      	movs	r5, #0
100063e8:	0028      	movs	r0, r5
100063ea:	b003      	add	sp, #12
100063ec:	bdf0      	pop	{r4, r5, r6, r7, pc}
100063ee:	4f30      	ldr	r7, [pc, #192]	; (100064b0 <cdcd_open+0xdc>)
100063f0:	78bb      	ldrb	r3, [r7, #2]
100063f2:	2b00      	cmp	r3, #0
100063f4:	d1f7      	bne.n	100063e6 <cdcd_open+0x12>
100063f6:	788b      	ldrb	r3, [r1, #2]
100063f8:	2509      	movs	r5, #9
100063fa:	703b      	strb	r3, [r7, #0]
100063fc:	780c      	ldrb	r4, [r1, #0]
100063fe:	190c      	adds	r4, r1, r4
10006400:	7863      	ldrb	r3, [r4, #1]
10006402:	2b24      	cmp	r3, #36	; 0x24
10006404:	d10b      	bne.n	1000641e <cdcd_open+0x4a>
10006406:	2a08      	cmp	r2, #8
10006408:	d802      	bhi.n	10006410 <cdcd_open+0x3c>
1000640a:	e00f      	b.n	1000642c <cdcd_open+0x58>
1000640c:	42aa      	cmp	r2, r5
1000640e:	d30d      	bcc.n	1000642c <cdcd_open+0x58>
10006410:	7823      	ldrb	r3, [r4, #0]
10006412:	18e4      	adds	r4, r4, r3
10006414:	18ed      	adds	r5, r5, r3
10006416:	7863      	ldrb	r3, [r4, #1]
10006418:	b2ad      	uxth	r5, r5
1000641a:	2b24      	cmp	r3, #36	; 0x24
1000641c:	d0f6      	beq.n	1000640c <cdcd_open+0x38>
1000641e:	2b05      	cmp	r3, #5
10006420:	d021      	beq.n	10006466 <cdcd_open+0x92>
10006422:	2b04      	cmp	r3, #4
10006424:	d102      	bne.n	1000642c <cdcd_open+0x58>
10006426:	7963      	ldrb	r3, [r4, #5]
10006428:	2b0a      	cmp	r3, #10
1000642a:	d02f      	beq.n	1000648c <cdcd_open+0xb8>
1000642c:	4c21      	ldr	r4, [pc, #132]	; (100064b4 <cdcd_open+0xe0>)
1000642e:	0020      	movs	r0, r4
10006430:	f000 fa54 	bl	100068dc <tu_fifo_remaining>
10006434:	283f      	cmp	r0, #63	; 0x3f
10006436:	d9d7      	bls.n	100063e8 <cdcd_open+0x14>
10006438:	0026      	movs	r6, r4
1000643a:	3e10      	subs	r6, #16
1000643c:	2000      	movs	r0, #0
1000643e:	78f1      	ldrb	r1, [r6, #3]
10006440:	f7ff fd56 	bl	10005ef0 <usbd_edpt_claim>
10006444:	2800      	cmp	r0, #0
10006446:	d0cf      	beq.n	100063e8 <cdcd_open+0x14>
10006448:	0020      	movs	r0, r4
1000644a:	f000 fa47 	bl	100068dc <tu_fifo_remaining>
1000644e:	283f      	cmp	r0, #63	; 0x3f
10006450:	d917      	bls.n	10006482 <cdcd_open+0xae>
10006452:	238e      	movs	r3, #142	; 0x8e
10006454:	009b      	lsls	r3, r3, #2
10006456:	18e2      	adds	r2, r4, r3
10006458:	3bf9      	subs	r3, #249	; 0xf9
1000645a:	78f1      	ldrb	r1, [r6, #3]
1000645c:	3bff      	subs	r3, #255	; 0xff
1000645e:	2000      	movs	r0, #0
10006460:	f7ff fd6e 	bl	10005f40 <usbd_edpt_xfer>
10006464:	e7c0      	b.n	100063e8 <cdcd_open+0x14>
10006466:	0021      	movs	r1, r4
10006468:	0030      	movs	r0, r6
1000646a:	f7ff fd27 	bl	10005ebc <usbd_edpt_open>
1000646e:	2800      	cmp	r0, #0
10006470:	d0b9      	beq.n	100063e6 <cdcd_open+0x12>
10006472:	78a3      	ldrb	r3, [r4, #2]
10006474:	707b      	strb	r3, [r7, #1]
10006476:	7823      	ldrb	r3, [r4, #0]
10006478:	18ed      	adds	r5, r5, r3
1000647a:	18e4      	adds	r4, r4, r3
1000647c:	7863      	ldrb	r3, [r4, #1]
1000647e:	b2ad      	uxth	r5, r5
10006480:	e7cf      	b.n	10006422 <cdcd_open+0x4e>
10006482:	78f1      	ldrb	r1, [r6, #3]
10006484:	2000      	movs	r0, #0
10006486:	f7ff fd47 	bl	10005f18 <usbd_edpt_release>
1000648a:	e7ad      	b.n	100063e8 <cdcd_open+0x14>
1000648c:	4b0a      	ldr	r3, [pc, #40]	; (100064b8 <cdcd_open+0xe4>)
1000648e:	7827      	ldrb	r7, [r4, #0]
10006490:	9301      	str	r3, [sp, #4]
10006492:	3301      	adds	r3, #1
10006494:	9300      	str	r3, [sp, #0]
10006496:	2202      	movs	r2, #2
10006498:	2302      	movs	r3, #2
1000649a:	0030      	movs	r0, r6
1000649c:	19e1      	adds	r1, r4, r7
1000649e:	f7ff fc9b 	bl	10005dd8 <usbd_open_edpt_pair>
100064a2:	2800      	cmp	r0, #0
100064a4:	d09f      	beq.n	100063e6 <cdcd_open+0x12>
100064a6:	350e      	adds	r5, #14
100064a8:	19ed      	adds	r5, r5, r7
100064aa:	b2ad      	uxth	r5, r5
100064ac:	e7be      	b.n	1000642c <cdcd_open+0x58>
100064ae:	46c0      	nop			; (mov r8, r8)
100064b0:	20001288 	.word	0x20001288
100064b4:	20001298 	.word	0x20001298
100064b8:	2000128a 	.word	0x2000128a

100064bc <cdcd_control_xfer_cb>:
100064bc:	b5f8      	push	{r3, r4, r5, r6, r7, lr}
100064be:	2360      	movs	r3, #96	; 0x60
100064c0:	0014      	movs	r4, r2
100064c2:	7812      	ldrb	r2, [r2, #0]
100064c4:	0005      	movs	r5, r0
100064c6:	4013      	ands	r3, r2
100064c8:	2000      	movs	r0, #0
100064ca:	2b20      	cmp	r3, #32
100064cc:	d112      	bne.n	100064f4 <cdcd_control_xfer_cb+0x38>
100064ce:	4a2f      	ldr	r2, [pc, #188]	; (1000658c <cdcd_control_xfer_cb+0xd0>)
100064d0:	7963      	ldrb	r3, [r4, #5]
100064d2:	7927      	ldrb	r7, [r4, #4]
100064d4:	7816      	ldrb	r6, [r2, #0]
100064d6:	021b      	lsls	r3, r3, #8
100064d8:	433b      	orrs	r3, r7
100064da:	429e      	cmp	r6, r3
100064dc:	d10a      	bne.n	100064f4 <cdcd_control_xfer_cb+0x38>
100064de:	7863      	ldrb	r3, [r4, #1]
100064e0:	2b22      	cmp	r3, #34	; 0x22
100064e2:	d027      	beq.n	10006534 <cdcd_control_xfer_cb+0x78>
100064e4:	d807      	bhi.n	100064f6 <cdcd_control_xfer_cb+0x3a>
100064e6:	2b20      	cmp	r3, #32
100064e8:	d017      	beq.n	1000651a <cdcd_control_xfer_cb+0x5e>
100064ea:	2b21      	cmp	r3, #33	; 0x21
100064ec:	d102      	bne.n	100064f4 <cdcd_control_xfer_cb+0x38>
100064ee:	2901      	cmp	r1, #1
100064f0:	d03d      	beq.n	1000656e <cdcd_control_xfer_cb+0xb2>
100064f2:	2001      	movs	r0, #1
100064f4:	bdf8      	pop	{r3, r4, r5, r6, r7, pc}
100064f6:	2b23      	cmp	r3, #35	; 0x23
100064f8:	d1fc      	bne.n	100064f4 <cdcd_control_xfer_cb+0x38>
100064fa:	2901      	cmp	r1, #1
100064fc:	d03f      	beq.n	1000657e <cdcd_control_xfer_cb+0xc2>
100064fe:	2903      	cmp	r1, #3
10006500:	d1f7      	bne.n	100064f2 <cdcd_control_xfer_cb+0x36>
10006502:	4b23      	ldr	r3, [pc, #140]	; (10006590 <cdcd_control_xfer_cb+0xd4>)
10006504:	2b00      	cmp	r3, #0
10006506:	d0f4      	beq.n	100064f2 <cdcd_control_xfer_cb+0x36>
10006508:	78e1      	ldrb	r1, [r4, #3]
1000650a:	78a3      	ldrb	r3, [r4, #2]
1000650c:	0209      	lsls	r1, r1, #8
1000650e:	2000      	movs	r0, #0
10006510:	4319      	orrs	r1, r3
10006512:	e000      	b.n	10006516 <cdcd_control_xfer_cb+0x5a>
10006514:	bf00      	nop
10006516:	2001      	movs	r0, #1
10006518:	e7ec      	b.n	100064f4 <cdcd_control_xfer_cb+0x38>
1000651a:	2901      	cmp	r1, #1
1000651c:	d027      	beq.n	1000656e <cdcd_control_xfer_cb+0xb2>
1000651e:	2903      	cmp	r1, #3
10006520:	d1e7      	bne.n	100064f2 <cdcd_control_xfer_cb+0x36>
10006522:	4b1c      	ldr	r3, [pc, #112]	; (10006594 <cdcd_control_xfer_cb+0xd8>)
10006524:	2b00      	cmp	r3, #0
10006526:	d0e4      	beq.n	100064f2 <cdcd_control_xfer_cb+0x36>
10006528:	2000      	movs	r0, #0
1000652a:	1d91      	adds	r1, r2, #6
1000652c:	f7fe fadc 	bl	10004ae8 <tud_cdc_line_coding_cb>
10006530:	2001      	movs	r0, #1
10006532:	e7df      	b.n	100064f4 <cdcd_control_xfer_cb+0x38>
10006534:	2901      	cmp	r1, #1
10006536:	d022      	beq.n	1000657e <cdcd_control_xfer_cb+0xc2>
10006538:	2903      	cmp	r1, #3
1000653a:	d1da      	bne.n	100064f2 <cdcd_control_xfer_cb+0x36>
1000653c:	2501      	movs	r5, #1
1000653e:	002e      	movs	r6, r5
10006540:	78a3      	ldrb	r3, [r4, #2]
10006542:	78e4      	ldrb	r4, [r4, #3]
10006544:	3902      	subs	r1, #2
10006546:	0224      	lsls	r4, r4, #8
10006548:	431c      	orrs	r4, r3
1000654a:	7114      	strb	r4, [r2, #4]
1000654c:	4026      	ands	r6, r4
1000654e:	3224      	adds	r2, #36	; 0x24
10006550:	0010      	movs	r0, r2
10006552:	4071      	eors	r1, r6
10006554:	f000 fbb6 	bl	10006cc4 <tu_fifo_set_overwritable>
10006558:	4b0f      	ldr	r3, [pc, #60]	; (10006598 <cdcd_control_xfer_cb+0xdc>)
1000655a:	2b00      	cmp	r3, #0
1000655c:	d0c9      	beq.n	100064f2 <cdcd_control_xfer_cb+0x36>
1000655e:	0862      	lsrs	r2, r4, #1
10006560:	2000      	movs	r0, #0
10006562:	0031      	movs	r1, r6
10006564:	402a      	ands	r2, r5
10006566:	e000      	b.n	1000656a <cdcd_control_xfer_cb+0xae>
10006568:	bf00      	nop
1000656a:	2001      	movs	r0, #1
1000656c:	e7c2      	b.n	100064f4 <cdcd_control_xfer_cb+0x38>
1000656e:	2307      	movs	r3, #7
10006570:	0021      	movs	r1, r4
10006572:	0028      	movs	r0, r5
10006574:	4a09      	ldr	r2, [pc, #36]	; (1000659c <cdcd_control_xfer_cb+0xe0>)
10006576:	f7ff fd21 	bl	10005fbc <tud_control_xfer>
1000657a:	2001      	movs	r0, #1
1000657c:	e7ba      	b.n	100064f4 <cdcd_control_xfer_cb+0x38>
1000657e:	0021      	movs	r1, r4
10006580:	0028      	movs	r0, r5
10006582:	f7ff fd03 	bl	10005f8c <tud_control_status>
10006586:	2001      	movs	r0, #1
10006588:	e7b4      	b.n	100064f4 <cdcd_control_xfer_cb+0x38>
1000658a:	46c0      	nop			; (mov r8, r8)
1000658c:	20001288 	.word	0x20001288
10006590:	00000000 	.word	0x00000000
10006594:	10004ae9 	.word	0x10004ae9
10006598:	00000000 	.word	0x00000000
1000659c:	2000128e 	.word	0x2000128e

100065a0 <cdcd_xfer_cb>:
100065a0:	b5f8      	push	{r3, r4, r5, r6, r7, lr}
100065a2:	4657      	mov	r7, sl
100065a4:	464e      	mov	r6, r9
100065a6:	4645      	mov	r5, r8
100065a8:	46de      	mov	lr, fp
100065aa:	b5e0      	push	{r5, r6, r7, lr}
100065ac:	4f49      	ldr	r7, [pc, #292]	; (100066d4 <cdcd_xfer_cb+0x134>)
100065ae:	4680      	mov	r8, r0
100065b0:	78fa      	ldrb	r2, [r7, #3]
100065b2:	000c      	movs	r4, r1
100065b4:	001e      	movs	r6, r3
100065b6:	428a      	cmp	r2, r1
100065b8:	d164      	bne.n	10006684 <cdcd_xfer_cb+0xe4>
100065ba:	b29a      	uxth	r2, r3
100065bc:	2392      	movs	r3, #146	; 0x92
100065be:	009b      	lsls	r3, r3, #2
100065c0:	18fd      	adds	r5, r7, r3
100065c2:	2310      	movs	r3, #16
100065c4:	469b      	mov	fp, r3
100065c6:	44bb      	add	fp, r7
100065c8:	0029      	movs	r1, r5
100065ca:	4658      	mov	r0, fp
100065cc:	f000 faa6 	bl	10006b1c <tu_fifo_write_n>
100065d0:	4b41      	ldr	r3, [pc, #260]	; (100066d8 <cdcd_xfer_cb+0x138>)
100065d2:	46d9      	mov	r9, fp
100065d4:	2b00      	cmp	r3, #0
100065d6:	d018      	beq.n	1000660a <cdcd_xfer_cb+0x6a>
100065d8:	797b      	ldrb	r3, [r7, #5]
100065da:	46d9      	mov	r9, fp
100065dc:	2bff      	cmp	r3, #255	; 0xff
100065de:	d014      	beq.n	1000660a <cdcd_xfer_cb+0x6a>
100065e0:	2e00      	cmp	r6, #0
100065e2:	d012      	beq.n	1000660a <cdcd_xfer_cb+0x6a>
100065e4:	19aa      	adds	r2, r5, r6
100065e6:	4692      	mov	sl, r2
100065e8:	e003      	b.n	100065f2 <cdcd_xfer_cb+0x52>
100065ea:	3501      	adds	r5, #1
100065ec:	4555      	cmp	r5, sl
100065ee:	d00c      	beq.n	1000660a <cdcd_xfer_cb+0x6a>
100065f0:	797b      	ldrb	r3, [r7, #5]
100065f2:	782a      	ldrb	r2, [r5, #0]
100065f4:	429a      	cmp	r2, r3
100065f6:	d1f8      	bne.n	100065ea <cdcd_xfer_cb+0x4a>
100065f8:	4648      	mov	r0, r9
100065fa:	f000 f967 	bl	100068cc <tu_fifo_empty>
100065fe:	2800      	cmp	r0, #0
10006600:	d1f3      	bne.n	100065ea <cdcd_xfer_cb+0x4a>
10006602:	7979      	ldrb	r1, [r7, #5]
10006604:	e000      	b.n	10006608 <cdcd_xfer_cb+0x68>
10006606:	bf00      	nop
10006608:	e7ef      	b.n	100065ea <cdcd_xfer_cb+0x4a>
1000660a:	4b34      	ldr	r3, [pc, #208]	; (100066dc <cdcd_xfer_cb+0x13c>)
1000660c:	2b00      	cmp	r3, #0
1000660e:	d004      	beq.n	1000661a <cdcd_xfer_cb+0x7a>
10006610:	4648      	mov	r0, r9
10006612:	f000 f95b 	bl	100068cc <tu_fifo_empty>
10006616:	2800      	cmp	r0, #0
10006618:	d052      	beq.n	100066c0 <cdcd_xfer_cb+0x120>
1000661a:	4648      	mov	r0, r9
1000661c:	f000 f95e 	bl	100068dc <tu_fifo_remaining>
10006620:	283f      	cmp	r0, #63	; 0x3f
10006622:	d834      	bhi.n	1000668e <cdcd_xfer_cb+0xee>
10006624:	464a      	mov	r2, r9
10006626:	3a10      	subs	r2, #16
10006628:	7893      	ldrb	r3, [r2, #2]
1000662a:	42a3      	cmp	r3, r4
1000662c:	d007      	beq.n	1000663e <cdcd_xfer_cb+0x9e>
1000662e:	2401      	movs	r4, #1
10006630:	0020      	movs	r0, r4
10006632:	bcf0      	pop	{r4, r5, r6, r7}
10006634:	46bb      	mov	fp, r7
10006636:	46b2      	mov	sl, r6
10006638:	46a9      	mov	r9, r5
1000663a:	46a0      	mov	r8, r4
1000663c:	bdf8      	pop	{r3, r4, r5, r6, r7, pc}
1000663e:	4b28      	ldr	r3, [pc, #160]	; (100066e0 <cdcd_xfer_cb+0x140>)
10006640:	2b00      	cmp	r3, #0
10006642:	d002      	beq.n	1000664a <cdcd_xfer_cb+0xaa>
10006644:	2000      	movs	r0, #0
10006646:	e000      	b.n	1000664a <cdcd_xfer_cb+0xaa>
10006648:	bf00      	nop
1000664a:	2000      	movs	r0, #0
1000664c:	f7ff fe0c 	bl	10006268 <tud_cdc_n_write_flush>
10006650:	2800      	cmp	r0, #0
10006652:	d1ec      	bne.n	1000662e <cdcd_xfer_cb+0x8e>
10006654:	4d23      	ldr	r5, [pc, #140]	; (100066e4 <cdcd_xfer_cb+0x144>)
10006656:	0028      	movs	r0, r5
10006658:	f000 f922 	bl	100068a0 <tu_fifo_count>
1000665c:	2800      	cmp	r0, #0
1000665e:	d1e6      	bne.n	1000662e <cdcd_xfer_cb+0x8e>
10006660:	2e00      	cmp	r6, #0
10006662:	d0e4      	beq.n	1000662e <cdcd_xfer_cb+0x8e>
10006664:	06b3      	lsls	r3, r6, #26
10006666:	d1e2      	bne.n	1000662e <cdcd_xfer_cb+0x8e>
10006668:	3d24      	subs	r5, #36	; 0x24
1000666a:	4640      	mov	r0, r8
1000666c:	78a9      	ldrb	r1, [r5, #2]
1000666e:	f7ff fc3f 	bl	10005ef0 <usbd_edpt_claim>
10006672:	1e04      	subs	r4, r0, #0
10006674:	d0db      	beq.n	1000662e <cdcd_xfer_cb+0x8e>
10006676:	2300      	movs	r3, #0
10006678:	2200      	movs	r2, #0
1000667a:	4640      	mov	r0, r8
1000667c:	78a9      	ldrb	r1, [r5, #2]
1000667e:	f7ff fc5f 	bl	10005f40 <usbd_edpt_xfer>
10006682:	e7d5      	b.n	10006630 <cdcd_xfer_cb+0x90>
10006684:	78bb      	ldrb	r3, [r7, #2]
10006686:	428b      	cmp	r3, r1
10006688:	d0d9      	beq.n	1000663e <cdcd_xfer_cb+0x9e>
1000668a:	2400      	movs	r4, #0
1000668c:	e7d0      	b.n	10006630 <cdcd_xfer_cb+0x90>
1000668e:	464d      	mov	r5, r9
10006690:	3d10      	subs	r5, #16
10006692:	2000      	movs	r0, #0
10006694:	78e9      	ldrb	r1, [r5, #3]
10006696:	f7ff fc2b 	bl	10005ef0 <usbd_edpt_claim>
1000669a:	2800      	cmp	r0, #0
1000669c:	d101      	bne.n	100066a2 <cdcd_xfer_cb+0x102>
1000669e:	78ab      	ldrb	r3, [r5, #2]
100066a0:	e7c3      	b.n	1000662a <cdcd_xfer_cb+0x8a>
100066a2:	4648      	mov	r0, r9
100066a4:	f000 f91a 	bl	100068dc <tu_fifo_remaining>
100066a8:	283f      	cmp	r0, #63	; 0x3f
100066aa:	d90c      	bls.n	100066c6 <cdcd_xfer_cb+0x126>
100066ac:	228e      	movs	r2, #142	; 0x8e
100066ae:	0092      	lsls	r2, r2, #2
100066b0:	2340      	movs	r3, #64	; 0x40
100066b2:	2000      	movs	r0, #0
100066b4:	78e9      	ldrb	r1, [r5, #3]
100066b6:	444a      	add	r2, r9
100066b8:	f7ff fc42 	bl	10005f40 <usbd_edpt_xfer>
100066bc:	78ab      	ldrb	r3, [r5, #2]
100066be:	e7b4      	b.n	1000662a <cdcd_xfer_cb+0x8a>
100066c0:	f7fe fb84 	bl	10004dcc <tud_cdc_rx_cb>
100066c4:	e7a9      	b.n	1000661a <cdcd_xfer_cb+0x7a>
100066c6:	2000      	movs	r0, #0
100066c8:	78e9      	ldrb	r1, [r5, #3]
100066ca:	f7ff fc25 	bl	10005f18 <usbd_edpt_release>
100066ce:	78ab      	ldrb	r3, [r5, #2]
100066d0:	e7ab      	b.n	1000662a <cdcd_xfer_cb+0x8a>
100066d2:	46c0      	nop			; (mov r8, r8)
100066d4:	20001288 	.word	0x20001288
100066d8:	00000000 	.word	0x00000000
100066dc:	10004dcd 	.word	0x10004dcd
100066e0:	00000000 	.word	0x00000000
100066e4:	200012ac 	.word	0x200012ac

100066e8 <tusb_init>:
100066e8:	b510      	push	{r4, lr}
100066ea:	2000      	movs	r0, #0
100066ec:	f7fe fed8 	bl	100054a0 <tud_init>
100066f0:	bd10      	pop	{r4, pc}
100066f2:	46c0      	nop			; (mov r8, r8)

100066f4 <tusb_inited>:
100066f4:	b510      	push	{r4, lr}
100066f6:	f7fe fec9 	bl	1000548c <tud_inited>
100066fa:	bd10      	pop	{r4, pc}

100066fc <tu_edpt_claim>:
100066fc:	7803      	ldrb	r3, [r0, #0]
100066fe:	b570      	push	{r4, r5, r6, lr}
10006700:	07db      	lsls	r3, r3, #31
10006702:	0004      	movs	r4, r0
10006704:	000e      	movs	r6, r1
10006706:	0fdd      	lsrs	r5, r3, #31
10006708:	2b00      	cmp	r3, #0
1000670a:	d117      	bne.n	1000673c <tu_edpt_claim+0x40>
1000670c:	7803      	ldrb	r3, [r0, #0]
1000670e:	075b      	lsls	r3, r3, #29
10006710:	d501      	bpl.n	10006716 <tu_edpt_claim+0x1a>
10006712:	0028      	movs	r0, r5
10006714:	bd70      	pop	{r4, r5, r6, pc}
10006716:	2101      	movs	r1, #1
10006718:	0030      	movs	r0, r6
1000671a:	4249      	negs	r1, r1
1000671c:	f000 fb70 	bl	10006e00 <__mutex_enter_timeout_ms_veneer>
10006720:	7823      	ldrb	r3, [r4, #0]
10006722:	07db      	lsls	r3, r3, #31
10006724:	0fdd      	lsrs	r5, r3, #31
10006726:	2b00      	cmp	r3, #0
10006728:	d10a      	bne.n	10006740 <tu_edpt_claim+0x44>
1000672a:	7823      	ldrb	r3, [r4, #0]
1000672c:	075b      	lsls	r3, r3, #29
1000672e:	d408      	bmi.n	10006742 <tu_edpt_claim+0x46>
10006730:	2204      	movs	r2, #4
10006732:	7823      	ldrb	r3, [r4, #0]
10006734:	2501      	movs	r5, #1
10006736:	4313      	orrs	r3, r2
10006738:	7023      	strb	r3, [r4, #0]
1000673a:	e002      	b.n	10006742 <tu_edpt_claim+0x46>
1000673c:	2500      	movs	r5, #0
1000673e:	e7e8      	b.n	10006712 <tu_edpt_claim+0x16>
10006740:	2500      	movs	r5, #0
10006742:	0030      	movs	r0, r6
10006744:	f000 fb24 	bl	10006d90 <__mutex_exit_veneer>
10006748:	e7e3      	b.n	10006712 <tu_edpt_claim+0x16>
1000674a:	46c0      	nop			; (mov r8, r8)

1000674c <tu_edpt_release>:
1000674c:	b570      	push	{r4, r5, r6, lr}
1000674e:	000d      	movs	r5, r1
10006750:	2101      	movs	r1, #1
10006752:	0004      	movs	r4, r0
10006754:	4249      	negs	r1, r1
10006756:	0028      	movs	r0, r5
10006758:	f000 fb52 	bl	10006e00 <__mutex_enter_timeout_ms_veneer>
1000675c:	7823      	ldrb	r3, [r4, #0]
1000675e:	075b      	lsls	r3, r3, #29
10006760:	0fde      	lsrs	r6, r3, #31
10006762:	2b00      	cmp	r3, #0
10006764:	db04      	blt.n	10006770 <tu_edpt_release+0x24>
10006766:	0028      	movs	r0, r5
10006768:	f000 fb12 	bl	10006d90 <__mutex_exit_veneer>
1000676c:	0030      	movs	r0, r6
1000676e:	bd70      	pop	{r4, r5, r6, pc}
10006770:	7823      	ldrb	r3, [r4, #0]
10006772:	07db      	lsls	r3, r3, #31
10006774:	d404      	bmi.n	10006780 <tu_edpt_release+0x34>
10006776:	2204      	movs	r2, #4
10006778:	7823      	ldrb	r3, [r4, #0]
1000677a:	4393      	bics	r3, r2
1000677c:	7023      	strb	r3, [r4, #0]
1000677e:	e7f2      	b.n	10006766 <tu_edpt_release+0x1a>
10006780:	2600      	movs	r6, #0
10006782:	e7f0      	b.n	10006766 <tu_edpt_release+0x1a>

10006784 <tu_edpt_validate>:
10006784:	b510      	push	{r4, lr}
10006786:	7943      	ldrb	r3, [r0, #5]
10006788:	7904      	ldrb	r4, [r0, #4]
1000678a:	021b      	lsls	r3, r3, #8
1000678c:	4323      	orrs	r3, r4
1000678e:	055b      	lsls	r3, r3, #21
10006790:	0d5a      	lsrs	r2, r3, #21
10006792:	78c3      	ldrb	r3, [r0, #3]
10006794:	079b      	lsls	r3, r3, #30
10006796:	0f9b      	lsrs	r3, r3, #30
10006798:	2b02      	cmp	r3, #2
1000679a:	d005      	beq.n	100067a8 <tu_edpt_validate+0x24>
1000679c:	2b03      	cmp	r3, #3
1000679e:	d015      	beq.n	100067cc <tu_edpt_validate+0x48>
100067a0:	2000      	movs	r0, #0
100067a2:	2b01      	cmp	r3, #1
100067a4:	d008      	beq.n	100067b8 <tu_edpt_validate+0x34>
100067a6:	bd10      	pop	{r4, pc}
100067a8:	2902      	cmp	r1, #2
100067aa:	d01c      	beq.n	100067e6 <tu_edpt_validate+0x62>
100067ac:	2000      	movs	r0, #0
100067ae:	2340      	movs	r3, #64	; 0x40
100067b0:	4293      	cmp	r3, r2
100067b2:	4140      	adcs	r0, r0
100067b4:	b2c0      	uxtb	r0, r0
100067b6:	e7f6      	b.n	100067a6 <tu_edpt_validate+0x22>
100067b8:	3902      	subs	r1, #2
100067ba:	424b      	negs	r3, r1
100067bc:	4159      	adcs	r1, r3
100067be:	4b0d      	ldr	r3, [pc, #52]	; (100067f4 <tu_edpt_validate+0x70>)
100067c0:	469c      	mov	ip, r3
100067c2:	4461      	add	r1, ip
100067c4:	4291      	cmp	r1, r2
100067c6:	4140      	adcs	r0, r0
100067c8:	b2c0      	uxtb	r0, r0
100067ca:	e7ec      	b.n	100067a6 <tu_edpt_validate+0x22>
100067cc:	3902      	subs	r1, #2
100067ce:	424b      	negs	r3, r1
100067d0:	4159      	adcs	r1, r3
100067d2:	23f0      	movs	r3, #240	; 0xf0
100067d4:	2000      	movs	r0, #0
100067d6:	4249      	negs	r1, r1
100067d8:	009b      	lsls	r3, r3, #2
100067da:	4019      	ands	r1, r3
100067dc:	3140      	adds	r1, #64	; 0x40
100067de:	4291      	cmp	r1, r2
100067e0:	4140      	adcs	r0, r0
100067e2:	b2c0      	uxtb	r0, r0
100067e4:	e7df      	b.n	100067a6 <tu_edpt_validate+0x22>
100067e6:	4b04      	ldr	r3, [pc, #16]	; (100067f8 <tu_edpt_validate+0x74>)
100067e8:	18d3      	adds	r3, r2, r3
100067ea:	425a      	negs	r2, r3
100067ec:	4153      	adcs	r3, r2
100067ee:	b2d8      	uxtb	r0, r3
100067f0:	e7d9      	b.n	100067a6 <tu_edpt_validate+0x22>
100067f2:	46c0      	nop			; (mov r8, r8)
100067f4:	000003ff 	.word	0x000003ff
100067f8:	fffffe00 	.word	0xfffffe00

100067fc <tu_edpt_bind_driver>:
100067fc:	188a      	adds	r2, r1, r2
100067fe:	b570      	push	{r4, r5, r6, lr}
10006800:	4291      	cmp	r1, r2
10006802:	d207      	bcs.n	10006814 <tu_edpt_bind_driver+0x18>
10006804:	267f      	movs	r6, #127	; 0x7f
10006806:	784c      	ldrb	r4, [r1, #1]
10006808:	2c05      	cmp	r4, #5
1000680a:	d004      	beq.n	10006816 <tu_edpt_bind_driver+0x1a>
1000680c:	780c      	ldrb	r4, [r1, #0]
1000680e:	1909      	adds	r1, r1, r4
10006810:	428a      	cmp	r2, r1
10006812:	d8f8      	bhi.n	10006806 <tu_edpt_bind_driver+0xa>
10006814:	bd70      	pop	{r4, r5, r6, pc}
10006816:	0034      	movs	r4, r6
10006818:	788d      	ldrb	r5, [r1, #2]
1000681a:	402c      	ands	r4, r5
1000681c:	0064      	lsls	r4, r4, #1
1000681e:	1904      	adds	r4, r0, r4
10006820:	09ed      	lsrs	r5, r5, #7
10006822:	5563      	strb	r3, [r4, r5]
10006824:	780c      	ldrb	r4, [r1, #0]
10006826:	1909      	adds	r1, r1, r4
10006828:	428a      	cmp	r2, r1
1000682a:	d8ec      	bhi.n	10006806 <tu_edpt_bind_driver+0xa>
1000682c:	e7f2      	b.n	10006814 <tu_edpt_bind_driver+0x18>
1000682e:	46c0      	nop			; (mov r8, r8)

10006830 <tu_fifo_config>:
10006830:	b5f0      	push	{r4, r5, r6, r7, lr}
10006832:	46c6      	mov	lr, r8
10006834:	b500      	push	{lr}
10006836:	0004      	movs	r4, r0
10006838:	a806      	add	r0, sp, #24
1000683a:	7805      	ldrb	r5, [r0, #0]
1000683c:	2080      	movs	r0, #128	; 0x80
1000683e:	4688      	mov	r8, r1
10006840:	0017      	movs	r7, r2
10006842:	001e      	movs	r6, r3
10006844:	0200      	lsls	r0, r0, #8
10006846:	4282      	cmp	r2, r0
10006848:	d827      	bhi.n	1000689a <tu_fifo_config+0x6a>
1000684a:	68e0      	ldr	r0, [r4, #12]
1000684c:	2800      	cmp	r0, #0
1000684e:	d003      	beq.n	10006858 <tu_fifo_config+0x28>
10006850:	2101      	movs	r1, #1
10006852:	4249      	negs	r1, r1
10006854:	f000 fad4 	bl	10006e00 <__mutex_enter_timeout_ms_veneer>
10006858:	6920      	ldr	r0, [r4, #16]
1000685a:	2800      	cmp	r0, #0
1000685c:	d003      	beq.n	10006866 <tu_fifo_config+0x36>
1000685e:	2101      	movs	r1, #1
10006860:	4249      	negs	r1, r1
10006862:	f000 facd 	bl	10006e00 <__mutex_enter_timeout_ms_veneer>
10006866:	4643      	mov	r3, r8
10006868:	6023      	str	r3, [r4, #0]
1000686a:	0473      	lsls	r3, r6, #17
1000686c:	0c5b      	lsrs	r3, r3, #17
1000686e:	03ed      	lsls	r5, r5, #15
10006870:	431d      	orrs	r5, r3
10006872:	2300      	movs	r3, #0
10006874:	68e0      	ldr	r0, [r4, #12]
10006876:	8163      	strh	r3, [r4, #10]
10006878:	80a7      	strh	r7, [r4, #4]
1000687a:	80e5      	strh	r5, [r4, #6]
1000687c:	8123      	strh	r3, [r4, #8]
1000687e:	2800      	cmp	r0, #0
10006880:	d001      	beq.n	10006886 <tu_fifo_config+0x56>
10006882:	f000 fa85 	bl	10006d90 <__mutex_exit_veneer>
10006886:	6920      	ldr	r0, [r4, #16]
10006888:	2401      	movs	r4, #1
1000688a:	2800      	cmp	r0, #0
1000688c:	d001      	beq.n	10006892 <tu_fifo_config+0x62>
1000688e:	f000 fa7f 	bl	10006d90 <__mutex_exit_veneer>
10006892:	0020      	movs	r0, r4
10006894:	bc80      	pop	{r7}
10006896:	46b8      	mov	r8, r7
10006898:	bdf0      	pop	{r4, r5, r6, r7, pc}
1000689a:	2400      	movs	r4, #0
1000689c:	e7f9      	b.n	10006892 <tu_fifo_config+0x62>
1000689e:	46c0      	nop			; (mov r8, r8)

100068a0 <tu_fifo_count>:
100068a0:	b510      	push	{r4, lr}
100068a2:	8904      	ldrh	r4, [r0, #8]
100068a4:	8941      	ldrh	r1, [r0, #10]
100068a6:	8882      	ldrh	r2, [r0, #4]
100068a8:	b2a3      	uxth	r3, r4
100068aa:	b288      	uxth	r0, r1
100068ac:	428c      	cmp	r4, r1
100068ae:	d307      	bcc.n	100068c0 <tu_fifo_count+0x20>
100068b0:	1a1b      	subs	r3, r3, r0
100068b2:	b29b      	uxth	r3, r3
100068b4:	1c10      	adds	r0, r2, #0
100068b6:	429a      	cmp	r2, r3
100068b8:	d900      	bls.n	100068bc <tu_fifo_count+0x1c>
100068ba:	1c18      	adds	r0, r3, #0
100068bc:	b280      	uxth	r0, r0
100068be:	bd10      	pop	{r4, pc}
100068c0:	0051      	lsls	r1, r2, #1
100068c2:	1a09      	subs	r1, r1, r0
100068c4:	185b      	adds	r3, r3, r1
100068c6:	b29b      	uxth	r3, r3
100068c8:	e7f4      	b.n	100068b4 <tu_fifo_count+0x14>
100068ca:	46c0      	nop			; (mov r8, r8)

100068cc <tu_fifo_empty>:
100068cc:	0003      	movs	r3, r0
100068ce:	8900      	ldrh	r0, [r0, #8]
100068d0:	895b      	ldrh	r3, [r3, #10]
100068d2:	1ac0      	subs	r0, r0, r3
100068d4:	4243      	negs	r3, r0
100068d6:	4158      	adcs	r0, r3
100068d8:	b2c0      	uxtb	r0, r0
100068da:	4770      	bx	lr

100068dc <tu_fifo_remaining>:
100068dc:	b510      	push	{r4, lr}
100068de:	8904      	ldrh	r4, [r0, #8]
100068e0:	8941      	ldrh	r1, [r0, #10]
100068e2:	8882      	ldrh	r2, [r0, #4]
100068e4:	b2a3      	uxth	r3, r4
100068e6:	b288      	uxth	r0, r1
100068e8:	428c      	cmp	r4, r1
100068ea:	d307      	bcc.n	100068fc <tu_fifo_remaining+0x20>
100068ec:	1a1b      	subs	r3, r3, r0
100068ee:	b29b      	uxth	r3, r3
100068f0:	2000      	movs	r0, #0
100068f2:	429a      	cmp	r2, r3
100068f4:	d901      	bls.n	100068fa <tu_fifo_remaining+0x1e>
100068f6:	1ad3      	subs	r3, r2, r3
100068f8:	b298      	uxth	r0, r3
100068fa:	bd10      	pop	{r4, pc}
100068fc:	0051      	lsls	r1, r2, #1
100068fe:	1a09      	subs	r1, r1, r0
10006900:	185b      	adds	r3, r3, r1
10006902:	b29b      	uxth	r3, r3
10006904:	e7f4      	b.n	100068f0 <tu_fifo_remaining+0x14>
10006906:	46c0      	nop			; (mov r8, r8)

10006908 <tu_fifo_read>:
10006908:	b570      	push	{r4, r5, r6, lr}
1000690a:	0004      	movs	r4, r0
1000690c:	6900      	ldr	r0, [r0, #16]
1000690e:	000e      	movs	r6, r1
10006910:	2800      	cmp	r0, #0
10006912:	d003      	beq.n	1000691c <tu_fifo_read+0x14>
10006914:	2101      	movs	r1, #1
10006916:	4249      	negs	r1, r1
10006918:	f000 fa72 	bl	10006e00 <__mutex_enter_timeout_ms_veneer>
1000691c:	8925      	ldrh	r5, [r4, #8]
1000691e:	8960      	ldrh	r0, [r4, #10]
10006920:	88a2      	ldrh	r2, [r4, #4]
10006922:	b2a9      	uxth	r1, r5
10006924:	b283      	uxth	r3, r0
10006926:	4285      	cmp	r5, r0
10006928:	d32c      	bcc.n	10006984 <tu_fifo_read+0x7c>
1000692a:	1acd      	subs	r5, r1, r3
1000692c:	b2ad      	uxth	r5, r5
1000692e:	2d00      	cmp	r5, #0
10006930:	d02e      	beq.n	10006990 <tu_fifo_read+0x88>
10006932:	42aa      	cmp	r2, r5
10006934:	d208      	bcs.n	10006948 <tu_fifo_read+0x40>
10006936:	4291      	cmp	r1, r2
10006938:	d331      	bcc.n	1000699e <tu_fifo_read+0x96>
1000693a:	1a8b      	subs	r3, r1, r2
1000693c:	b29b      	uxth	r3, r3
1000693e:	8163      	strh	r3, [r4, #10]
10006940:	429a      	cmp	r2, r3
10006942:	d803      	bhi.n	1000694c <tu_fifo_read+0x44>
10006944:	1a9b      	subs	r3, r3, r2
10006946:	b29b      	uxth	r3, r3
10006948:	429a      	cmp	r2, r3
1000694a:	d9fb      	bls.n	10006944 <tu_fifo_read+0x3c>
1000694c:	88e2      	ldrh	r2, [r4, #6]
1000694e:	6821      	ldr	r1, [r4, #0]
10006950:	0452      	lsls	r2, r2, #17
10006952:	0c52      	lsrs	r2, r2, #17
10006954:	4353      	muls	r3, r2
10006956:	0030      	movs	r0, r6
10006958:	18c9      	adds	r1, r1, r3
1000695a:	f7fd fe1f 	bl	1000459c <__wrap___aeabi_memcpy>
1000695e:	8961      	ldrh	r1, [r4, #10]
10006960:	2501      	movs	r5, #1
10006962:	1c4b      	adds	r3, r1, #1
10006964:	b29b      	uxth	r3, r3
10006966:	88a2      	ldrh	r2, [r4, #4]
10006968:	4299      	cmp	r1, r3
1000696a:	d914      	bls.n	10006996 <tu_fifo_read+0x8e>
1000696c:	2300      	movs	r3, #0
1000696e:	0052      	lsls	r2, r2, #1
10006970:	1a9b      	subs	r3, r3, r2
10006972:	b29b      	uxth	r3, r3
10006974:	6920      	ldr	r0, [r4, #16]
10006976:	8163      	strh	r3, [r4, #10]
10006978:	2800      	cmp	r0, #0
1000697a:	d001      	beq.n	10006980 <tu_fifo_read+0x78>
1000697c:	f000 fa08 	bl	10006d90 <__mutex_exit_veneer>
10006980:	0028      	movs	r0, r5
10006982:	bd70      	pop	{r4, r5, r6, pc}
10006984:	0055      	lsls	r5, r2, #1
10006986:	1aed      	subs	r5, r5, r3
10006988:	194d      	adds	r5, r1, r5
1000698a:	b2ad      	uxth	r5, r5
1000698c:	2d00      	cmp	r5, #0
1000698e:	d1d0      	bne.n	10006932 <tu_fifo_read+0x2a>
10006990:	2500      	movs	r5, #0
10006992:	8963      	ldrh	r3, [r4, #10]
10006994:	b29b      	uxth	r3, r3
10006996:	0052      	lsls	r2, r2, #1
10006998:	4293      	cmp	r3, r2
1000699a:	dbeb      	blt.n	10006974 <tu_fifo_read+0x6c>
1000699c:	e7e8      	b.n	10006970 <tu_fifo_read+0x68>
1000699e:	1889      	adds	r1, r1, r2
100069a0:	b28b      	uxth	r3, r1
100069a2:	8163      	strh	r3, [r4, #10]
100069a4:	e7cc      	b.n	10006940 <tu_fifo_read+0x38>
100069a6:	46c0      	nop			; (mov r8, r8)

100069a8 <tu_fifo_read_n>:
100069a8:	b5f0      	push	{r4, r5, r6, r7, lr}
100069aa:	4646      	mov	r6, r8
100069ac:	464f      	mov	r7, r9
100069ae:	46d6      	mov	lr, sl
100069b0:	b5c0      	push	{r6, r7, lr}
100069b2:	0006      	movs	r6, r0
100069b4:	6900      	ldr	r0, [r0, #16]
100069b6:	4689      	mov	r9, r1
100069b8:	4690      	mov	r8, r2
100069ba:	2800      	cmp	r0, #0
100069bc:	d003      	beq.n	100069c6 <tu_fifo_read_n+0x1e>
100069be:	2101      	movs	r1, #1
100069c0:	4249      	negs	r1, r1
100069c2:	f000 fa1d 	bl	10006e00 <__mutex_enter_timeout_ms_veneer>
100069c6:	8931      	ldrh	r1, [r6, #8]
100069c8:	8972      	ldrh	r2, [r6, #10]
100069ca:	88b5      	ldrh	r5, [r6, #4]
100069cc:	b28b      	uxth	r3, r1
100069ce:	b294      	uxth	r4, r2
100069d0:	4291      	cmp	r1, r2
100069d2:	d357      	bcc.n	10006a84 <tu_fifo_read_n+0xdc>
100069d4:	1b1f      	subs	r7, r3, r4
100069d6:	b2bf      	uxth	r7, r7
100069d8:	2f00      	cmp	r7, #0
100069da:	d04d      	beq.n	10006a78 <tu_fifo_read_n+0xd0>
100069dc:	42bd      	cmp	r5, r7
100069de:	d205      	bcs.n	100069ec <tu_fifo_read_n+0x44>
100069e0:	42ab      	cmp	r3, r5
100069e2:	d254      	bcs.n	10006a8e <tu_fifo_read_n+0xe6>
100069e4:	195b      	adds	r3, r3, r5
100069e6:	b29c      	uxth	r4, r3
100069e8:	002f      	movs	r7, r5
100069ea:	8174      	strh	r4, [r6, #10]
100069ec:	4643      	mov	r3, r8
100069ee:	45b8      	cmp	r8, r7
100069f0:	d840      	bhi.n	10006a74 <tu_fifo_read_n+0xcc>
100069f2:	b29f      	uxth	r7, r3
100069f4:	42a5      	cmp	r5, r4
100069f6:	d803      	bhi.n	10006a00 <tu_fifo_read_n+0x58>
100069f8:	1b64      	subs	r4, r4, r5
100069fa:	b2a4      	uxth	r4, r4
100069fc:	42a5      	cmp	r5, r4
100069fe:	d9fb      	bls.n	100069f8 <tu_fifo_read_n+0x50>
10006a00:	88f2      	ldrh	r2, [r6, #6]
10006a02:	1b28      	subs	r0, r5, r4
10006a04:	0452      	lsls	r2, r2, #17
10006a06:	0c53      	lsrs	r3, r2, #17
10006a08:	0019      	movs	r1, r3
10006a0a:	4698      	mov	r8, r3
10006a0c:	6833      	ldr	r3, [r6, #0]
10006a0e:	4361      	muls	r1, r4
10006a10:	469c      	mov	ip, r3
10006a12:	b280      	uxth	r0, r0
10006a14:	4461      	add	r1, ip
10006a16:	4287      	cmp	r7, r0
10006a18:	d926      	bls.n	10006a68 <tu_fifo_read_n+0xc0>
10006a1a:	4643      	mov	r3, r8
10006a1c:	4358      	muls	r0, r3
10006a1e:	b283      	uxth	r3, r0
10006a20:	001a      	movs	r2, r3
10006a22:	4648      	mov	r0, r9
10006a24:	469a      	mov	sl, r3
10006a26:	f7fd fdb9 	bl	1000459c <__wrap___aeabi_memcpy>
10006a2a:	4643      	mov	r3, r8
10006a2c:	4648      	mov	r0, r9
10006a2e:	1b7d      	subs	r5, r7, r5
10006a30:	1964      	adds	r4, r4, r5
10006a32:	435c      	muls	r4, r3
10006a34:	6831      	ldr	r1, [r6, #0]
10006a36:	4450      	add	r0, sl
10006a38:	b2a2      	uxth	r2, r4
10006a3a:	f7fd fdaf 	bl	1000459c <__wrap___aeabi_memcpy>
10006a3e:	8971      	ldrh	r1, [r6, #10]
10006a40:	88b5      	ldrh	r5, [r6, #4]
10006a42:	19cb      	adds	r3, r1, r7
10006a44:	b29b      	uxth	r3, r3
10006a46:	006a      	lsls	r2, r5, #1
10006a48:	4299      	cmp	r1, r3
10006a4a:	d917      	bls.n	10006a7c <tu_fifo_read_n+0xd4>
10006a4c:	1a9b      	subs	r3, r3, r2
10006a4e:	b29b      	uxth	r3, r3
10006a50:	6930      	ldr	r0, [r6, #16]
10006a52:	8173      	strh	r3, [r6, #10]
10006a54:	2800      	cmp	r0, #0
10006a56:	d001      	beq.n	10006a5c <tu_fifo_read_n+0xb4>
10006a58:	f000 f99a 	bl	10006d90 <__mutex_exit_veneer>
10006a5c:	0038      	movs	r0, r7
10006a5e:	bce0      	pop	{r5, r6, r7}
10006a60:	46ba      	mov	sl, r7
10006a62:	46b1      	mov	r9, r6
10006a64:	46a8      	mov	r8, r5
10006a66:	bdf0      	pop	{r4, r5, r6, r7, pc}
10006a68:	4642      	mov	r2, r8
10006a6a:	4648      	mov	r0, r9
10006a6c:	437a      	muls	r2, r7
10006a6e:	f7fd fd95 	bl	1000459c <__wrap___aeabi_memcpy>
10006a72:	e7e4      	b.n	10006a3e <tu_fifo_read_n+0x96>
10006a74:	1c3b      	adds	r3, r7, #0
10006a76:	e7bc      	b.n	100069f2 <tu_fifo_read_n+0x4a>
10006a78:	8973      	ldrh	r3, [r6, #10]
10006a7a:	b29b      	uxth	r3, r3
10006a7c:	006a      	lsls	r2, r5, #1
10006a7e:	4293      	cmp	r3, r2
10006a80:	dbe6      	blt.n	10006a50 <tu_fifo_read_n+0xa8>
10006a82:	e7e3      	b.n	10006a4c <tu_fifo_read_n+0xa4>
10006a84:	006f      	lsls	r7, r5, #1
10006a86:	1b3f      	subs	r7, r7, r4
10006a88:	19df      	adds	r7, r3, r7
10006a8a:	b2bf      	uxth	r7, r7
10006a8c:	e7a4      	b.n	100069d8 <tu_fifo_read_n+0x30>
10006a8e:	1b5b      	subs	r3, r3, r5
10006a90:	b29c      	uxth	r4, r3
10006a92:	e7a9      	b.n	100069e8 <tu_fifo_read_n+0x40>

10006a94 <tu_fifo_write>:
10006a94:	b5f8      	push	{r3, r4, r5, r6, r7, lr}
10006a96:	0004      	movs	r4, r0
10006a98:	68c0      	ldr	r0, [r0, #12]
10006a9a:	000e      	movs	r6, r1
10006a9c:	2800      	cmp	r0, #0
10006a9e:	d003      	beq.n	10006aa8 <tu_fifo_write+0x14>
10006aa0:	2101      	movs	r1, #1
10006aa2:	4249      	negs	r1, r1
10006aa4:	f000 f9ac 	bl	10006e00 <__mutex_enter_timeout_ms_veneer>
10006aa8:	8925      	ldrh	r5, [r4, #8]
10006aaa:	8920      	ldrh	r0, [r4, #8]
10006aac:	8961      	ldrh	r1, [r4, #10]
10006aae:	88a2      	ldrh	r2, [r4, #4]
10006ab0:	b2ad      	uxth	r5, r5
10006ab2:	b283      	uxth	r3, r0
10006ab4:	b28f      	uxth	r7, r1
10006ab6:	4288      	cmp	r0, r1
10006ab8:	d328      	bcc.n	10006b0c <tu_fifo_write+0x78>
10006aba:	1bdb      	subs	r3, r3, r7
10006abc:	b29b      	uxth	r3, r3
10006abe:	429a      	cmp	r2, r3
10006ac0:	d809      	bhi.n	10006ad6 <tu_fifo_write+0x42>
10006ac2:	79e7      	ldrb	r7, [r4, #7]
10006ac4:	09ff      	lsrs	r7, r7, #7
10006ac6:	d106      	bne.n	10006ad6 <tu_fifo_write+0x42>
10006ac8:	68e0      	ldr	r0, [r4, #12]
10006aca:	2800      	cmp	r0, #0
10006acc:	d001      	beq.n	10006ad2 <tu_fifo_write+0x3e>
10006ace:	f000 f95f 	bl	10006d90 <__mutex_exit_veneer>
10006ad2:	0038      	movs	r0, r7
10006ad4:	bdf8      	pop	{r3, r4, r5, r6, r7, pc}
10006ad6:	002b      	movs	r3, r5
10006ad8:	4295      	cmp	r5, r2
10006ada:	d303      	bcc.n	10006ae4 <tu_fifo_write+0x50>
10006adc:	1a9b      	subs	r3, r3, r2
10006ade:	b29b      	uxth	r3, r3
10006ae0:	4293      	cmp	r3, r2
10006ae2:	d2fb      	bcs.n	10006adc <tu_fifo_write+0x48>
10006ae4:	88e2      	ldrh	r2, [r4, #6]
10006ae6:	6821      	ldr	r1, [r4, #0]
10006ae8:	0452      	lsls	r2, r2, #17
10006aea:	0c52      	lsrs	r2, r2, #17
10006aec:	4353      	muls	r3, r2
10006aee:	18c8      	adds	r0, r1, r3
10006af0:	0031      	movs	r1, r6
10006af2:	f7fd fd53 	bl	1000459c <__wrap___aeabi_memcpy>
10006af6:	88a2      	ldrh	r2, [r4, #4]
10006af8:	1c6b      	adds	r3, r5, #1
10006afa:	b29b      	uxth	r3, r3
10006afc:	0052      	lsls	r2, r2, #1
10006afe:	429d      	cmp	r5, r3
10006b00:	d909      	bls.n	10006b16 <tu_fifo_write+0x82>
10006b02:	1a9b      	subs	r3, r3, r2
10006b04:	b29b      	uxth	r3, r3
10006b06:	2701      	movs	r7, #1
10006b08:	8123      	strh	r3, [r4, #8]
10006b0a:	e7dd      	b.n	10006ac8 <tu_fifo_write+0x34>
10006b0c:	0051      	lsls	r1, r2, #1
10006b0e:	1bc9      	subs	r1, r1, r7
10006b10:	185b      	adds	r3, r3, r1
10006b12:	b29b      	uxth	r3, r3
10006b14:	e7d3      	b.n	10006abe <tu_fifo_write+0x2a>
10006b16:	4293      	cmp	r3, r2
10006b18:	dbf5      	blt.n	10006b06 <tu_fifo_write+0x72>
10006b1a:	e7f2      	b.n	10006b02 <tu_fifo_write+0x6e>

10006b1c <tu_fifo_write_n>:
10006b1c:	b5f0      	push	{r4, r5, r6, r7, lr}
10006b1e:	464e      	mov	r6, r9
10006b20:	4645      	mov	r5, r8
10006b22:	46de      	mov	lr, fp
10006b24:	4657      	mov	r7, sl
10006b26:	b5e0      	push	{r5, r6, r7, lr}
10006b28:	4689      	mov	r9, r1
10006b2a:	0005      	movs	r5, r0
10006b2c:	0014      	movs	r4, r2
10006b2e:	b083      	sub	sp, #12
10006b30:	2a00      	cmp	r2, #0
10006b32:	d06e      	beq.n	10006c12 <tu_fifo_write_n+0xf6>
10006b34:	68c0      	ldr	r0, [r0, #12]
10006b36:	2800      	cmp	r0, #0
10006b38:	d003      	beq.n	10006b42 <tu_fifo_write_n+0x26>
10006b3a:	2101      	movs	r1, #1
10006b3c:	4249      	negs	r1, r1
10006b3e:	f000 f95f 	bl	10006e00 <__mutex_enter_timeout_ms_veneer>
10006b42:	892f      	ldrh	r7, [r5, #8]
10006b44:	79ea      	ldrb	r2, [r5, #7]
10006b46:	896b      	ldrh	r3, [r5, #10]
10006b48:	b2bf      	uxth	r7, r7
10006b4a:	b29b      	uxth	r3, r3
10006b4c:	09d2      	lsrs	r2, r2, #7
10006b4e:	d142      	bne.n	10006bd6 <tu_fifo_write_n+0xba>
10006b50:	88ae      	ldrh	r6, [r5, #4]
10006b52:	429f      	cmp	r7, r3
10006b54:	d267      	bcs.n	10006c26 <tu_fifo_write_n+0x10a>
10006b56:	0072      	lsls	r2, r6, #1
10006b58:	1ad3      	subs	r3, r2, r3
10006b5a:	18fb      	adds	r3, r7, r3
10006b5c:	b29b      	uxth	r3, r3
10006b5e:	2200      	movs	r2, #0
10006b60:	4690      	mov	r8, r2
10006b62:	429e      	cmp	r6, r3
10006b64:	d931      	bls.n	10006bca <tu_fifo_write_n+0xae>
10006b66:	1af3      	subs	r3, r6, r3
10006b68:	1c1a      	adds	r2, r3, #0
10006b6a:	b29b      	uxth	r3, r3
10006b6c:	42a3      	cmp	r3, r4
10006b6e:	d900      	bls.n	10006b72 <tu_fifo_write_n+0x56>
10006b70:	1c22      	adds	r2, r4, #0
10006b72:	b293      	uxth	r3, r2
10006b74:	4698      	mov	r8, r3
10006b76:	88e8      	ldrh	r0, [r5, #6]
10006b78:	4643      	mov	r3, r8
10006b7a:	18fb      	adds	r3, r7, r3
10006b7c:	b29b      	uxth	r3, r3
10006b7e:	469b      	mov	fp, r3
10006b80:	003c      	movs	r4, r7
10006b82:	42b7      	cmp	r7, r6
10006b84:	d303      	bcc.n	10006b8e <tu_fifo_write_n+0x72>
10006b86:	1ba4      	subs	r4, r4, r6
10006b88:	b2a4      	uxth	r4, r4
10006b8a:	42b4      	cmp	r4, r6
10006b8c:	d2fb      	bcs.n	10006b86 <tu_fifo_write_n+0x6a>
10006b8e:	0440      	lsls	r0, r0, #17
10006b90:	0c43      	lsrs	r3, r0, #17
10006b92:	0018      	movs	r0, r3
10006b94:	469a      	mov	sl, r3
10006b96:	682b      	ldr	r3, [r5, #0]
10006b98:	4360      	muls	r0, r4
10006b9a:	469c      	mov	ip, r3
10006b9c:	1b31      	subs	r1, r6, r4
10006b9e:	b289      	uxth	r1, r1
10006ba0:	4460      	add	r0, ip
10006ba2:	4541      	cmp	r1, r8
10006ba4:	d34e      	bcc.n	10006c44 <tu_fifo_write_n+0x128>
10006ba6:	4652      	mov	r2, sl
10006ba8:	4643      	mov	r3, r8
10006baa:	4649      	mov	r1, r9
10006bac:	435a      	muls	r2, r3
10006bae:	f7fd fcf5 	bl	1000459c <__wrap___aeabi_memcpy>
10006bb2:	88ab      	ldrh	r3, [r5, #4]
10006bb4:	005b      	lsls	r3, r3, #1
10006bb6:	45bb      	cmp	fp, r7
10006bb8:	d301      	bcc.n	10006bbe <tu_fifo_write_n+0xa2>
10006bba:	459b      	cmp	fp, r3
10006bbc:	db03      	blt.n	10006bc6 <tu_fifo_write_n+0xaa>
10006bbe:	465a      	mov	r2, fp
10006bc0:	1ad3      	subs	r3, r2, r3
10006bc2:	b29b      	uxth	r3, r3
10006bc4:	469b      	mov	fp, r3
10006bc6:	465b      	mov	r3, fp
10006bc8:	812b      	strh	r3, [r5, #8]
10006bca:	68e8      	ldr	r0, [r5, #12]
10006bcc:	2800      	cmp	r0, #0
10006bce:	d022      	beq.n	10006c16 <tu_fifo_write_n+0xfa>
10006bd0:	f000 f8de 	bl	10006d90 <__mutex_exit_veneer>
10006bd4:	e01f      	b.n	10006c16 <tu_fifo_write_n+0xfa>
10006bd6:	88aa      	ldrh	r2, [r5, #4]
10006bd8:	4690      	mov	r8, r2
10006bda:	4294      	cmp	r4, r2
10006bdc:	d226      	bcs.n	10006c2c <tu_fifo_write_n+0x110>
10006bde:	429f      	cmp	r7, r3
10006be0:	d344      	bcc.n	10006c6c <tu_fifo_write_n+0x150>
10006be2:	4641      	mov	r1, r8
10006be4:	1afa      	subs	r2, r7, r3
10006be6:	b292      	uxth	r2, r2
10006be8:	0049      	lsls	r1, r1, #1
10006bea:	1912      	adds	r2, r2, r4
10006bec:	428a      	cmp	r2, r1
10006bee:	db09      	blt.n	10006c04 <tu_fifo_write_n+0xe8>
10006bf0:	4642      	mov	r2, r8
10006bf2:	189a      	adds	r2, r3, r2
10006bf4:	b292      	uxth	r2, r2
10006bf6:	1b17      	subs	r7, r2, r4
10006bf8:	b2bf      	uxth	r7, r7
10006bfa:	4693      	mov	fp, r2
10006bfc:	42bb      	cmp	r3, r7
10006bfe:	d93a      	bls.n	10006c76 <tu_fifo_write_n+0x15a>
10006c00:	1a7f      	subs	r7, r7, r1
10006c02:	b2bf      	uxth	r7, r7
10006c04:	19e3      	adds	r3, r4, r7
10006c06:	b29b      	uxth	r3, r3
10006c08:	4646      	mov	r6, r8
10006c0a:	469b      	mov	fp, r3
10006c0c:	46a0      	mov	r8, r4
10006c0e:	88e8      	ldrh	r0, [r5, #6]
10006c10:	e7b6      	b.n	10006b80 <tu_fifo_write_n+0x64>
10006c12:	2300      	movs	r3, #0
10006c14:	4698      	mov	r8, r3
10006c16:	4640      	mov	r0, r8
10006c18:	b003      	add	sp, #12
10006c1a:	bcf0      	pop	{r4, r5, r6, r7}
10006c1c:	46bb      	mov	fp, r7
10006c1e:	46b2      	mov	sl, r6
10006c20:	46a9      	mov	r9, r5
10006c22:	46a0      	mov	r8, r4
10006c24:	bdf0      	pop	{r4, r5, r6, r7, pc}
10006c26:	1afb      	subs	r3, r7, r3
10006c28:	b29b      	uxth	r3, r3
10006c2a:	e798      	b.n	10006b5e <tu_fifo_write_n+0x42>
10006c2c:	88e8      	ldrh	r0, [r5, #6]
10006c2e:	1aa2      	subs	r2, r4, r2
10006c30:	0444      	lsls	r4, r0, #17
10006c32:	0c64      	lsrs	r4, r4, #17
10006c34:	4354      	muls	r4, r2
10006c36:	4642      	mov	r2, r8
10006c38:	44a1      	add	r9, r4
10006c3a:	2a00      	cmp	r2, #0
10006c3c:	d0c5      	beq.n	10006bca <tu_fifo_write_n+0xae>
10006c3e:	4646      	mov	r6, r8
10006c40:	001f      	movs	r7, r3
10006c42:	e799      	b.n	10006b78 <tu_fifo_write_n+0x5c>
10006c44:	4653      	mov	r3, sl
10006c46:	4359      	muls	r1, r3
10006c48:	b289      	uxth	r1, r1
10006c4a:	000a      	movs	r2, r1
10006c4c:	9101      	str	r1, [sp, #4]
10006c4e:	4649      	mov	r1, r9
10006c50:	f7fd fca4 	bl	1000459c <__wrap___aeabi_memcpy>
10006c54:	4643      	mov	r3, r8
10006c56:	1b9a      	subs	r2, r3, r6
10006c58:	4653      	mov	r3, sl
10006c5a:	18a2      	adds	r2, r4, r2
10006c5c:	435a      	muls	r2, r3
10006c5e:	9901      	ldr	r1, [sp, #4]
10006c60:	6828      	ldr	r0, [r5, #0]
10006c62:	b292      	uxth	r2, r2
10006c64:	4449      	add	r1, r9
10006c66:	f7fd fc99 	bl	1000459c <__wrap___aeabi_memcpy>
10006c6a:	e7a2      	b.n	10006bb2 <tu_fifo_write_n+0x96>
10006c6c:	0051      	lsls	r1, r2, #1
10006c6e:	1aca      	subs	r2, r1, r3
10006c70:	18ba      	adds	r2, r7, r2
10006c72:	b292      	uxth	r2, r2
10006c74:	e7b9      	b.n	10006bea <tu_fifo_write_n+0xce>
10006c76:	42b9      	cmp	r1, r7
10006c78:	ddc2      	ble.n	10006c00 <tu_fifo_write_n+0xe4>
10006c7a:	4646      	mov	r6, r8
10006c7c:	88e8      	ldrh	r0, [r5, #6]
10006c7e:	46a0      	mov	r8, r4
10006c80:	e77e      	b.n	10006b80 <tu_fifo_write_n+0x64>
10006c82:	46c0      	nop			; (mov r8, r8)

10006c84 <tu_fifo_clear>:
10006c84:	b510      	push	{r4, lr}
10006c86:	0004      	movs	r4, r0
10006c88:	68c0      	ldr	r0, [r0, #12]
10006c8a:	2800      	cmp	r0, #0
10006c8c:	d003      	beq.n	10006c96 <tu_fifo_clear+0x12>
10006c8e:	2101      	movs	r1, #1
10006c90:	4249      	negs	r1, r1
10006c92:	f000 f8b5 	bl	10006e00 <__mutex_enter_timeout_ms_veneer>
10006c96:	6920      	ldr	r0, [r4, #16]
10006c98:	2800      	cmp	r0, #0
10006c9a:	d003      	beq.n	10006ca4 <tu_fifo_clear+0x20>
10006c9c:	2101      	movs	r1, #1
10006c9e:	4249      	negs	r1, r1
10006ca0:	f000 f8ae 	bl	10006e00 <__mutex_enter_timeout_ms_veneer>
10006ca4:	2300      	movs	r3, #0
10006ca6:	68e0      	ldr	r0, [r4, #12]
10006ca8:	8163      	strh	r3, [r4, #10]
10006caa:	8123      	strh	r3, [r4, #8]
10006cac:	2800      	cmp	r0, #0
10006cae:	d001      	beq.n	10006cb4 <tu_fifo_clear+0x30>
10006cb0:	f000 f86e 	bl	10006d90 <__mutex_exit_veneer>
10006cb4:	6920      	ldr	r0, [r4, #16]
10006cb6:	2800      	cmp	r0, #0
10006cb8:	d001      	beq.n	10006cbe <tu_fifo_clear+0x3a>
10006cba:	f000 f869 	bl	10006d90 <__mutex_exit_veneer>
10006cbe:	2001      	movs	r0, #1
10006cc0:	bd10      	pop	{r4, pc}
10006cc2:	46c0      	nop			; (mov r8, r8)

10006cc4 <tu_fifo_set_overwritable>:
10006cc4:	b570      	push	{r4, r5, r6, lr}
10006cc6:	0004      	movs	r4, r0
10006cc8:	68c0      	ldr	r0, [r0, #12]
10006cca:	000d      	movs	r5, r1
10006ccc:	2800      	cmp	r0, #0
10006cce:	d003      	beq.n	10006cd8 <tu_fifo_set_overwritable+0x14>
10006cd0:	2101      	movs	r1, #1
10006cd2:	4249      	negs	r1, r1
10006cd4:	f000 f894 	bl	10006e00 <__mutex_enter_timeout_ms_veneer>
10006cd8:	6920      	ldr	r0, [r4, #16]
10006cda:	2800      	cmp	r0, #0
10006cdc:	d003      	beq.n	10006ce6 <tu_fifo_set_overwritable+0x22>
10006cde:	2101      	movs	r1, #1
10006ce0:	4249      	negs	r1, r1
10006ce2:	f000 f88d 	bl	10006e00 <__mutex_enter_timeout_ms_veneer>
10006ce6:	217f      	movs	r1, #127	; 0x7f
10006ce8:	79e3      	ldrb	r3, [r4, #7]
10006cea:	01ed      	lsls	r5, r5, #7
10006cec:	4019      	ands	r1, r3
10006cee:	68e0      	ldr	r0, [r4, #12]
10006cf0:	4329      	orrs	r1, r5
10006cf2:	71e1      	strb	r1, [r4, #7]
10006cf4:	2800      	cmp	r0, #0
10006cf6:	d001      	beq.n	10006cfc <tu_fifo_set_overwritable+0x38>
10006cf8:	f000 f84a 	bl	10006d90 <__mutex_exit_veneer>
10006cfc:	6920      	ldr	r0, [r4, #16]
10006cfe:	2800      	cmp	r0, #0
10006d00:	d001      	beq.n	10006d06 <tu_fifo_set_overwritable+0x42>
10006d02:	f000 f845 	bl	10006d90 <__mutex_exit_veneer>
10006d06:	2001      	movs	r0, #1
10006d08:	bd70      	pop	{r4, r5, r6, pc}
10006d0a:	46c0      	nop			; (mov r8, r8)

10006d0c <strcpy>:
10006d0c:	0003      	movs	r3, r0
10006d0e:	780a      	ldrb	r2, [r1, #0]
10006d10:	3101      	adds	r1, #1
10006d12:	701a      	strb	r2, [r3, #0]
10006d14:	3301      	adds	r3, #1
10006d16:	2a00      	cmp	r2, #0
10006d18:	d1f9      	bne.n	10006d0e <strcpy+0x2>
10006d1a:	4770      	bx	lr

10006d1c <strlen>:
10006d1c:	b510      	push	{r4, lr}
10006d1e:	0783      	lsls	r3, r0, #30
10006d20:	d00a      	beq.n	10006d38 <strlen+0x1c>
10006d22:	0003      	movs	r3, r0
10006d24:	2103      	movs	r1, #3
10006d26:	e002      	b.n	10006d2e <strlen+0x12>
10006d28:	3301      	adds	r3, #1
10006d2a:	420b      	tst	r3, r1
10006d2c:	d005      	beq.n	10006d3a <strlen+0x1e>
10006d2e:	781a      	ldrb	r2, [r3, #0]
10006d30:	2a00      	cmp	r2, #0
10006d32:	d1f9      	bne.n	10006d28 <strlen+0xc>
10006d34:	1a18      	subs	r0, r3, r0
10006d36:	bd10      	pop	{r4, pc}
10006d38:	0003      	movs	r3, r0
10006d3a:	6819      	ldr	r1, [r3, #0]
10006d3c:	4a0c      	ldr	r2, [pc, #48]	; (10006d70 <strlen+0x54>)
10006d3e:	4c0d      	ldr	r4, [pc, #52]	; (10006d74 <strlen+0x58>)
10006d40:	188a      	adds	r2, r1, r2
10006d42:	438a      	bics	r2, r1
10006d44:	4222      	tst	r2, r4
10006d46:	d10f      	bne.n	10006d68 <strlen+0x4c>
10006d48:	6859      	ldr	r1, [r3, #4]
10006d4a:	4a09      	ldr	r2, [pc, #36]	; (10006d70 <strlen+0x54>)
10006d4c:	3304      	adds	r3, #4
10006d4e:	188a      	adds	r2, r1, r2
10006d50:	438a      	bics	r2, r1
10006d52:	4222      	tst	r2, r4
10006d54:	d108      	bne.n	10006d68 <strlen+0x4c>
10006d56:	6859      	ldr	r1, [r3, #4]
10006d58:	4a05      	ldr	r2, [pc, #20]	; (10006d70 <strlen+0x54>)
10006d5a:	3304      	adds	r3, #4
10006d5c:	188a      	adds	r2, r1, r2
10006d5e:	438a      	bics	r2, r1
10006d60:	4222      	tst	r2, r4
10006d62:	d0f1      	beq.n	10006d48 <strlen+0x2c>
10006d64:	e000      	b.n	10006d68 <strlen+0x4c>
10006d66:	3301      	adds	r3, #1
10006d68:	781a      	ldrb	r2, [r3, #0]
10006d6a:	2a00      	cmp	r2, #0
10006d6c:	d1fb      	bne.n	10006d66 <strlen+0x4a>
10006d6e:	e7e1      	b.n	10006d34 <strlen+0x18>
10006d70:	fefefeff 	.word	0xfefefeff
10006d74:	80808080 	.word	0x80808080

10006d78 <_fini>:
10006d78:	b5f8      	push	{r3, r4, r5, r6, r7, lr}
10006d7a:	46c0      	nop			; (mov r8, r8)
10006d7c:	0000      	movs	r0, r0
	...

10006d80 <__flash_do_cmd_veneer>:
10006d80:	b401      	push	{r0}
10006d82:	4802      	ldr	r0, [pc, #8]	; (10006d8c <__flash_do_cmd_veneer+0xc>)
10006d84:	4684      	mov	ip, r0
10006d86:	bc01      	pop	{r0}
10006d88:	4760      	bx	ip
10006d8a:	bf00      	nop
10006d8c:	200002d1 	.word	0x200002d1

10006d90 <__mutex_exit_veneer>:
10006d90:	b401      	push	{r0}
10006d92:	4802      	ldr	r0, [pc, #8]	; (10006d9c <__mutex_exit_veneer+0xc>)
10006d94:	4684      	mov	ip, r0
10006d96:	bc01      	pop	{r0}
10006d98:	4760      	bx	ip
10006d9a:	bf00      	nop
10006d9c:	20000231 	.word	0x20000231

10006da0 <____aeabi_ldiv0_veneer>:
10006da0:	b401      	push	{r0}
10006da2:	4802      	ldr	r0, [pc, #8]	; (10006dac <____aeabi_ldiv0_veneer+0xc>)
10006da4:	4684      	mov	ip, r0
10006da6:	bc01      	pop	{r0}
10006da8:	4760      	bx	ip
10006daa:	bf00      	nop
10006dac:	20000da1 	.word	0x20000da1

10006db0 <__reset_non_control_endpoints_veneer>:
10006db0:	b401      	push	{r0}
10006db2:	4802      	ldr	r0, [pc, #8]	; (10006dbc <__reset_non_control_endpoints_veneer+0xc>)
10006db4:	4684      	mov	ip, r0
10006db6:	bc01      	pop	{r0}
10006db8:	4760      	bx	ip
10006dba:	bf00      	nop
10006dbc:	20000395 	.word	0x20000395

10006dc0 <__memcmp_veneer>:
10006dc0:	b401      	push	{r0}
10006dc2:	4802      	ldr	r0, [pc, #8]	; (10006dcc <__memcmp_veneer+0xc>)
10006dc4:	4684      	mov	ip, r0
10006dc6:	bc01      	pop	{r0}
10006dc8:	4760      	bx	ip
10006dca:	bf00      	nop
10006dcc:	20000da5 	.word	0x20000da5

10006dd0 <__e15_is_critical_frame_period_veneer>:
10006dd0:	b401      	push	{r0}
10006dd2:	4802      	ldr	r0, [pc, #8]	; (10006ddc <__e15_is_critical_frame_period_veneer+0xc>)
10006dd4:	4684      	mov	ip, r0
10006dd6:	bc01      	pop	{r0}
10006dd8:	4760      	bx	ip
10006dda:	bf00      	nop
10006ddc:	200009f9 	.word	0x200009f9

10006de0 <____aeabi_idiv0_veneer>:
10006de0:	b401      	push	{r0}
10006de2:	4802      	ldr	r0, [pc, #8]	; (10006dec <____aeabi_idiv0_veneer+0xc>)
10006de4:	4684      	mov	ip, r0
10006de6:	bc01      	pop	{r0}
10006de8:	4760      	bx	ip
10006dea:	bf00      	nop
10006dec:	20000da1 	.word	0x20000da1

10006df0 <__mutex_try_enter_veneer>:
10006df0:	b401      	push	{r0}
10006df2:	4802      	ldr	r0, [pc, #8]	; (10006dfc <__mutex_try_enter_veneer+0xc>)
10006df4:	4684      	mov	ip, r0
10006df6:	bc01      	pop	{r0}
10006df8:	4760      	bx	ip
10006dfa:	bf00      	nop
10006dfc:	200000c1 	.word	0x200000c1

10006e00 <__mutex_enter_timeout_ms_veneer>:
10006e00:	b401      	push	{r0}
10006e02:	4802      	ldr	r0, [pc, #8]	; (10006e0c <__mutex_enter_timeout_ms_veneer+0xc>)
10006e04:	4684      	mov	ip, r0
10006e06:	bc01      	pop	{r0}
10006e08:	4760      	bx	ip
10006e0a:	bf00      	nop
10006e0c:	200001a1 	.word	0x200001a1

10006e10 <__mutex_try_enter_block_until_veneer>:
10006e10:	b401      	push	{r0}
10006e12:	4802      	ldr	r0, [pc, #8]	; (10006e1c <__mutex_try_enter_block_until_veneer+0xc>)
10006e14:	4684      	mov	ip, r0
10006e16:	bc01      	pop	{r0}
10006e18:	4760      	bx	ip
10006e1a:	bf00      	nop
10006e1c:	20000105 	.word	0x20000105

10006e20 <__hw_endpoint_start_next_buffer_veneer>:
10006e20:	b401      	push	{r0}
10006e22:	4802      	ldr	r0, [pc, #8]	; (10006e2c <__hw_endpoint_start_next_buffer_veneer+0xc>)
10006e24:	4684      	mov	ip, r0
10006e26:	bc01      	pop	{r0}
10006e28:	4760      	bx	ip
10006e2a:	bf00      	nop
10006e2c:	20000b75 	.word	0x20000b75

10006e30 <__hw_endpoint_reset_transfer_veneer>:
10006e30:	b401      	push	{r0}
10006e32:	4802      	ldr	r0, [pc, #8]	; (10006e3c <__hw_endpoint_reset_transfer_veneer+0xc>)
10006e34:	4684      	mov	ip, r0
10006e36:	bc01      	pop	{r0}
10006e38:	4760      	bx	ip
10006e3a:	bf00      	nop
10006e3c:	20000b11 	.word	0x20000b11

10006e40 <___hw_endpoint_buffer_control_update32_veneer>:
10006e40:	b401      	push	{r0}
10006e42:	4802      	ldr	r0, [pc, #8]	; (10006e4c <___hw_endpoint_buffer_control_update32_veneer+0xc>)
10006e44:	4684      	mov	ip, r0
10006e46:	bc01      	pop	{r0}
10006e48:	4760      	bx	ip
10006e4a:	bf00      	nop
10006e4c:	20000b1d 	.word	0x20000b1d

10006e50 <__e15_is_bulkin_ep_veneer>:
10006e50:	b401      	push	{r0}
10006e52:	4802      	ldr	r0, [pc, #8]	; (10006e5c <__e15_is_bulkin_ep_veneer+0xc>)
10006e54:	4684      	mov	ip, r0
10006e56:	bc01      	pop	{r0}
10006e58:	4760      	bx	ip
10006e5a:	bf00      	nop
10006e5c:	200009d1 	.word	0x200009d1

Disassembly of section .data:

200000c0 <mutex_try_enter>:
200000c0:	0003      	movs	r3, r0
200000c2:	6800      	ldr	r0, [r0, #0]
200000c4:	f3ef 8c10 	mrs	ip, PRIMASK
200000c8:	b672      	cpsid	i
200000ca:	6802      	ldr	r2, [r0, #0]
200000cc:	2a00      	cmp	r2, #0
200000ce:	d0fc      	beq.n	200000ca <mutex_try_enter+0xa>
200000d0:	f3bf 8f5f 	dmb	sy
200000d4:	2204      	movs	r2, #4
200000d6:	569a      	ldrsb	r2, [r3, r2]
200000d8:	2a00      	cmp	r2, #0
200000da:	db0b      	blt.n	200000f4 <mutex_try_enter+0x34>
200000dc:	2900      	cmp	r1, #0
200000de:	d00f      	beq.n	20000100 <mutex_try_enter+0x40>
200000e0:	2000      	movs	r0, #0
200000e2:	600a      	str	r2, [r1, #0]
200000e4:	681b      	ldr	r3, [r3, #0]
200000e6:	f3bf 8f5f 	dmb	sy
200000ea:	2200      	movs	r2, #0
200000ec:	601a      	str	r2, [r3, #0]
200000ee:	f38c 8810 	msr	PRIMASK, ip
200000f2:	4770      	bx	lr
200000f4:	22d0      	movs	r2, #208	; 0xd0
200000f6:	0612      	lsls	r2, r2, #24
200000f8:	6812      	ldr	r2, [r2, #0]
200000fa:	2001      	movs	r0, #1
200000fc:	711a      	strb	r2, [r3, #4]
200000fe:	e7f1      	b.n	200000e4 <mutex_try_enter+0x24>
20000100:	2000      	movs	r0, #0
20000102:	e7ef      	b.n	200000e4 <mutex_try_enter+0x24>

20000104 <mutex_try_enter_block_until>:
20000104:	b5f0      	push	{r4, r5, r6, r7, lr}
20000106:	46c6      	mov	lr, r8
20000108:	0015      	movs	r5, r2
2000010a:	b500      	push	{lr}
2000010c:	0004      	movs	r4, r0
2000010e:	001e      	movs	r6, r3
20000110:	6802      	ldr	r2, [r0, #0]
20000112:	f3ef 8110 	mrs	r1, PRIMASK
20000116:	b672      	cpsid	i
20000118:	6813      	ldr	r3, [r2, #0]
2000011a:	2b00      	cmp	r3, #0
2000011c:	d0fc      	beq.n	20000118 <mutex_try_enter_block_until+0x14>
2000011e:	f3bf 8f5f 	dmb	sy
20000122:	2304      	movs	r3, #4
20000124:	56e3      	ldrsb	r3, [r4, r3]
20000126:	2b00      	cmp	r3, #0
20000128:	db2d      	blt.n	20000186 <mutex_try_enter_block_until+0x82>
2000012a:	6822      	ldr	r2, [r4, #0]
2000012c:	f3bf 8f5f 	dmb	sy
20000130:	2000      	movs	r0, #0
20000132:	6010      	str	r0, [r2, #0]
20000134:	f381 8810 	msr	PRIMASK, r1
20000138:	22d0      	movs	r2, #208	; 0xd0
2000013a:	0612      	lsls	r2, r2, #24
2000013c:	7812      	ldrb	r2, [r2, #0]
2000013e:	b252      	sxtb	r2, r2
20000140:	4690      	mov	r8, r2
20000142:	429a      	cmp	r2, r3
20000144:	d103      	bne.n	2000014e <mutex_try_enter_block_until+0x4a>
20000146:	2000      	movs	r0, #0
20000148:	bc80      	pop	{r7}
2000014a:	46b8      	mov	r8, r7
2000014c:	bdf0      	pop	{r4, r5, r6, r7, pc}
2000014e:	2700      	movs	r7, #0
20000150:	e00b      	b.n	2000016a <mutex_try_enter_block_until+0x66>
20000152:	6823      	ldr	r3, [r4, #0]
20000154:	f3bf 8f5f 	dmb	sy
20000158:	601f      	str	r7, [r3, #0]
2000015a:	f381 8810 	msr	PRIMASK, r1
2000015e:	0028      	movs	r0, r5
20000160:	0031      	movs	r1, r6
20000162:	f000 fe55 	bl	20000e10 <__best_effort_wfe_or_timeout_veneer>
20000166:	2800      	cmp	r0, #0
20000168:	d1ed      	bne.n	20000146 <mutex_try_enter_block_until+0x42>
2000016a:	6822      	ldr	r2, [r4, #0]
2000016c:	f3ef 8110 	mrs	r1, PRIMASK
20000170:	b672      	cpsid	i
20000172:	6813      	ldr	r3, [r2, #0]
20000174:	2b00      	cmp	r3, #0
20000176:	d0fc      	beq.n	20000172 <mutex_try_enter_block_until+0x6e>
20000178:	f3bf 8f5f 	dmb	sy
2000017c:	7923      	ldrb	r3, [r4, #4]
2000017e:	2b7f      	cmp	r3, #127	; 0x7f
20000180:	d9e7      	bls.n	20000152 <mutex_try_enter_block_until+0x4e>
20000182:	4643      	mov	r3, r8
20000184:	e002      	b.n	2000018c <mutex_try_enter_block_until+0x88>
20000186:	23d0      	movs	r3, #208	; 0xd0
20000188:	061b      	lsls	r3, r3, #24
2000018a:	681b      	ldr	r3, [r3, #0]
2000018c:	7123      	strb	r3, [r4, #4]
2000018e:	6823      	ldr	r3, [r4, #0]
20000190:	f3bf 8f5f 	dmb	sy
20000194:	2200      	movs	r2, #0
20000196:	601a      	str	r2, [r3, #0]
20000198:	f381 8810 	msr	PRIMASK, r1
2000019c:	2001      	movs	r0, #1
2000019e:	e7d3      	b.n	20000148 <mutex_try_enter_block_until+0x44>

200001a0 <mutex_enter_timeout_ms>:
200001a0:	b5f0      	push	{r4, r5, r6, r7, lr}
200001a2:	46c6      	mov	lr, r8
200001a4:	b500      	push	{lr}
200001a6:	000d      	movs	r5, r1
200001a8:	0004      	movs	r4, r0
200001aa:	f000 fe49 	bl	20000e40 <__time_us_64_veneer>
200001ae:	22fa      	movs	r2, #250	; 0xfa
200001b0:	0006      	movs	r6, r0
200001b2:	000f      	movs	r7, r1
200001b4:	2300      	movs	r3, #0
200001b6:	0028      	movs	r0, r5
200001b8:	2100      	movs	r1, #0
200001ba:	0092      	lsls	r2, r2, #2
200001bc:	f000 fe20 	bl	20000e00 <____wrap___aeabi_lmul_veneer>
200001c0:	1836      	adds	r6, r6, r0
200001c2:	414f      	adcs	r7, r1
200001c4:	2f00      	cmp	r7, #0
200001c6:	db2c      	blt.n	20000222 <mutex_enter_timeout_ms+0x82>
200001c8:	23d0      	movs	r3, #208	; 0xd0
200001ca:	061b      	lsls	r3, r3, #24
200001cc:	681b      	ldr	r3, [r3, #0]
200001ce:	2500      	movs	r5, #0
200001d0:	4698      	mov	r8, r3
200001d2:	e00b      	b.n	200001ec <mutex_enter_timeout_ms+0x4c>
200001d4:	6823      	ldr	r3, [r4, #0]
200001d6:	f3bf 8f5f 	dmb	sy
200001da:	601d      	str	r5, [r3, #0]
200001dc:	f381 8810 	msr	PRIMASK, r1
200001e0:	0030      	movs	r0, r6
200001e2:	0039      	movs	r1, r7
200001e4:	f000 fe14 	bl	20000e10 <__best_effort_wfe_or_timeout_veneer>
200001e8:	2800      	cmp	r0, #0
200001ea:	d118      	bne.n	2000021e <mutex_enter_timeout_ms+0x7e>
200001ec:	6822      	ldr	r2, [r4, #0]
200001ee:	f3ef 8110 	mrs	r1, PRIMASK
200001f2:	b672      	cpsid	i
200001f4:	6813      	ldr	r3, [r2, #0]
200001f6:	2b00      	cmp	r3, #0
200001f8:	d0fc      	beq.n	200001f4 <mutex_enter_timeout_ms+0x54>
200001fa:	f3bf 8f5f 	dmb	sy
200001fe:	7923      	ldrb	r3, [r4, #4]
20000200:	2b7f      	cmp	r3, #127	; 0x7f
20000202:	d9e7      	bls.n	200001d4 <mutex_enter_timeout_ms+0x34>
20000204:	4643      	mov	r3, r8
20000206:	7123      	strb	r3, [r4, #4]
20000208:	6823      	ldr	r3, [r4, #0]
2000020a:	f3bf 8f5f 	dmb	sy
2000020e:	2200      	movs	r2, #0
20000210:	601a      	str	r2, [r3, #0]
20000212:	f381 8810 	msr	PRIMASK, r1
20000216:	2001      	movs	r0, #1
20000218:	bc80      	pop	{r7}
2000021a:	46b8      	mov	r8, r7
2000021c:	bdf0      	pop	{r4, r5, r6, r7, pc}
2000021e:	2000      	movs	r0, #0
20000220:	e7fa      	b.n	20000218 <mutex_enter_timeout_ms+0x78>
20000222:	2601      	movs	r6, #1
20000224:	4f01      	ldr	r7, [pc, #4]	; (2000022c <mutex_enter_timeout_ms+0x8c>)
20000226:	4276      	negs	r6, r6
20000228:	e7ce      	b.n	200001c8 <mutex_enter_timeout_ms+0x28>
2000022a:	46c0      	nop			; (mov r8, r8)
2000022c:	7fffffff 	.word	0x7fffffff

20000230 <mutex_exit>:
20000230:	6802      	ldr	r2, [r0, #0]
20000232:	f3ef 8110 	mrs	r1, PRIMASK
20000236:	b672      	cpsid	i
20000238:	6813      	ldr	r3, [r2, #0]
2000023a:	2b00      	cmp	r3, #0
2000023c:	d0fc      	beq.n	20000238 <mutex_exit+0x8>
2000023e:	f3bf 8f5f 	dmb	sy
20000242:	23ff      	movs	r3, #255	; 0xff
20000244:	7103      	strb	r3, [r0, #4]
20000246:	6803      	ldr	r3, [r0, #0]
20000248:	f3bf 8f5f 	dmb	sy
2000024c:	2200      	movs	r2, #0
2000024e:	601a      	str	r2, [r3, #0]
20000250:	f381 8810 	msr	PRIMASK, r1
20000254:	bf40      	sev
20000256:	4770      	bx	lr

20000258 <flash_init_boot2_copyout>:
20000258:	4808      	ldr	r0, [pc, #32]	; (2000027c <flash_init_boot2_copyout+0x24>)
2000025a:	b510      	push	{r4, lr}
2000025c:	7803      	ldrb	r3, [r0, #0]
2000025e:	2b00      	cmp	r3, #0
20000260:	d10a      	bne.n	20000278 <flash_init_boot2_copyout+0x20>
20000262:	2380      	movs	r3, #128	; 0x80
20000264:	4906      	ldr	r1, [pc, #24]	; (20000280 <flash_init_boot2_copyout+0x28>)
20000266:	4a07      	ldr	r2, [pc, #28]	; (20000284 <flash_init_boot2_copyout+0x2c>)
20000268:	055b      	lsls	r3, r3, #21
2000026a:	681c      	ldr	r4, [r3, #0]
2000026c:	50cc      	str	r4, [r1, r3]
2000026e:	3304      	adds	r3, #4
20000270:	4293      	cmp	r3, r2
20000272:	d1fa      	bne.n	2000026a <flash_init_boot2_copyout+0x12>
20000274:	2301      	movs	r3, #1
20000276:	7003      	strb	r3, [r0, #0]
20000278:	bd10      	pop	{r4, pc}
2000027a:	46c0      	nop			; (mov r8, r8)
2000027c:	20001e1f 	.word	0x20001e1f
20000280:	100016d8 	.word	0x100016d8
20000284:	10000100 	.word	0x10000100

20000288 <flash_enable_xip_via_boot2>:
20000288:	b510      	push	{r4, lr}
2000028a:	4b02      	ldr	r3, [pc, #8]	; (20000294 <flash_enable_xip_via_boot2+0xc>)
2000028c:	3301      	adds	r3, #1
2000028e:	4798      	blx	r3
20000290:	bd10      	pop	{r4, pc}
20000292:	46c0      	nop			; (mov r8, r8)
20000294:	200016d8 	.word	0x200016d8

20000298 <flash_cs_force.constprop.0>:
20000298:	4b03      	ldr	r3, [pc, #12]	; (200002a8 <flash_cs_force.constprop.0+0x10>)
2000029a:	681a      	ldr	r2, [r3, #0]
2000029c:	23c0      	movs	r3, #192	; 0xc0
2000029e:	009b      	lsls	r3, r3, #2
200002a0:	4393      	bics	r3, r2
200002a2:	4a02      	ldr	r2, [pc, #8]	; (200002ac <flash_cs_force.constprop.0+0x14>)
200002a4:	6013      	str	r3, [r2, #0]
200002a6:	4770      	bx	lr
200002a8:	4001800c 	.word	0x4001800c
200002ac:	4001900c 	.word	0x4001900c

200002b0 <flash_cs_force.constprop.1>:
200002b0:	4b05      	ldr	r3, [pc, #20]	; (200002c8 <flash_cs_force.constprop.1+0x18>)
200002b2:	681a      	ldr	r2, [r3, #0]
200002b4:	2380      	movs	r3, #128	; 0x80
200002b6:	009b      	lsls	r3, r3, #2
200002b8:	4053      	eors	r3, r2
200002ba:	22c0      	movs	r2, #192	; 0xc0
200002bc:	0092      	lsls	r2, r2, #2
200002be:	4013      	ands	r3, r2
200002c0:	4a02      	ldr	r2, [pc, #8]	; (200002cc <flash_cs_force.constprop.1+0x1c>)
200002c2:	6013      	str	r3, [r2, #0]
200002c4:	4770      	bx	lr
200002c6:	46c0      	nop			; (mov r8, r8)
200002c8:	4001800c 	.word	0x4001800c
200002cc:	4001900c 	.word	0x4001900c

200002d0 <flash_do_cmd>:
200002d0:	2314      	movs	r3, #20
200002d2:	b5f0      	push	{r4, r5, r6, r7, lr}
200002d4:	46d6      	mov	lr, sl
200002d6:	464f      	mov	r7, r9
200002d8:	4646      	mov	r6, r8
200002da:	469a      	mov	sl, r3
200002dc:	4681      	mov	r9, r0
200002de:	8818      	ldrh	r0, [r3, #0]
200002e0:	3304      	adds	r3, #4
200002e2:	b5c0      	push	{r6, r7, lr}
200002e4:	4698      	mov	r8, r3
200002e6:	000e      	movs	r6, r1
200002e8:	881b      	ldrh	r3, [r3, #0]
200002ea:	4927      	ldr	r1, [pc, #156]	; (20000388 <flash_do_cmd+0xb8>)
200002ec:	0014      	movs	r4, r2
200002ee:	4798      	blx	r3
200002f0:	4653      	mov	r3, sl
200002f2:	0007      	movs	r7, r0
200002f4:	8818      	ldrh	r0, [r3, #0]
200002f6:	4643      	mov	r3, r8
200002f8:	4924      	ldr	r1, [pc, #144]	; (2000038c <flash_do_cmd+0xbc>)
200002fa:	881b      	ldrh	r3, [r3, #0]
200002fc:	4798      	blx	r3
200002fe:	4653      	mov	r3, sl
20000300:	0005      	movs	r5, r0
20000302:	8818      	ldrh	r0, [r3, #0]
20000304:	4643      	mov	r3, r8
20000306:	4922      	ldr	r1, [pc, #136]	; (20000390 <flash_do_cmd+0xc0>)
20000308:	881b      	ldrh	r3, [r3, #0]
2000030a:	4798      	blx	r3
2000030c:	4680      	mov	r8, r0
2000030e:	f7ff ffa3 	bl	20000258 <flash_init_boot2_copyout>
20000312:	47b8      	blx	r7
20000314:	47a8      	blx	r5
20000316:	f7ff ffcb 	bl	200002b0 <flash_cs_force.constprop.1>
2000031a:	2c00      	cmp	r4, #0
2000031c:	d01b      	beq.n	20000356 <flash_do_cmd+0x86>
2000031e:	21c0      	movs	r1, #192	; 0xc0
20000320:	0022      	movs	r2, r4
20000322:	2708      	movs	r7, #8
20000324:	2002      	movs	r0, #2
20000326:	0549      	lsls	r1, r1, #21
20000328:	003d      	movs	r5, r7
2000032a:	6a8b      	ldr	r3, [r1, #40]	; 0x28
2000032c:	401d      	ands	r5, r3
2000032e:	4218      	tst	r0, r3
20000330:	d00b      	beq.n	2000034a <flash_do_cmd+0x7a>
20000332:	2c00      	cmp	r4, #0
20000334:	d009      	beq.n	2000034a <flash_do_cmd+0x7a>
20000336:	1b13      	subs	r3, r2, r4
20000338:	2b0d      	cmp	r3, #13
2000033a:	d81f      	bhi.n	2000037c <flash_do_cmd+0xac>
2000033c:	464b      	mov	r3, r9
2000033e:	781b      	ldrb	r3, [r3, #0]
20000340:	3c01      	subs	r4, #1
20000342:	660b      	str	r3, [r1, #96]	; 0x60
20000344:	2301      	movs	r3, #1
20000346:	469c      	mov	ip, r3
20000348:	44e1      	add	r9, ip
2000034a:	0023      	movs	r3, r4
2000034c:	2d00      	cmp	r5, #0
2000034e:	d10c      	bne.n	2000036a <flash_do_cmd+0x9a>
20000350:	4313      	orrs	r3, r2
20000352:	2b00      	cmp	r3, #0
20000354:	d1e8      	bne.n	20000328 <flash_do_cmd+0x58>
20000356:	f7ff ff9f 	bl	20000298 <flash_cs_force.constprop.0>
2000035a:	47c0      	blx	r8
2000035c:	f7ff ff94 	bl	20000288 <flash_enable_xip_via_boot2>
20000360:	bce0      	pop	{r5, r6, r7}
20000362:	46ba      	mov	sl, r7
20000364:	46b1      	mov	r9, r6
20000366:	46a8      	mov	r8, r5
20000368:	bdf0      	pop	{r4, r5, r6, r7, pc}
2000036a:	2a00      	cmp	r2, #0
2000036c:	d0f1      	beq.n	20000352 <flash_do_cmd+0x82>
2000036e:	6e0b      	ldr	r3, [r1, #96]	; 0x60
20000370:	3a01      	subs	r2, #1
20000372:	7033      	strb	r3, [r6, #0]
20000374:	0013      	movs	r3, r2
20000376:	3601      	adds	r6, #1
20000378:	4323      	orrs	r3, r4
2000037a:	e7ea      	b.n	20000352 <flash_do_cmd+0x82>
2000037c:	2d00      	cmp	r5, #0
2000037e:	d0d3      	beq.n	20000328 <flash_do_cmd+0x58>
20000380:	2a00      	cmp	r2, #0
20000382:	d0d1      	beq.n	20000328 <flash_do_cmd+0x58>
20000384:	e7f3      	b.n	2000036e <flash_do_cmd+0x9e>
20000386:	46c0      	nop			; (mov r8, r8)
20000388:	00004649 	.word	0x00004649
2000038c:	00005845 	.word	0x00005845
20000390:	00004346 	.word	0x00004346

20000394 <reset_non_control_endpoints>:
20000394:	2300      	movs	r3, #0
20000396:	4a1c      	ldr	r2, [pc, #112]	; (20000408 <reset_non_control_endpoints+0x74>)
20000398:	b510      	push	{r4, lr}
2000039a:	6093      	str	r3, [r2, #8]
2000039c:	60d3      	str	r3, [r2, #12]
2000039e:	4a1b      	ldr	r2, [pc, #108]	; (2000040c <reset_non_control_endpoints+0x78>)
200003a0:	2100      	movs	r1, #0
200003a2:	6093      	str	r3, [r2, #8]
200003a4:	60d3      	str	r3, [r2, #12]
200003a6:	4a1a      	ldr	r2, [pc, #104]	; (20000410 <reset_non_control_endpoints+0x7c>)
200003a8:	481a      	ldr	r0, [pc, #104]	; (20000414 <reset_non_control_endpoints+0x80>)
200003aa:	6093      	str	r3, [r2, #8]
200003ac:	60d3      	str	r3, [r2, #12]
200003ae:	4a1a      	ldr	r2, [pc, #104]	; (20000418 <reset_non_control_endpoints+0x84>)
200003b0:	6093      	str	r3, [r2, #8]
200003b2:	60d3      	str	r3, [r2, #12]
200003b4:	4a19      	ldr	r2, [pc, #100]	; (2000041c <reset_non_control_endpoints+0x88>)
200003b6:	6093      	str	r3, [r2, #8]
200003b8:	60d3      	str	r3, [r2, #12]
200003ba:	4a19      	ldr	r2, [pc, #100]	; (20000420 <reset_non_control_endpoints+0x8c>)
200003bc:	6093      	str	r3, [r2, #8]
200003be:	60d3      	str	r3, [r2, #12]
200003c0:	4a18      	ldr	r2, [pc, #96]	; (20000424 <reset_non_control_endpoints+0x90>)
200003c2:	6093      	str	r3, [r2, #8]
200003c4:	60d3      	str	r3, [r2, #12]
200003c6:	4a18      	ldr	r2, [pc, #96]	; (20000428 <reset_non_control_endpoints+0x94>)
200003c8:	6093      	str	r3, [r2, #8]
200003ca:	60d3      	str	r3, [r2, #12]
200003cc:	4a17      	ldr	r2, [pc, #92]	; (2000042c <reset_non_control_endpoints+0x98>)
200003ce:	6093      	str	r3, [r2, #8]
200003d0:	60d3      	str	r3, [r2, #12]
200003d2:	4a17      	ldr	r2, [pc, #92]	; (20000430 <reset_non_control_endpoints+0x9c>)
200003d4:	6093      	str	r3, [r2, #8]
200003d6:	60d3      	str	r3, [r2, #12]
200003d8:	4a16      	ldr	r2, [pc, #88]	; (20000434 <reset_non_control_endpoints+0xa0>)
200003da:	6093      	str	r3, [r2, #8]
200003dc:	60d3      	str	r3, [r2, #12]
200003de:	4a16      	ldr	r2, [pc, #88]	; (20000438 <reset_non_control_endpoints+0xa4>)
200003e0:	6093      	str	r3, [r2, #8]
200003e2:	60d3      	str	r3, [r2, #12]
200003e4:	4a15      	ldr	r2, [pc, #84]	; (2000043c <reset_non_control_endpoints+0xa8>)
200003e6:	6093      	str	r3, [r2, #8]
200003e8:	60d3      	str	r3, [r2, #12]
200003ea:	4a15      	ldr	r2, [pc, #84]	; (20000440 <reset_non_control_endpoints+0xac>)
200003ec:	6093      	str	r3, [r2, #8]
200003ee:	60d3      	str	r3, [r2, #12]
200003f0:	4a14      	ldr	r2, [pc, #80]	; (20000444 <reset_non_control_endpoints+0xb0>)
200003f2:	6093      	str	r3, [r2, #8]
200003f4:	60d3      	str	r3, [r2, #12]
200003f6:	22f0      	movs	r2, #240	; 0xf0
200003f8:	0092      	lsls	r2, r2, #2
200003fa:	f000 fd19 	bl	20000e30 <____wrap_memset_veneer>
200003fe:	4b12      	ldr	r3, [pc, #72]	; (20000448 <reset_non_control_endpoints+0xb4>)
20000400:	4a12      	ldr	r2, [pc, #72]	; (2000044c <reset_non_control_endpoints+0xb8>)
20000402:	601a      	str	r2, [r3, #0]
20000404:	bd10      	pop	{r4, pc}
20000406:	46c0      	nop			; (mov r8, r8)
20000408:	50100000 	.word	0x50100000
2000040c:	50100008 	.word	0x50100008
20000410:	50100010 	.word	0x50100010
20000414:	200018c0 	.word	0x200018c0
20000418:	50100018 	.word	0x50100018
2000041c:	50100020 	.word	0x50100020
20000420:	50100028 	.word	0x50100028
20000424:	50100030 	.word	0x50100030
20000428:	50100038 	.word	0x50100038
2000042c:	50100040 	.word	0x50100040
20000430:	50100048 	.word	0x50100048
20000434:	50100050 	.word	0x50100050
20000438:	50100058 	.word	0x50100058
2000043c:	50100060 	.word	0x50100060
20000440:	50100068 	.word	0x50100068
20000444:	50100070 	.word	0x50100070
20000448:	20001c88 	.word	0x20001c88
2000044c:	50100180 	.word	0x50100180

20000450 <hw_handle_buff_status>:
20000450:	b5f0      	push	{r4, r5, r6, r7, lr}
20000452:	4657      	mov	r7, sl
20000454:	46de      	mov	lr, fp
20000456:	464e      	mov	r6, r9
20000458:	4645      	mov	r5, r8
2000045a:	b5e0      	push	{r5, r6, r7, lr}
2000045c:	4b23      	ldr	r3, [pc, #140]	; (200004ec <hw_handle_buff_status+0x9c>)
2000045e:	b087      	sub	sp, #28
20000460:	6d9f      	ldr	r7, [r3, #88]	; 0x58
20000462:	2f00      	cmp	r7, #0
20000464:	d023      	beq.n	200004ae <hw_handle_buff_status+0x5e>
20000466:	4b22      	ldr	r3, [pc, #136]	; (200004f0 <hw_handle_buff_status+0xa0>)
20000468:	2400      	movs	r4, #0
2000046a:	4699      	mov	r9, r3
2000046c:	2301      	movs	r3, #1
2000046e:	4698      	mov	r8, r3
20000470:	4b20      	ldr	r3, [pc, #128]	; (200004f4 <hw_handle_buff_status+0xa4>)
20000472:	2601      	movs	r6, #1
20000474:	469a      	mov	sl, r3
20000476:	e004      	b.n	20000482 <hw_handle_buff_status+0x32>
20000478:	3401      	adds	r4, #1
2000047a:	0076      	lsls	r6, r6, #1
2000047c:	b2e4      	uxtb	r4, r4
2000047e:	2c20      	cmp	r4, #32
20000480:	d015      	beq.n	200004ae <hw_handle_buff_status+0x5e>
20000482:	423e      	tst	r6, r7
20000484:	d0f8      	beq.n	20000478 <hw_handle_buff_status+0x28>
20000486:	464b      	mov	r3, r9
20000488:	659e      	str	r6, [r3, #88]	; 0x58
2000048a:	4643      	mov	r3, r8
2000048c:	0865      	lsrs	r5, r4, #1
2000048e:	006d      	lsls	r5, r5, #1
20000490:	43a3      	bics	r3, r4
20000492:	18ed      	adds	r5, r5, r3
20000494:	016d      	lsls	r5, r5, #5
20000496:	4455      	add	r5, sl
20000498:	0028      	movs	r0, r5
2000049a:	f000 fba1 	bl	20000be0 <hw_endpoint_xfer_continue>
2000049e:	2800      	cmp	r0, #0
200004a0:	d10c      	bne.n	200004bc <hw_handle_buff_status+0x6c>
200004a2:	3401      	adds	r4, #1
200004a4:	43b7      	bics	r7, r6
200004a6:	b2e4      	uxtb	r4, r4
200004a8:	0076      	lsls	r6, r6, #1
200004aa:	2f00      	cmp	r7, #0
200004ac:	d1e7      	bne.n	2000047e <hw_handle_buff_status+0x2e>
200004ae:	b007      	add	sp, #28
200004b0:	bcf0      	pop	{r4, r5, r6, r7}
200004b2:	46bb      	mov	fp, r7
200004b4:	46b2      	mov	sl, r6
200004b6:	46a9      	mov	r9, r5
200004b8:	46a0      	mov	r8, r4
200004ba:	bdf0      	pop	{r4, r5, r6, r7, pc}
200004bc:	78ab      	ldrb	r3, [r5, #2]
200004be:	2208      	movs	r2, #8
200004c0:	469b      	mov	fp, r3
200004c2:	8aeb      	ldrh	r3, [r5, #22]
200004c4:	2100      	movs	r1, #0
200004c6:	a803      	add	r0, sp, #12
200004c8:	9301      	str	r3, [sp, #4]
200004ca:	f000 fcb1 	bl	20000e30 <____wrap_memset_veneer>
200004ce:	2307      	movs	r3, #7
200004d0:	4659      	mov	r1, fp
200004d2:	aa02      	add	r2, sp, #8
200004d4:	7153      	strb	r3, [r2, #5]
200004d6:	9b01      	ldr	r3, [sp, #4]
200004d8:	7211      	strb	r1, [r2, #8]
200004da:	a803      	add	r0, sp, #12
200004dc:	2101      	movs	r1, #1
200004de:	9305      	str	r3, [sp, #20]
200004e0:	f000 fba6 	bl	20000c30 <dcd_event_handler>
200004e4:	0028      	movs	r0, r5
200004e6:	f000 fb13 	bl	20000b10 <hw_endpoint_reset_transfer>
200004ea:	e7da      	b.n	200004a2 <hw_handle_buff_status+0x52>
200004ec:	50110000 	.word	0x50110000
200004f0:	50113000 	.word	0x50113000
200004f4:	20001880 	.word	0x20001880

200004f8 <dcd_rp2040_irq>:
200004f8:	2398      	movs	r3, #152	; 0x98
200004fa:	4ad1      	ldr	r2, [pc, #836]	; (20000840 <dcd_rp2040_irq+0x348>)
200004fc:	b570      	push	{r4, r5, r6, lr}
200004fe:	58d5      	ldr	r5, [r2, r3]
20000500:	2380      	movs	r3, #128	; 0x80
20000502:	002c      	movs	r4, r5
20000504:	029b      	lsls	r3, r3, #10
20000506:	2610      	movs	r6, #16
20000508:	b084      	sub	sp, #16
2000050a:	401c      	ands	r4, r3
2000050c:	421d      	tst	r5, r3
2000050e:	d078      	beq.n	20000602 <dcd_rp2040_irq+0x10a>
20000510:	4bcc      	ldr	r3, [pc, #816]	; (20000844 <dcd_rp2040_irq+0x34c>)
20000512:	4ccd      	ldr	r4, [pc, #820]	; (20000848 <dcd_rp2040_irq+0x350>)
20000514:	6a9a      	ldr	r2, [r3, #40]	; 0x28
20000516:	4bcd      	ldr	r3, [pc, #820]	; (2000084c <dcd_rp2040_irq+0x354>)
20000518:	2600      	movs	r6, #0
2000051a:	601a      	str	r2, [r3, #0]
2000051c:	233b      	movs	r3, #59	; 0x3b
2000051e:	5ce3      	ldrb	r3, [r4, r3]
20000520:	2b02      	cmp	r3, #2
20000522:	d100      	bne.n	20000526 <dcd_rp2040_irq+0x2e>
20000524:	e0d7      	b.n	200006d6 <dcd_rp2040_irq+0x1de>
20000526:	237b      	movs	r3, #123	; 0x7b
20000528:	5ce3      	ldrb	r3, [r4, r3]
2000052a:	2b02      	cmp	r3, #2
2000052c:	d100      	bne.n	20000530 <dcd_rp2040_irq+0x38>
2000052e:	e21a      	b.n	20000966 <dcd_rp2040_irq+0x46e>
20000530:	23bb      	movs	r3, #187	; 0xbb
20000532:	5ce3      	ldrb	r3, [r4, r3]
20000534:	2b02      	cmp	r3, #2
20000536:	d100      	bne.n	2000053a <dcd_rp2040_irq+0x42>
20000538:	e203      	b.n	20000942 <dcd_rp2040_irq+0x44a>
2000053a:	23fb      	movs	r3, #251	; 0xfb
2000053c:	5ce3      	ldrb	r3, [r4, r3]
2000053e:	2b02      	cmp	r3, #2
20000540:	d100      	bne.n	20000544 <dcd_rp2040_irq+0x4c>
20000542:	e1ec      	b.n	2000091e <dcd_rp2040_irq+0x426>
20000544:	233c      	movs	r3, #60	; 0x3c
20000546:	33ff      	adds	r3, #255	; 0xff
20000548:	5ce3      	ldrb	r3, [r4, r3]
2000054a:	2b02      	cmp	r3, #2
2000054c:	d100      	bne.n	20000550 <dcd_rp2040_irq+0x58>
2000054e:	e1d1      	b.n	200008f4 <dcd_rp2040_irq+0x3fc>
20000550:	237c      	movs	r3, #124	; 0x7c
20000552:	33ff      	adds	r3, #255	; 0xff
20000554:	5ce3      	ldrb	r3, [r4, r3]
20000556:	2b02      	cmp	r3, #2
20000558:	d100      	bne.n	2000055c <dcd_rp2040_irq+0x64>
2000055a:	e1b6      	b.n	200008ca <dcd_rp2040_irq+0x3d2>
2000055c:	23bc      	movs	r3, #188	; 0xbc
2000055e:	33ff      	adds	r3, #255	; 0xff
20000560:	5ce3      	ldrb	r3, [r4, r3]
20000562:	2b02      	cmp	r3, #2
20000564:	d100      	bne.n	20000568 <dcd_rp2040_irq+0x70>
20000566:	e19b      	b.n	200008a0 <dcd_rp2040_irq+0x3a8>
20000568:	23fc      	movs	r3, #252	; 0xfc
2000056a:	33ff      	adds	r3, #255	; 0xff
2000056c:	5ce3      	ldrb	r3, [r4, r3]
2000056e:	2b02      	cmp	r3, #2
20000570:	d100      	bne.n	20000574 <dcd_rp2040_irq+0x7c>
20000572:	e14f      	b.n	20000814 <dcd_rp2040_irq+0x31c>
20000574:	4bb6      	ldr	r3, [pc, #728]	; (20000850 <dcd_rp2040_irq+0x358>)
20000576:	5ce3      	ldrb	r3, [r4, r3]
20000578:	2b02      	cmp	r3, #2
2000057a:	d100      	bne.n	2000057e <dcd_rp2040_irq+0x86>
2000057c:	e136      	b.n	200007ec <dcd_rp2040_irq+0x2f4>
2000057e:	4bb5      	ldr	r3, [pc, #724]	; (20000854 <dcd_rp2040_irq+0x35c>)
20000580:	5ce3      	ldrb	r3, [r4, r3]
20000582:	2b02      	cmp	r3, #2
20000584:	d100      	bne.n	20000588 <dcd_rp2040_irq+0x90>
20000586:	e11d      	b.n	200007c4 <dcd_rp2040_irq+0x2cc>
20000588:	4bb3      	ldr	r3, [pc, #716]	; (20000858 <dcd_rp2040_irq+0x360>)
2000058a:	5ce3      	ldrb	r3, [r4, r3]
2000058c:	2b02      	cmp	r3, #2
2000058e:	d100      	bne.n	20000592 <dcd_rp2040_irq+0x9a>
20000590:	e104      	b.n	2000079c <dcd_rp2040_irq+0x2a4>
20000592:	4bb2      	ldr	r3, [pc, #712]	; (2000085c <dcd_rp2040_irq+0x364>)
20000594:	5ce3      	ldrb	r3, [r4, r3]
20000596:	2b02      	cmp	r3, #2
20000598:	d100      	bne.n	2000059c <dcd_rp2040_irq+0xa4>
2000059a:	e0eb      	b.n	20000774 <dcd_rp2040_irq+0x27c>
2000059c:	4bb0      	ldr	r3, [pc, #704]	; (20000860 <dcd_rp2040_irq+0x368>)
2000059e:	5ce3      	ldrb	r3, [r4, r3]
200005a0:	2b02      	cmp	r3, #2
200005a2:	d100      	bne.n	200005a6 <dcd_rp2040_irq+0xae>
200005a4:	e0d2      	b.n	2000074c <dcd_rp2040_irq+0x254>
200005a6:	4baf      	ldr	r3, [pc, #700]	; (20000864 <dcd_rp2040_irq+0x36c>)
200005a8:	5ce3      	ldrb	r3, [r4, r3]
200005aa:	2b02      	cmp	r3, #2
200005ac:	d100      	bne.n	200005b0 <dcd_rp2040_irq+0xb8>
200005ae:	e0b9      	b.n	20000724 <dcd_rp2040_irq+0x22c>
200005b0:	4bad      	ldr	r3, [pc, #692]	; (20000868 <dcd_rp2040_irq+0x370>)
200005b2:	5ce3      	ldrb	r3, [r4, r3]
200005b4:	2b02      	cmp	r3, #2
200005b6:	d100      	bne.n	200005ba <dcd_rp2040_irq+0xc2>
200005b8:	e09e      	b.n	200006f8 <dcd_rp2040_irq+0x200>
200005ba:	4bac      	ldr	r3, [pc, #688]	; (2000086c <dcd_rp2040_irq+0x374>)
200005bc:	5ce3      	ldrb	r3, [r4, r3]
200005be:	2b02      	cmp	r3, #2
200005c0:	d100      	bne.n	200005c4 <dcd_rp2040_irq+0xcc>
200005c2:	e1e2      	b.n	2000098a <dcd_rp2040_irq+0x492>
200005c4:	2e00      	cmp	r6, #0
200005c6:	d108      	bne.n	200005da <dcd_rp2040_irq+0xe2>
200005c8:	4ba9      	ldr	r3, [pc, #676]	; (20000870 <dcd_rp2040_irq+0x378>)
200005ca:	781b      	ldrb	r3, [r3, #0]
200005cc:	2b00      	cmp	r3, #0
200005ce:	d104      	bne.n	200005da <dcd_rp2040_irq+0xe2>
200005d0:	2180      	movs	r1, #128	; 0x80
200005d2:	4aa8      	ldr	r2, [pc, #672]	; (20000874 <dcd_rp2040_irq+0x37c>)
200005d4:	3390      	adds	r3, #144	; 0x90
200005d6:	0289      	lsls	r1, r1, #10
200005d8:	50d1      	str	r1, [r2, r3]
200005da:	ae01      	add	r6, sp, #4
200005dc:	4b98      	ldr	r3, [pc, #608]	; (20000840 <dcd_rp2040_irq+0x348>)
200005de:	220c      	movs	r2, #12
200005e0:	2100      	movs	r1, #0
200005e2:	0030      	movs	r0, r6
200005e4:	6c9c      	ldr	r4, [r3, #72]	; 0x48
200005e6:	f000 fc23 	bl	20000e30 <____wrap_memset_veneer>
200005ea:	2303      	movs	r3, #3
200005ec:	0564      	lsls	r4, r4, #21
200005ee:	0d64      	lsrs	r4, r4, #21
200005f0:	7073      	strb	r3, [r6, #1]
200005f2:	0030      	movs	r0, r6
200005f4:	9402      	str	r4, [sp, #8]
200005f6:	2101      	movs	r1, #1
200005f8:	2480      	movs	r4, #128	; 0x80
200005fa:	f000 fb19 	bl	20000c30 <dcd_event_handler>
200005fe:	4e9e      	ldr	r6, [pc, #632]	; (20000878 <dcd_rp2040_irq+0x380>)
20000600:	02a4      	lsls	r4, r4, #10
20000602:	06eb      	lsls	r3, r5, #27
20000604:	d463      	bmi.n	200006ce <dcd_rp2040_irq+0x1d6>
20000606:	2380      	movs	r3, #128	; 0x80
20000608:	025b      	lsls	r3, r3, #9
2000060a:	421d      	tst	r5, r3
2000060c:	d014      	beq.n	20000638 <dcd_rp2040_irq+0x140>
2000060e:	2201      	movs	r2, #1
20000610:	2123      	movs	r1, #35	; 0x23
20000612:	431c      	orrs	r4, r3
20000614:	4b8c      	ldr	r3, [pc, #560]	; (20000848 <dcd_rp2040_irq+0x350>)
20000616:	545a      	strb	r2, [r3, r1]
20000618:	70da      	strb	r2, [r3, #3]
2000061a:	23c0      	movs	r3, #192	; 0xc0
2000061c:	4a97      	ldr	r2, [pc, #604]	; (2000087c <dcd_rp2040_irq+0x384>)
2000061e:	00db      	lsls	r3, r3, #3
20000620:	9301      	str	r3, [sp, #4]
20000622:	ab02      	add	r3, sp, #8
20000624:	ca03      	ldmia	r2!, {r0, r1}
20000626:	c303      	stmia	r3!, {r0, r1}
20000628:	2101      	movs	r1, #1
2000062a:	a801      	add	r0, sp, #4
2000062c:	f000 fb00 	bl	20000c30 <dcd_event_handler>
20000630:	2280      	movs	r2, #128	; 0x80
20000632:	4b90      	ldr	r3, [pc, #576]	; (20000874 <dcd_rp2040_irq+0x37c>)
20000634:	0292      	lsls	r2, r2, #10
20000636:	651a      	str	r2, [r3, #80]	; 0x50
20000638:	2380      	movs	r3, #128	; 0x80
2000063a:	015b      	lsls	r3, r3, #5
2000063c:	421d      	tst	r5, r3
2000063e:	d12f      	bne.n	200006a0 <dcd_rp2040_irq+0x1a8>
20000640:	2380      	movs	r3, #128	; 0x80
20000642:	01db      	lsls	r3, r3, #7
20000644:	421d      	tst	r5, r3
20000646:	d11a      	bne.n	2000067e <dcd_rp2040_irq+0x186>
20000648:	2380      	movs	r3, #128	; 0x80
2000064a:	021b      	lsls	r3, r3, #8
2000064c:	421d      	tst	r5, r3
2000064e:	d104      	bne.n	2000065a <dcd_rp2040_irq+0x162>
20000650:	42ac      	cmp	r4, r5
20000652:	d000      	beq.n	20000656 <dcd_rp2040_irq+0x15e>
20000654:	e1b3      	b.n	200009be <dcd_rp2040_irq+0x4c6>
20000656:	b004      	add	sp, #16
20000658:	bd70      	pop	{r4, r5, r6, pc}
2000065a:	ae01      	add	r6, sp, #4
2000065c:	220c      	movs	r2, #12
2000065e:	2100      	movs	r1, #0
20000660:	0030      	movs	r0, r6
20000662:	431c      	orrs	r4, r3
20000664:	f000 fbe4 	bl	20000e30 <____wrap_memset_veneer>
20000668:	2305      	movs	r3, #5
2000066a:	2101      	movs	r1, #1
2000066c:	7073      	strb	r3, [r6, #1]
2000066e:	0030      	movs	r0, r6
20000670:	f000 fade 	bl	20000c30 <dcd_event_handler>
20000674:	2280      	movs	r2, #128	; 0x80
20000676:	4b7f      	ldr	r3, [pc, #508]	; (20000874 <dcd_rp2040_irq+0x37c>)
20000678:	0112      	lsls	r2, r2, #4
2000067a:	651a      	str	r2, [r3, #80]	; 0x50
2000067c:	e7e8      	b.n	20000650 <dcd_rp2040_irq+0x158>
2000067e:	ae01      	add	r6, sp, #4
20000680:	220c      	movs	r2, #12
20000682:	2100      	movs	r1, #0
20000684:	0030      	movs	r0, r6
20000686:	431c      	orrs	r4, r3
20000688:	f000 fbd2 	bl	20000e30 <____wrap_memset_veneer>
2000068c:	2304      	movs	r3, #4
2000068e:	2101      	movs	r1, #1
20000690:	7073      	strb	r3, [r6, #1]
20000692:	0030      	movs	r0, r6
20000694:	f000 facc 	bl	20000c30 <dcd_event_handler>
20000698:	2210      	movs	r2, #16
2000069a:	4b76      	ldr	r3, [pc, #472]	; (20000874 <dcd_rp2040_irq+0x37c>)
2000069c:	651a      	str	r2, [r3, #80]	; 0x50
2000069e:	e7d3      	b.n	20000648 <dcd_rp2040_irq+0x150>
200006a0:	2200      	movs	r2, #0
200006a2:	431c      	orrs	r4, r3
200006a4:	4b66      	ldr	r3, [pc, #408]	; (20000840 <dcd_rp2040_irq+0x348>)
200006a6:	ae01      	add	r6, sp, #4
200006a8:	601a      	str	r2, [r3, #0]
200006aa:	f7ff fe73 	bl	20000394 <reset_non_control_endpoints>
200006ae:	220c      	movs	r2, #12
200006b0:	2100      	movs	r1, #0
200006b2:	0030      	movs	r0, r6
200006b4:	f000 fbbc 	bl	20000e30 <____wrap_memset_veneer>
200006b8:	2301      	movs	r3, #1
200006ba:	2101      	movs	r1, #1
200006bc:	7073      	strb	r3, [r6, #1]
200006be:	0030      	movs	r0, r6
200006c0:	f000 fab6 	bl	20000c30 <dcd_event_handler>
200006c4:	2280      	movs	r2, #128	; 0x80
200006c6:	4b6b      	ldr	r3, [pc, #428]	; (20000874 <dcd_rp2040_irq+0x37c>)
200006c8:	0312      	lsls	r2, r2, #12
200006ca:	651a      	str	r2, [r3, #80]	; 0x50
200006cc:	e7b8      	b.n	20000640 <dcd_rp2040_irq+0x148>
200006ce:	f7ff febf 	bl	20000450 <hw_handle_buff_status>
200006d2:	0034      	movs	r4, r6
200006d4:	e797      	b.n	20000606 <dcd_rp2040_irq+0x10e>
200006d6:	3338      	adds	r3, #56	; 0x38
200006d8:	5ce6      	ldrb	r6, [r4, r3]
200006da:	2e00      	cmp	r6, #0
200006dc:	d100      	bne.n	200006e0 <dcd_rp2040_irq+0x1e8>
200006de:	e722      	b.n	20000526 <dcd_rp2040_irq+0x2e>
200006e0:	3302      	adds	r3, #2
200006e2:	5ce2      	ldrb	r2, [r4, r3]
200006e4:	2a00      	cmp	r2, #0
200006e6:	d100      	bne.n	200006ea <dcd_rp2040_irq+0x1f2>
200006e8:	e71d      	b.n	20000526 <dcd_rp2040_irq+0x2e>
200006ea:	2200      	movs	r2, #0
200006ec:	0020      	movs	r0, r4
200006ee:	54e2      	strb	r2, [r4, r3]
200006f0:	3020      	adds	r0, #32
200006f2:	f000 fa3f 	bl	20000b74 <hw_endpoint_start_next_buffer>
200006f6:	e716      	b.n	20000526 <dcd_rp2040_irq+0x2e>
200006f8:	4b61      	ldr	r3, [pc, #388]	; (20000880 <dcd_rp2040_irq+0x388>)
200006fa:	5ce3      	ldrb	r3, [r4, r3]
200006fc:	2b00      	cmp	r3, #0
200006fe:	d100      	bne.n	20000702 <dcd_rp2040_irq+0x20a>
20000700:	e75b      	b.n	200005ba <dcd_rp2040_irq+0xc2>
20000702:	23ef      	movs	r3, #239	; 0xef
20000704:	009b      	lsls	r3, r3, #2
20000706:	5ce2      	ldrb	r2, [r4, r3]
20000708:	2a00      	cmp	r2, #0
2000070a:	d000      	beq.n	2000070e <dcd_rp2040_irq+0x216>
2000070c:	e14f      	b.n	200009ae <dcd_rp2040_irq+0x4b6>
2000070e:	4b57      	ldr	r3, [pc, #348]	; (2000086c <dcd_rp2040_irq+0x374>)
20000710:	5ce3      	ldrb	r3, [r4, r3]
20000712:	2b02      	cmp	r3, #2
20000714:	d000      	beq.n	20000718 <dcd_rp2040_irq+0x220>
20000716:	e760      	b.n	200005da <dcd_rp2040_irq+0xe2>
20000718:	4b5a      	ldr	r3, [pc, #360]	; (20000884 <dcd_rp2040_irq+0x38c>)
2000071a:	5ce3      	ldrb	r3, [r4, r3]
2000071c:	2b00      	cmp	r3, #0
2000071e:	d000      	beq.n	20000722 <dcd_rp2040_irq+0x22a>
20000720:	e138      	b.n	20000994 <dcd_rp2040_irq+0x49c>
20000722:	e75a      	b.n	200005da <dcd_rp2040_irq+0xe2>
20000724:	4b58      	ldr	r3, [pc, #352]	; (20000888 <dcd_rp2040_irq+0x390>)
20000726:	5ce3      	ldrb	r3, [r4, r3]
20000728:	2b00      	cmp	r3, #0
2000072a:	d100      	bne.n	2000072e <dcd_rp2040_irq+0x236>
2000072c:	e740      	b.n	200005b0 <dcd_rp2040_irq+0xb8>
2000072e:	22df      	movs	r2, #223	; 0xdf
20000730:	0092      	lsls	r2, r2, #2
20000732:	5ca1      	ldrb	r1, [r4, r2]
20000734:	001e      	movs	r6, r3
20000736:	2900      	cmp	r1, #0
20000738:	d100      	bne.n	2000073c <dcd_rp2040_irq+0x244>
2000073a:	e739      	b.n	200005b0 <dcd_rp2040_irq+0xb8>
2000073c:	2300      	movs	r3, #0
2000073e:	54a3      	strb	r3, [r4, r2]
20000740:	23d8      	movs	r3, #216	; 0xd8
20000742:	009b      	lsls	r3, r3, #2
20000744:	18e0      	adds	r0, r4, r3
20000746:	f000 fa15 	bl	20000b74 <hw_endpoint_start_next_buffer>
2000074a:	e731      	b.n	200005b0 <dcd_rp2040_irq+0xb8>
2000074c:	4b4f      	ldr	r3, [pc, #316]	; (2000088c <dcd_rp2040_irq+0x394>)
2000074e:	5ce3      	ldrb	r3, [r4, r3]
20000750:	2b00      	cmp	r3, #0
20000752:	d100      	bne.n	20000756 <dcd_rp2040_irq+0x25e>
20000754:	e727      	b.n	200005a6 <dcd_rp2040_irq+0xae>
20000756:	22cf      	movs	r2, #207	; 0xcf
20000758:	0092      	lsls	r2, r2, #2
2000075a:	5ca1      	ldrb	r1, [r4, r2]
2000075c:	001e      	movs	r6, r3
2000075e:	2900      	cmp	r1, #0
20000760:	d100      	bne.n	20000764 <dcd_rp2040_irq+0x26c>
20000762:	e720      	b.n	200005a6 <dcd_rp2040_irq+0xae>
20000764:	2300      	movs	r3, #0
20000766:	54a3      	strb	r3, [r4, r2]
20000768:	23c8      	movs	r3, #200	; 0xc8
2000076a:	009b      	lsls	r3, r3, #2
2000076c:	18e0      	adds	r0, r4, r3
2000076e:	f000 fa01 	bl	20000b74 <hw_endpoint_start_next_buffer>
20000772:	e718      	b.n	200005a6 <dcd_rp2040_irq+0xae>
20000774:	4b46      	ldr	r3, [pc, #280]	; (20000890 <dcd_rp2040_irq+0x398>)
20000776:	5ce3      	ldrb	r3, [r4, r3]
20000778:	2b00      	cmp	r3, #0
2000077a:	d100      	bne.n	2000077e <dcd_rp2040_irq+0x286>
2000077c:	e70e      	b.n	2000059c <dcd_rp2040_irq+0xa4>
2000077e:	22bf      	movs	r2, #191	; 0xbf
20000780:	0092      	lsls	r2, r2, #2
20000782:	5ca1      	ldrb	r1, [r4, r2]
20000784:	001e      	movs	r6, r3
20000786:	2900      	cmp	r1, #0
20000788:	d100      	bne.n	2000078c <dcd_rp2040_irq+0x294>
2000078a:	e707      	b.n	2000059c <dcd_rp2040_irq+0xa4>
2000078c:	2300      	movs	r3, #0
2000078e:	54a3      	strb	r3, [r4, r2]
20000790:	23b8      	movs	r3, #184	; 0xb8
20000792:	009b      	lsls	r3, r3, #2
20000794:	18e0      	adds	r0, r4, r3
20000796:	f000 f9ed 	bl	20000b74 <hw_endpoint_start_next_buffer>
2000079a:	e6ff      	b.n	2000059c <dcd_rp2040_irq+0xa4>
2000079c:	4b3d      	ldr	r3, [pc, #244]	; (20000894 <dcd_rp2040_irq+0x39c>)
2000079e:	5ce3      	ldrb	r3, [r4, r3]
200007a0:	2b00      	cmp	r3, #0
200007a2:	d100      	bne.n	200007a6 <dcd_rp2040_irq+0x2ae>
200007a4:	e6f5      	b.n	20000592 <dcd_rp2040_irq+0x9a>
200007a6:	22af      	movs	r2, #175	; 0xaf
200007a8:	0092      	lsls	r2, r2, #2
200007aa:	5ca1      	ldrb	r1, [r4, r2]
200007ac:	001e      	movs	r6, r3
200007ae:	2900      	cmp	r1, #0
200007b0:	d100      	bne.n	200007b4 <dcd_rp2040_irq+0x2bc>
200007b2:	e6ee      	b.n	20000592 <dcd_rp2040_irq+0x9a>
200007b4:	2300      	movs	r3, #0
200007b6:	54a3      	strb	r3, [r4, r2]
200007b8:	23a8      	movs	r3, #168	; 0xa8
200007ba:	009b      	lsls	r3, r3, #2
200007bc:	18e0      	adds	r0, r4, r3
200007be:	f000 f9d9 	bl	20000b74 <hw_endpoint_start_next_buffer>
200007c2:	e6e6      	b.n	20000592 <dcd_rp2040_irq+0x9a>
200007c4:	4b34      	ldr	r3, [pc, #208]	; (20000898 <dcd_rp2040_irq+0x3a0>)
200007c6:	5ce3      	ldrb	r3, [r4, r3]
200007c8:	2b00      	cmp	r3, #0
200007ca:	d100      	bne.n	200007ce <dcd_rp2040_irq+0x2d6>
200007cc:	e6dc      	b.n	20000588 <dcd_rp2040_irq+0x90>
200007ce:	229f      	movs	r2, #159	; 0x9f
200007d0:	0092      	lsls	r2, r2, #2
200007d2:	5ca1      	ldrb	r1, [r4, r2]
200007d4:	001e      	movs	r6, r3
200007d6:	2900      	cmp	r1, #0
200007d8:	d100      	bne.n	200007dc <dcd_rp2040_irq+0x2e4>
200007da:	e6d5      	b.n	20000588 <dcd_rp2040_irq+0x90>
200007dc:	2300      	movs	r3, #0
200007de:	54a3      	strb	r3, [r4, r2]
200007e0:	2398      	movs	r3, #152	; 0x98
200007e2:	009b      	lsls	r3, r3, #2
200007e4:	18e0      	adds	r0, r4, r3
200007e6:	f000 f9c5 	bl	20000b74 <hw_endpoint_start_next_buffer>
200007ea:	e6cd      	b.n	20000588 <dcd_rp2040_irq+0x90>
200007ec:	4b2b      	ldr	r3, [pc, #172]	; (2000089c <dcd_rp2040_irq+0x3a4>)
200007ee:	5ce3      	ldrb	r3, [r4, r3]
200007f0:	2b00      	cmp	r3, #0
200007f2:	d100      	bne.n	200007f6 <dcd_rp2040_irq+0x2fe>
200007f4:	e6c3      	b.n	2000057e <dcd_rp2040_irq+0x86>
200007f6:	228f      	movs	r2, #143	; 0x8f
200007f8:	0092      	lsls	r2, r2, #2
200007fa:	5ca1      	ldrb	r1, [r4, r2]
200007fc:	001e      	movs	r6, r3
200007fe:	2900      	cmp	r1, #0
20000800:	d100      	bne.n	20000804 <dcd_rp2040_irq+0x30c>
20000802:	e6bc      	b.n	2000057e <dcd_rp2040_irq+0x86>
20000804:	2300      	movs	r3, #0
20000806:	54a3      	strb	r3, [r4, r2]
20000808:	2388      	movs	r3, #136	; 0x88
2000080a:	009b      	lsls	r3, r3, #2
2000080c:	18e0      	adds	r0, r4, r3
2000080e:	f000 f9b1 	bl	20000b74 <hw_endpoint_start_next_buffer>
20000812:	e6b4      	b.n	2000057e <dcd_rp2040_irq+0x86>
20000814:	33f9      	adds	r3, #249	; 0xf9
20000816:	33ff      	adds	r3, #255	; 0xff
20000818:	5ce3      	ldrb	r3, [r4, r3]
2000081a:	2b00      	cmp	r3, #0
2000081c:	d100      	bne.n	20000820 <dcd_rp2040_irq+0x328>
2000081e:	e6a9      	b.n	20000574 <dcd_rp2040_irq+0x7c>
20000820:	22fe      	movs	r2, #254	; 0xfe
20000822:	0052      	lsls	r2, r2, #1
20000824:	5ca1      	ldrb	r1, [r4, r2]
20000826:	001e      	movs	r6, r3
20000828:	2900      	cmp	r1, #0
2000082a:	d100      	bne.n	2000082e <dcd_rp2040_irq+0x336>
2000082c:	e6a2      	b.n	20000574 <dcd_rp2040_irq+0x7c>
2000082e:	0020      	movs	r0, r4
20000830:	2300      	movs	r3, #0
20000832:	30e1      	adds	r0, #225	; 0xe1
20000834:	54a3      	strb	r3, [r4, r2]
20000836:	30ff      	adds	r0, #255	; 0xff
20000838:	f000 f99c 	bl	20000b74 <hw_endpoint_start_next_buffer>
2000083c:	e69a      	b.n	20000574 <dcd_rp2040_irq+0x7c>
2000083e:	46c0      	nop			; (mov r8, r8)
20000840:	50110000 	.word	0x50110000
20000844:	40054000 	.word	0x40054000
20000848:	20001880 	.word	0x20001880
2000084c:	20001878 	.word	0x20001878
20000850:	0000023b 	.word	0x0000023b
20000854:	0000027b 	.word	0x0000027b
20000858:	000002bb 	.word	0x000002bb
2000085c:	000002fb 	.word	0x000002fb
20000860:	0000033b 	.word	0x0000033b
20000864:	0000037b 	.word	0x0000037b
20000868:	000003bb 	.word	0x000003bb
2000086c:	000003fb 	.word	0x000003fb
20000870:	20001e1e 	.word	0x20001e1e
20000874:	50113000 	.word	0x50113000
20000878:	00020010 	.word	0x00020010
2000087c:	50100000 	.word	0x50100000
20000880:	000003ba 	.word	0x000003ba
20000884:	000003fa 	.word	0x000003fa
20000888:	0000037a 	.word	0x0000037a
2000088c:	0000033a 	.word	0x0000033a
20000890:	000002fa 	.word	0x000002fa
20000894:	000002ba 	.word	0x000002ba
20000898:	0000027a 	.word	0x0000027a
2000089c:	0000023a 	.word	0x0000023a
200008a0:	33b9      	adds	r3, #185	; 0xb9
200008a2:	33ff      	adds	r3, #255	; 0xff
200008a4:	5ce3      	ldrb	r3, [r4, r3]
200008a6:	2b00      	cmp	r3, #0
200008a8:	d100      	bne.n	200008ac <dcd_rp2040_irq+0x3b4>
200008aa:	e65d      	b.n	20000568 <dcd_rp2040_irq+0x70>
200008ac:	22de      	movs	r2, #222	; 0xde
200008ae:	0052      	lsls	r2, r2, #1
200008b0:	5ca1      	ldrb	r1, [r4, r2]
200008b2:	001e      	movs	r6, r3
200008b4:	2900      	cmp	r1, #0
200008b6:	d100      	bne.n	200008ba <dcd_rp2040_irq+0x3c2>
200008b8:	e656      	b.n	20000568 <dcd_rp2040_irq+0x70>
200008ba:	0020      	movs	r0, r4
200008bc:	2300      	movs	r3, #0
200008be:	30a1      	adds	r0, #161	; 0xa1
200008c0:	54a3      	strb	r3, [r4, r2]
200008c2:	30ff      	adds	r0, #255	; 0xff
200008c4:	f000 f956 	bl	20000b74 <hw_endpoint_start_next_buffer>
200008c8:	e64e      	b.n	20000568 <dcd_rp2040_irq+0x70>
200008ca:	3379      	adds	r3, #121	; 0x79
200008cc:	33ff      	adds	r3, #255	; 0xff
200008ce:	5ce3      	ldrb	r3, [r4, r3]
200008d0:	2b00      	cmp	r3, #0
200008d2:	d100      	bne.n	200008d6 <dcd_rp2040_irq+0x3de>
200008d4:	e642      	b.n	2000055c <dcd_rp2040_irq+0x64>
200008d6:	22be      	movs	r2, #190	; 0xbe
200008d8:	0052      	lsls	r2, r2, #1
200008da:	5ca1      	ldrb	r1, [r4, r2]
200008dc:	001e      	movs	r6, r3
200008de:	2900      	cmp	r1, #0
200008e0:	d100      	bne.n	200008e4 <dcd_rp2040_irq+0x3ec>
200008e2:	e63b      	b.n	2000055c <dcd_rp2040_irq+0x64>
200008e4:	0020      	movs	r0, r4
200008e6:	2300      	movs	r3, #0
200008e8:	3061      	adds	r0, #97	; 0x61
200008ea:	54a3      	strb	r3, [r4, r2]
200008ec:	30ff      	adds	r0, #255	; 0xff
200008ee:	f000 f941 	bl	20000b74 <hw_endpoint_start_next_buffer>
200008f2:	e633      	b.n	2000055c <dcd_rp2040_irq+0x64>
200008f4:	3339      	adds	r3, #57	; 0x39
200008f6:	33ff      	adds	r3, #255	; 0xff
200008f8:	5ce3      	ldrb	r3, [r4, r3]
200008fa:	2b00      	cmp	r3, #0
200008fc:	d100      	bne.n	20000900 <dcd_rp2040_irq+0x408>
200008fe:	e627      	b.n	20000550 <dcd_rp2040_irq+0x58>
20000900:	229e      	movs	r2, #158	; 0x9e
20000902:	0052      	lsls	r2, r2, #1
20000904:	5ca1      	ldrb	r1, [r4, r2]
20000906:	001e      	movs	r6, r3
20000908:	2900      	cmp	r1, #0
2000090a:	d100      	bne.n	2000090e <dcd_rp2040_irq+0x416>
2000090c:	e620      	b.n	20000550 <dcd_rp2040_irq+0x58>
2000090e:	0020      	movs	r0, r4
20000910:	2300      	movs	r3, #0
20000912:	3021      	adds	r0, #33	; 0x21
20000914:	54a3      	strb	r3, [r4, r2]
20000916:	30ff      	adds	r0, #255	; 0xff
20000918:	f000 f92c 	bl	20000b74 <hw_endpoint_start_next_buffer>
2000091c:	e618      	b.n	20000550 <dcd_rp2040_irq+0x58>
2000091e:	33f8      	adds	r3, #248	; 0xf8
20000920:	5ce3      	ldrb	r3, [r4, r3]
20000922:	2b00      	cmp	r3, #0
20000924:	d100      	bne.n	20000928 <dcd_rp2040_irq+0x430>
20000926:	e60d      	b.n	20000544 <dcd_rp2040_irq+0x4c>
20000928:	22fc      	movs	r2, #252	; 0xfc
2000092a:	5ca1      	ldrb	r1, [r4, r2]
2000092c:	001e      	movs	r6, r3
2000092e:	2900      	cmp	r1, #0
20000930:	d100      	bne.n	20000934 <dcd_rp2040_irq+0x43c>
20000932:	e607      	b.n	20000544 <dcd_rp2040_irq+0x4c>
20000934:	2300      	movs	r3, #0
20000936:	0020      	movs	r0, r4
20000938:	54a3      	strb	r3, [r4, r2]
2000093a:	30e0      	adds	r0, #224	; 0xe0
2000093c:	f000 f91a 	bl	20000b74 <hw_endpoint_start_next_buffer>
20000940:	e600      	b.n	20000544 <dcd_rp2040_irq+0x4c>
20000942:	33b8      	adds	r3, #184	; 0xb8
20000944:	5ce3      	ldrb	r3, [r4, r3]
20000946:	2b00      	cmp	r3, #0
20000948:	d100      	bne.n	2000094c <dcd_rp2040_irq+0x454>
2000094a:	e5f6      	b.n	2000053a <dcd_rp2040_irq+0x42>
2000094c:	22bc      	movs	r2, #188	; 0xbc
2000094e:	5ca1      	ldrb	r1, [r4, r2]
20000950:	001e      	movs	r6, r3
20000952:	2900      	cmp	r1, #0
20000954:	d100      	bne.n	20000958 <dcd_rp2040_irq+0x460>
20000956:	e5f0      	b.n	2000053a <dcd_rp2040_irq+0x42>
20000958:	2300      	movs	r3, #0
2000095a:	0020      	movs	r0, r4
2000095c:	54a3      	strb	r3, [r4, r2]
2000095e:	30a0      	adds	r0, #160	; 0xa0
20000960:	f000 f908 	bl	20000b74 <hw_endpoint_start_next_buffer>
20000964:	e5e9      	b.n	2000053a <dcd_rp2040_irq+0x42>
20000966:	3378      	adds	r3, #120	; 0x78
20000968:	5ce3      	ldrb	r3, [r4, r3]
2000096a:	2b00      	cmp	r3, #0
2000096c:	d100      	bne.n	20000970 <dcd_rp2040_irq+0x478>
2000096e:	e5df      	b.n	20000530 <dcd_rp2040_irq+0x38>
20000970:	227c      	movs	r2, #124	; 0x7c
20000972:	5ca1      	ldrb	r1, [r4, r2]
20000974:	001e      	movs	r6, r3
20000976:	2900      	cmp	r1, #0
20000978:	d100      	bne.n	2000097c <dcd_rp2040_irq+0x484>
2000097a:	e5d9      	b.n	20000530 <dcd_rp2040_irq+0x38>
2000097c:	2300      	movs	r3, #0
2000097e:	0020      	movs	r0, r4
20000980:	54a3      	strb	r3, [r4, r2]
20000982:	3060      	adds	r0, #96	; 0x60
20000984:	f000 f8f6 	bl	20000b74 <hw_endpoint_start_next_buffer>
20000988:	e5d2      	b.n	20000530 <dcd_rp2040_irq+0x38>
2000098a:	4b0f      	ldr	r3, [pc, #60]	; (200009c8 <dcd_rp2040_irq+0x4d0>)
2000098c:	5ce3      	ldrb	r3, [r4, r3]
2000098e:	2b00      	cmp	r3, #0
20000990:	d100      	bne.n	20000994 <dcd_rp2040_irq+0x49c>
20000992:	e617      	b.n	200005c4 <dcd_rp2040_irq+0xcc>
20000994:	23ff      	movs	r3, #255	; 0xff
20000996:	009b      	lsls	r3, r3, #2
20000998:	5ce2      	ldrb	r2, [r4, r3]
2000099a:	2a00      	cmp	r2, #0
2000099c:	d100      	bne.n	200009a0 <dcd_rp2040_irq+0x4a8>
2000099e:	e61c      	b.n	200005da <dcd_rp2040_irq+0xe2>
200009a0:	2200      	movs	r2, #0
200009a2:	54e2      	strb	r2, [r4, r3]
200009a4:	3b1c      	subs	r3, #28
200009a6:	18e0      	adds	r0, r4, r3
200009a8:	f000 f8e4 	bl	20000b74 <hw_endpoint_start_next_buffer>
200009ac:	e615      	b.n	200005da <dcd_rp2040_irq+0xe2>
200009ae:	2200      	movs	r2, #0
200009b0:	54e2      	strb	r2, [r4, r3]
200009b2:	23e8      	movs	r3, #232	; 0xe8
200009b4:	009b      	lsls	r3, r3, #2
200009b6:	18e0      	adds	r0, r4, r3
200009b8:	f000 f8dc 	bl	20000b74 <hw_endpoint_start_next_buffer>
200009bc:	e6a7      	b.n	2000070e <dcd_rp2040_irq+0x216>
200009be:	0021      	movs	r1, r4
200009c0:	4802      	ldr	r0, [pc, #8]	; (200009cc <dcd_rp2040_irq+0x4d4>)
200009c2:	4069      	eors	r1, r5
200009c4:	f000 fa2c 	bl	20000e20 <__panic_veneer>
200009c8:	000003fa 	.word	0x000003fa
200009cc:	10007638 	.word	0x10007638

200009d0 <e15_is_bulkin_ep>:
200009d0:	4a08      	ldr	r2, [pc, #32]	; (200009f4 <e15_is_bulkin_ep+0x24>)
200009d2:	0003      	movs	r3, r0
200009d4:	6c12      	ldr	r2, [r2, #64]	; 0x40
200009d6:	2000      	movs	r0, #0
200009d8:	0792      	lsls	r2, r2, #30
200009da:	d403      	bmi.n	200009e4 <e15_is_bulkin_ep+0x14>
200009dc:	789a      	ldrb	r2, [r3, #2]
200009de:	09d2      	lsrs	r2, r2, #7
200009e0:	2a01      	cmp	r2, #1
200009e2:	d000      	beq.n	200009e6 <e15_is_bulkin_ep+0x16>
200009e4:	4770      	bx	lr
200009e6:	7ed8      	ldrb	r0, [r3, #27]
200009e8:	3802      	subs	r0, #2
200009ea:	4243      	negs	r3, r0
200009ec:	4158      	adcs	r0, r3
200009ee:	b2c0      	uxtb	r0, r0
200009f0:	e7f8      	b.n	200009e4 <e15_is_bulkin_ep+0x14>
200009f2:	46c0      	nop			; (mov r8, r8)
200009f4:	50110000 	.word	0x50110000

200009f8 <e15_is_critical_frame_period>:
200009f8:	b510      	push	{r4, lr}
200009fa:	f7ff ffe9 	bl	200009d0 <e15_is_bulkin_ep>
200009fe:	2800      	cmp	r0, #0
20000a00:	d00c      	beq.n	20000a1c <e15_is_critical_frame_period+0x24>
20000a02:	4907      	ldr	r1, [pc, #28]	; (20000a20 <e15_is_critical_frame_period+0x28>)
20000a04:	4b07      	ldr	r3, [pc, #28]	; (20000a24 <e15_is_critical_frame_period+0x2c>)
20000a06:	468c      	mov	ip, r1
20000a08:	4a07      	ldr	r2, [pc, #28]	; (20000a28 <e15_is_critical_frame_period+0x30>)
20000a0a:	6a9b      	ldr	r3, [r3, #40]	; 0x28
20000a0c:	6812      	ldr	r2, [r2, #0]
20000a0e:	4463      	add	r3, ip
20000a10:	1a9b      	subs	r3, r3, r2
20000a12:	2000      	movs	r0, #0
20000a14:	22c6      	movs	r2, #198	; 0xc6
20000a16:	429a      	cmp	r2, r3
20000a18:	4140      	adcs	r0, r0
20000a1a:	b2c0      	uxtb	r0, r0
20000a1c:	bd10      	pop	{r4, pc}
20000a1e:	46c0      	nop			; (mov r8, r8)
20000a20:	fffffce0 	.word	0xfffffce0
20000a24:	40054000 	.word	0x40054000
20000a28:	20001878 	.word	0x20001878

20000a2c <prepare_ep_buffer>:
20000a2c:	b5f8      	push	{r3, r4, r5, r6, r7, lr}
20000a2e:	8b02      	ldrh	r2, [r0, #24]
20000a30:	8a83      	ldrh	r3, [r0, #20]
20000a32:	0004      	movs	r4, r0
20000a34:	000f      	movs	r7, r1
20000a36:	1c16      	adds	r6, r2, #0
20000a38:	429a      	cmp	r2, r3
20000a3a:	d900      	bls.n	20000a3e <prepare_ep_buffer+0x12>
20000a3c:	1c1e      	adds	r6, r3, #0
20000a3e:	2580      	movs	r5, #128	; 0x80
20000a40:	b2b6      	uxth	r6, r6
20000a42:	1b9b      	subs	r3, r3, r6
20000a44:	78e2      	ldrb	r2, [r4, #3]
20000a46:	b29b      	uxth	r3, r3
20000a48:	00ed      	lsls	r5, r5, #3
20000a4a:	82a3      	strh	r3, [r4, #20]
20000a4c:	4335      	orrs	r5, r6
20000a4e:	2a00      	cmp	r2, #0
20000a50:	d002      	beq.n	20000a58 <prepare_ep_buffer+0x2c>
20000a52:	2590      	movs	r5, #144	; 0x90
20000a54:	01ad      	lsls	r5, r5, #6
20000a56:	4335      	orrs	r5, r6
20000a58:	2101      	movs	r1, #1
20000a5a:	404a      	eors	r2, r1
20000a5c:	70e2      	strb	r2, [r4, #3]
20000a5e:	7862      	ldrb	r2, [r4, #1]
20000a60:	2a00      	cmp	r2, #0
20000a62:	d009      	beq.n	20000a78 <prepare_ep_buffer+0x4c>
20000a64:	2b00      	cmp	r3, #0
20000a66:	d102      	bne.n	20000a6e <prepare_ep_buffer+0x42>
20000a68:	2380      	movs	r3, #128	; 0x80
20000a6a:	01db      	lsls	r3, r3, #7
20000a6c:	431d      	orrs	r5, r3
20000a6e:	2f00      	cmp	r7, #0
20000a70:	d000      	beq.n	20000a74 <prepare_ep_buffer+0x48>
20000a72:	042d      	lsls	r5, r5, #16
20000a74:	0028      	movs	r0, r5
20000a76:	bdf8      	pop	{r3, r4, r5, r6, r7, pc}
20000a78:	68e3      	ldr	r3, [r4, #12]
20000a7a:	01b8      	lsls	r0, r7, #6
20000a7c:	469c      	mov	ip, r3
20000a7e:	0032      	movs	r2, r6
20000a80:	4460      	add	r0, ip
20000a82:	6921      	ldr	r1, [r4, #16]
20000a84:	f000 f9b4 	bl	20000df0 <____wrap_memcpy_veneer>
20000a88:	6923      	ldr	r3, [r4, #16]
20000a8a:	469c      	mov	ip, r3
20000a8c:	2380      	movs	r3, #128	; 0x80
20000a8e:	4466      	add	r6, ip
20000a90:	021b      	lsls	r3, r3, #8
20000a92:	431d      	orrs	r5, r3
20000a94:	6126      	str	r6, [r4, #16]
20000a96:	8aa3      	ldrh	r3, [r4, #20]
20000a98:	e7e4      	b.n	20000a64 <prepare_ep_buffer+0x38>
20000a9a:	46c0      	nop			; (mov r8, r8)

20000a9c <sync_ep_buffer>:
20000a9c:	6883      	ldr	r3, [r0, #8]
20000a9e:	b570      	push	{r4, r5, r6, lr}
20000aa0:	0004      	movs	r4, r0
20000aa2:	681d      	ldr	r5, [r3, #0]
20000aa4:	2900      	cmp	r1, #0
20000aa6:	d000      	beq.n	20000aaa <sync_ep_buffer+0xe>
20000aa8:	0c2d      	lsrs	r5, r5, #16
20000aaa:	7863      	ldrb	r3, [r4, #1]
20000aac:	05ad      	lsls	r5, r5, #22
20000aae:	0dad      	lsrs	r5, r5, #22
20000ab0:	2b00      	cmp	r3, #0
20000ab2:	d109      	bne.n	20000ac8 <sync_ep_buffer+0x2c>
20000ab4:	8ae3      	ldrh	r3, [r4, #22]
20000ab6:	18eb      	adds	r3, r5, r3
20000ab8:	82e3      	strh	r3, [r4, #22]
20000aba:	8b23      	ldrh	r3, [r4, #24]
20000abc:	42ab      	cmp	r3, r5
20000abe:	d901      	bls.n	20000ac4 <sync_ep_buffer+0x28>
20000ac0:	2300      	movs	r3, #0
20000ac2:	82a3      	strh	r3, [r4, #20]
20000ac4:	0028      	movs	r0, r5
20000ac6:	bd70      	pop	{r4, r5, r6, pc}
20000ac8:	68e3      	ldr	r3, [r4, #12]
20000aca:	0189      	lsls	r1, r1, #6
20000acc:	469c      	mov	ip, r3
20000ace:	002a      	movs	r2, r5
20000ad0:	6920      	ldr	r0, [r4, #16]
20000ad2:	4461      	add	r1, ip
20000ad4:	f000 f98c 	bl	20000df0 <____wrap_memcpy_veneer>
20000ad8:	8ae3      	ldrh	r3, [r4, #22]
20000ada:	18eb      	adds	r3, r5, r3
20000adc:	82e3      	strh	r3, [r4, #22]
20000ade:	6923      	ldr	r3, [r4, #16]
20000ae0:	195b      	adds	r3, r3, r5
20000ae2:	6123      	str	r3, [r4, #16]
20000ae4:	e7e9      	b.n	20000aba <sync_ep_buffer+0x1e>
20000ae6:	46c0      	nop			; (mov r8, r8)

20000ae8 <_hw_endpoint_xfer_sync>:
20000ae8:	b510      	push	{r4, lr}
20000aea:	0004      	movs	r4, r0
20000aec:	6883      	ldr	r3, [r0, #8]
20000aee:	2100      	movs	r1, #0
20000af0:	681b      	ldr	r3, [r3, #0]
20000af2:	f7ff ffd3 	bl	20000a9c <sync_ep_buffer>
20000af6:	6863      	ldr	r3, [r4, #4]
20000af8:	681b      	ldr	r3, [r3, #0]
20000afa:	005b      	lsls	r3, r3, #1
20000afc:	d502      	bpl.n	20000b04 <_hw_endpoint_xfer_sync+0x1c>
20000afe:	8b23      	ldrh	r3, [r4, #24]
20000b00:	4283      	cmp	r3, r0
20000b02:	d000      	beq.n	20000b06 <_hw_endpoint_xfer_sync+0x1e>
20000b04:	bd10      	pop	{r4, pc}
20000b06:	2101      	movs	r1, #1
20000b08:	0020      	movs	r0, r4
20000b0a:	f7ff ffc7 	bl	20000a9c <sync_ep_buffer>
20000b0e:	e7f9      	b.n	20000b04 <_hw_endpoint_xfer_sync+0x1c>

20000b10 <hw_endpoint_reset_transfer>:
20000b10:	2300      	movs	r3, #0
20000b12:	7683      	strb	r3, [r0, #26]
20000b14:	6143      	str	r3, [r0, #20]
20000b16:	6103      	str	r3, [r0, #16]
20000b18:	4770      	bx	lr
20000b1a:	46c0      	nop			; (mov r8, r8)

20000b1c <_hw_endpoint_buffer_control_update32>:
20000b1c:	b510      	push	{r4, lr}
20000b1e:	6883      	ldr	r3, [r0, #8]
20000b20:	2900      	cmp	r1, #0
20000b22:	d001      	beq.n	20000b28 <_hw_endpoint_buffer_control_update32+0xc>
20000b24:	681c      	ldr	r4, [r3, #0]
20000b26:	4021      	ands	r1, r4
20000b28:	2a00      	cmp	r2, #0
20000b2a:	d011      	beq.n	20000b50 <_hw_endpoint_buffer_control_update32+0x34>
20000b2c:	2480      	movs	r4, #128	; 0x80
20000b2e:	00e4      	lsls	r4, r4, #3
20000b30:	4311      	orrs	r1, r2
20000b32:	4222      	tst	r2, r4
20000b34:	d00c      	beq.n	20000b50 <_hw_endpoint_buffer_control_update32+0x34>
20000b36:	681a      	ldr	r2, [r3, #0]
20000b38:	4222      	tst	r2, r4
20000b3a:	d10b      	bne.n	20000b54 <_hw_endpoint_buffer_control_update32+0x38>
20000b3c:	4a0a      	ldr	r2, [pc, #40]	; (20000b68 <_hw_endpoint_buffer_control_update32+0x4c>)
20000b3e:	400a      	ands	r2, r1
20000b40:	601a      	str	r2, [r3, #0]
20000b42:	e7ff      	b.n	20000b44 <_hw_endpoint_buffer_control_update32+0x28>
20000b44:	e7ff      	b.n	20000b46 <_hw_endpoint_buffer_control_update32+0x2a>
20000b46:	e7ff      	b.n	20000b48 <_hw_endpoint_buffer_control_update32+0x2c>
20000b48:	e7ff      	b.n	20000b4a <_hw_endpoint_buffer_control_update32+0x2e>
20000b4a:	e7ff      	b.n	20000b4c <_hw_endpoint_buffer_control_update32+0x30>
20000b4c:	e7ff      	b.n	20000b4e <_hw_endpoint_buffer_control_update32+0x32>
20000b4e:	6883      	ldr	r3, [r0, #8]
20000b50:	6019      	str	r1, [r3, #0]
20000b52:	bd10      	pop	{r4, pc}
20000b54:	227f      	movs	r2, #127	; 0x7f
20000b56:	7881      	ldrb	r1, [r0, #2]
20000b58:	4804      	ldr	r0, [pc, #16]	; (20000b6c <_hw_endpoint_buffer_control_update32+0x50>)
20000b5a:	09cb      	lsrs	r3, r1, #7
20000b5c:	4011      	ands	r1, r2
20000b5e:	4a04      	ldr	r2, [pc, #16]	; (20000b70 <_hw_endpoint_buffer_control_update32+0x54>)
20000b60:	009b      	lsls	r3, r3, #2
20000b62:	589a      	ldr	r2, [r3, r2]
20000b64:	f000 f95c 	bl	20000e20 <__panic_veneer>
20000b68:	fffffbff 	.word	0xfffffbff
20000b6c:	1000764c 	.word	0x1000764c
20000b70:	20000f18 	.word	0x20000f18

20000b74 <hw_endpoint_start_next_buffer>:
20000b74:	6843      	ldr	r3, [r0, #4]
20000b76:	b570      	push	{r4, r5, r6, lr}
20000b78:	2100      	movs	r1, #0
20000b7a:	2580      	movs	r5, #128	; 0x80
20000b7c:	681e      	ldr	r6, [r3, #0]
20000b7e:	0004      	movs	r4, r0
20000b80:	f7ff ff54 	bl	20000a2c <prepare_ep_buffer>
20000b84:	4b13      	ldr	r3, [pc, #76]	; (20000bd4 <hw_endpoint_start_next_buffer+0x60>)
20000b86:	016d      	lsls	r5, r5, #5
20000b88:	6c1b      	ldr	r3, [r3, #64]	; 0x40
20000b8a:	4305      	orrs	r5, r0
20000b8c:	079b      	lsls	r3, r3, #30
20000b8e:	d50f      	bpl.n	20000bb0 <hw_endpoint_start_next_buffer+0x3c>
20000b90:	78a3      	ldrb	r3, [r4, #2]
20000b92:	065b      	lsls	r3, r3, #25
20000b94:	d00f      	beq.n	20000bb6 <hw_endpoint_start_next_buffer+0x42>
20000b96:	4b10      	ldr	r3, [pc, #64]	; (20000bd8 <hw_endpoint_start_next_buffer+0x64>)
20000b98:	401e      	ands	r6, r3
20000b9a:	2380      	movs	r3, #128	; 0x80
20000b9c:	059b      	lsls	r3, r3, #22
20000b9e:	4333      	orrs	r3, r6
20000ba0:	6862      	ldr	r2, [r4, #4]
20000ba2:	2100      	movs	r1, #0
20000ba4:	6013      	str	r3, [r2, #0]
20000ba6:	0020      	movs	r0, r4
20000ba8:	002a      	movs	r2, r5
20000baa:	f7ff ffb7 	bl	20000b1c <_hw_endpoint_buffer_control_update32>
20000bae:	bd70      	pop	{r4, r5, r6, pc}
20000bb0:	78a3      	ldrb	r3, [r4, #2]
20000bb2:	09db      	lsrs	r3, r3, #7
20000bb4:	d0ef      	beq.n	20000b96 <hw_endpoint_start_next_buffer+0x22>
20000bb6:	8aa3      	ldrh	r3, [r4, #20]
20000bb8:	2b00      	cmp	r3, #0
20000bba:	d0ec      	beq.n	20000b96 <hw_endpoint_start_next_buffer+0x22>
20000bbc:	2101      	movs	r1, #1
20000bbe:	0020      	movs	r0, r4
20000bc0:	f7ff ff34 	bl	20000a2c <prepare_ep_buffer>
20000bc4:	23a0      	movs	r3, #160	; 0xa0
20000bc6:	4a05      	ldr	r2, [pc, #20]	; (20000bdc <hw_endpoint_start_next_buffer+0x68>)
20000bc8:	05db      	lsls	r3, r3, #23
20000bca:	4032      	ands	r2, r6
20000bcc:	4305      	orrs	r5, r0
20000bce:	4313      	orrs	r3, r2
20000bd0:	e7e6      	b.n	20000ba0 <hw_endpoint_start_next_buffer+0x2c>
20000bd2:	46c0      	nop			; (mov r8, r8)
20000bd4:	50110000 	.word	0x50110000
20000bd8:	afffffff 	.word	0xafffffff
20000bdc:	dfffffff 	.word	0xdfffffff

20000be0 <hw_endpoint_xfer_continue>:
20000be0:	b570      	push	{r4, r5, r6, lr}
20000be2:	7e85      	ldrb	r5, [r0, #26]
20000be4:	0004      	movs	r4, r0
20000be6:	2d00      	cmp	r5, #0
20000be8:	d013      	beq.n	20000c12 <hw_endpoint_xfer_continue+0x32>
20000bea:	f7ff ff7d 	bl	20000ae8 <_hw_endpoint_xfer_sync>
20000bee:	8aa3      	ldrh	r3, [r4, #20]
20000bf0:	2b00      	cmp	r3, #0
20000bf2:	d101      	bne.n	20000bf8 <hw_endpoint_xfer_continue+0x18>
20000bf4:	0028      	movs	r0, r5
20000bf6:	bd70      	pop	{r4, r5, r6, pc}
20000bf8:	0020      	movs	r0, r4
20000bfa:	f7ff fefd 	bl	200009f8 <e15_is_critical_frame_period>
20000bfe:	1e05      	subs	r5, r0, #0
20000c00:	d003      	beq.n	20000c0a <hw_endpoint_xfer_continue+0x2a>
20000c02:	2301      	movs	r3, #1
20000c04:	2500      	movs	r5, #0
20000c06:	7723      	strb	r3, [r4, #28]
20000c08:	e7f4      	b.n	20000bf4 <hw_endpoint_xfer_continue+0x14>
20000c0a:	0020      	movs	r0, r4
20000c0c:	f7ff ffb2 	bl	20000b74 <hw_endpoint_start_next_buffer>
20000c10:	e7f0      	b.n	20000bf4 <hw_endpoint_xfer_continue+0x14>
20000c12:	227f      	movs	r2, #127	; 0x7f
20000c14:	7881      	ldrb	r1, [r0, #2]
20000c16:	4804      	ldr	r0, [pc, #16]	; (20000c28 <hw_endpoint_xfer_continue+0x48>)
20000c18:	09cb      	lsrs	r3, r1, #7
20000c1a:	4011      	ands	r1, r2
20000c1c:	4a03      	ldr	r2, [pc, #12]	; (20000c2c <hw_endpoint_xfer_continue+0x4c>)
20000c1e:	009b      	lsls	r3, r3, #2
20000c20:	589a      	ldr	r2, [r3, r2]
20000c22:	f000 f8fd 	bl	20000e20 <__panic_veneer>
20000c26:	46c0      	nop			; (mov r8, r8)
20000c28:	1000766c 	.word	0x1000766c
20000c2c:	20000f18 	.word	0x20000f18

20000c30 <dcd_event_handler>:
20000c30:	b5f0      	push	{r4, r5, r6, r7, lr}
20000c32:	7843      	ldrb	r3, [r0, #1]
20000c34:	0005      	movs	r5, r0
20000c36:	b085      	sub	sp, #20
20000c38:	2b04      	cmp	r3, #4
20000c3a:	d100      	bne.n	20000c3e <dcd_event_handler+0xe>
20000c3c:	e075      	b.n	20000d2a <dcd_event_handler+0xfa>
20000c3e:	d846      	bhi.n	20000cce <dcd_event_handler+0x9e>
20000c40:	2b02      	cmp	r3, #2
20000c42:	d100      	bne.n	20000c46 <dcd_event_handler+0x16>
20000c44:	e083      	b.n	20000d4e <dcd_event_handler+0x11e>
20000c46:	2b03      	cmp	r3, #3
20000c48:	d155      	bne.n	20000cf6 <dcd_event_handler+0xc6>
20000c4a:	4e50      	ldr	r6, [pc, #320]	; (20000d8c <dcd_event_handler+0x15c>)
20000c4c:	4a50      	ldr	r2, [pc, #320]	; (20000d90 <dcd_event_handler+0x160>)
20000c4e:	2400      	movs	r4, #0
20000c50:	7833      	ldrb	r3, [r6, #0]
20000c52:	2a00      	cmp	r2, #0
20000c54:	d100      	bne.n	20000c58 <dcd_event_handler+0x28>
20000c56:	e092      	b.n	20000d7e <dcd_event_handler+0x14e>
20000c58:	4f4e      	ldr	r7, [pc, #312]	; (20000d94 <dcd_event_handler+0x164>)
20000c5a:	e003      	b.n	20000c64 <dcd_event_handler+0x34>
20000c5c:	3401      	adds	r4, #1
20000c5e:	b2e4      	uxtb	r4, r4
20000c60:	429c      	cmp	r4, r3
20000c62:	d814      	bhi.n	20000c8e <dcd_event_handler+0x5e>
20000c64:	42a3      	cmp	r3, r4
20000c66:	d9f9      	bls.n	20000c5c <dcd_event_handler+0x2c>
20000c68:	6839      	ldr	r1, [r7, #0]
20000c6a:	0062      	lsls	r2, r4, #1
20000c6c:	468c      	mov	ip, r1
20000c6e:	1912      	adds	r2, r2, r4
20000c70:	00d2      	lsls	r2, r2, #3
20000c72:	4462      	add	r2, ip
20000c74:	2a00      	cmp	r2, #0
20000c76:	d0f1      	beq.n	20000c5c <dcd_event_handler+0x2c>
20000c78:	6952      	ldr	r2, [r2, #20]
20000c7a:	2a00      	cmp	r2, #0
20000c7c:	d0ee      	beq.n	20000c5c <dcd_event_handler+0x2c>
20000c7e:	7828      	ldrb	r0, [r5, #0]
20000c80:	6869      	ldr	r1, [r5, #4]
20000c82:	4790      	blx	r2
20000c84:	3401      	adds	r4, #1
20000c86:	7833      	ldrb	r3, [r6, #0]
20000c88:	b2e4      	uxtb	r4, r4
20000c8a:	429c      	cmp	r4, r3
20000c8c:	d9ea      	bls.n	20000c64 <dcd_event_handler+0x34>
20000c8e:	4b42      	ldr	r3, [pc, #264]	; (20000d98 <dcd_event_handler+0x168>)
20000c90:	781a      	ldrb	r2, [r3, #0]
20000c92:	0752      	lsls	r2, r2, #29
20000c94:	d547      	bpl.n	20000d26 <dcd_event_handler+0xf6>
20000c96:	2104      	movs	r1, #4
20000c98:	781a      	ldrb	r2, [r3, #0]
20000c9a:	a801      	add	r0, sp, #4
20000c9c:	438a      	bics	r2, r1
20000c9e:	701a      	strb	r2, [r3, #0]
20000ca0:	2100      	movs	r1, #0
20000ca2:	220c      	movs	r2, #12
20000ca4:	f000 f8c4 	bl	20000e30 <____wrap_memset_veneer>
20000ca8:	466a      	mov	r2, sp
20000caa:	782b      	ldrb	r3, [r5, #0]
20000cac:	7113      	strb	r3, [r2, #4]
20000cae:	2305      	movs	r3, #5
20000cb0:	7153      	strb	r3, [r2, #5]
20000cb2:	4b3a      	ldr	r3, [pc, #232]	; (20000d9c <dcd_event_handler+0x16c>)
20000cb4:	681c      	ldr	r4, [r3, #0]
20000cb6:	6962      	ldr	r2, [r4, #20]
20000cb8:	f3ef 8110 	mrs	r1, PRIMASK
20000cbc:	b672      	cpsid	i
20000cbe:	6813      	ldr	r3, [r2, #0]
20000cc0:	2b00      	cmp	r3, #0
20000cc2:	d0fc      	beq.n	20000cbe <dcd_event_handler+0x8e>
20000cc4:	f3bf 8f5f 	dmb	sy
20000cc8:	61a1      	str	r1, [r4, #24]
20000cca:	a901      	add	r1, sp, #4
20000ccc:	e020      	b.n	20000d10 <dcd_event_handler+0xe0>
20000cce:	2b05      	cmp	r3, #5
20000cd0:	d111      	bne.n	20000cf6 <dcd_event_handler+0xc6>
20000cd2:	4b31      	ldr	r3, [pc, #196]	; (20000d98 <dcd_event_handler+0x168>)
20000cd4:	781a      	ldrb	r2, [r3, #0]
20000cd6:	07d2      	lsls	r2, r2, #31
20000cd8:	d525      	bpl.n	20000d26 <dcd_event_handler+0xf6>
20000cda:	2104      	movs	r1, #4
20000cdc:	781a      	ldrb	r2, [r3, #0]
20000cde:	438a      	bics	r2, r1
20000ce0:	701a      	strb	r2, [r3, #0]
20000ce2:	4b2e      	ldr	r3, [pc, #184]	; (20000d9c <dcd_event_handler+0x16c>)
20000ce4:	681c      	ldr	r4, [r3, #0]
20000ce6:	6962      	ldr	r2, [r4, #20]
20000ce8:	f3ef 8110 	mrs	r1, PRIMASK
20000cec:	b672      	cpsid	i
20000cee:	6813      	ldr	r3, [r2, #0]
20000cf0:	2b00      	cmp	r3, #0
20000cf2:	d109      	bne.n	20000d08 <dcd_event_handler+0xd8>
20000cf4:	e7fb      	b.n	20000cee <dcd_event_handler+0xbe>
20000cf6:	4b29      	ldr	r3, [pc, #164]	; (20000d9c <dcd_event_handler+0x16c>)
20000cf8:	681c      	ldr	r4, [r3, #0]
20000cfa:	6962      	ldr	r2, [r4, #20]
20000cfc:	f3ef 8110 	mrs	r1, PRIMASK
20000d00:	b672      	cpsid	i
20000d02:	6813      	ldr	r3, [r2, #0]
20000d04:	2b00      	cmp	r3, #0
20000d06:	d0fc      	beq.n	20000d02 <dcd_event_handler+0xd2>
20000d08:	f3bf 8f5f 	dmb	sy
20000d0c:	61a1      	str	r1, [r4, #24]
20000d0e:	0029      	movs	r1, r5
20000d10:	0020      	movs	r0, r4
20000d12:	f000 f89d 	bl	20000e50 <__tu_fifo_write_veneer>
20000d16:	6962      	ldr	r2, [r4, #20]
20000d18:	69a3      	ldr	r3, [r4, #24]
20000d1a:	f3bf 8f5f 	dmb	sy
20000d1e:	2100      	movs	r1, #0
20000d20:	6011      	str	r1, [r2, #0]
20000d22:	f383 8810 	msr	PRIMASK, r3
20000d26:	b005      	add	sp, #20
20000d28:	bdf0      	pop	{r4, r5, r6, r7, pc}
20000d2a:	4b1b      	ldr	r3, [pc, #108]	; (20000d98 <dcd_event_handler+0x168>)
20000d2c:	781a      	ldrb	r2, [r3, #0]
20000d2e:	07d2      	lsls	r2, r2, #31
20000d30:	d5f9      	bpl.n	20000d26 <dcd_event_handler+0xf6>
20000d32:	2104      	movs	r1, #4
20000d34:	781a      	ldrb	r2, [r3, #0]
20000d36:	430a      	orrs	r2, r1
20000d38:	701a      	strb	r2, [r3, #0]
20000d3a:	4b18      	ldr	r3, [pc, #96]	; (20000d9c <dcd_event_handler+0x16c>)
20000d3c:	681c      	ldr	r4, [r3, #0]
20000d3e:	6962      	ldr	r2, [r4, #20]
20000d40:	f3ef 8110 	mrs	r1, PRIMASK
20000d44:	b672      	cpsid	i
20000d46:	6813      	ldr	r3, [r2, #0]
20000d48:	2b00      	cmp	r3, #0
20000d4a:	d1dd      	bne.n	20000d08 <dcd_event_handler+0xd8>
20000d4c:	e7fb      	b.n	20000d46 <dcd_event_handler+0x116>
20000d4e:	2001      	movs	r0, #1
20000d50:	4a11      	ldr	r2, [pc, #68]	; (20000d98 <dcd_event_handler+0x168>)
20000d52:	7811      	ldrb	r1, [r2, #0]
20000d54:	4381      	bics	r1, r0
20000d56:	7011      	strb	r1, [r2, #0]
20000d58:	7811      	ldrb	r1, [r2, #0]
20000d5a:	4399      	bics	r1, r3
20000d5c:	2300      	movs	r3, #0
20000d5e:	7011      	strb	r1, [r2, #0]
20000d60:	2104      	movs	r1, #4
20000d62:	7053      	strb	r3, [r2, #1]
20000d64:	7813      	ldrb	r3, [r2, #0]
20000d66:	438b      	bics	r3, r1
20000d68:	7013      	strb	r3, [r2, #0]
20000d6a:	4b0c      	ldr	r3, [pc, #48]	; (20000d9c <dcd_event_handler+0x16c>)
20000d6c:	681c      	ldr	r4, [r3, #0]
20000d6e:	6962      	ldr	r2, [r4, #20]
20000d70:	f3ef 8110 	mrs	r1, PRIMASK
20000d74:	b672      	cpsid	i
20000d76:	6813      	ldr	r3, [r2, #0]
20000d78:	2b00      	cmp	r3, #0
20000d7a:	d1c5      	bne.n	20000d08 <dcd_event_handler+0xd8>
20000d7c:	e7fb      	b.n	20000d76 <dcd_event_handler+0x146>
20000d7e:	2200      	movs	r2, #0
20000d80:	3201      	adds	r2, #1
20000d82:	b2d2      	uxtb	r2, r2
20000d84:	429a      	cmp	r2, r3
20000d86:	d9fb      	bls.n	20000d80 <dcd_event_handler+0x150>
20000d88:	e781      	b.n	20000c8e <dcd_event_handler+0x5e>
20000d8a:	46c0      	nop			; (mov r8, r8)
20000d8c:	20001e1d 	.word	0x20001e1d
20000d90:	10004add 	.word	0x10004add
20000d94:	20001284 	.word	0x20001284
20000d98:	200015ac 	.word	0x200015ac
20000d9c:	20001604 	.word	0x20001604

20000da0 <__aeabi_idiv0>:
20000da0:	4770      	bx	lr
20000da2:	46c0      	nop			; (mov r8, r8)

20000da4 <memcmp>:
20000da4:	b530      	push	{r4, r5, lr}
20000da6:	2a03      	cmp	r2, #3
20000da8:	d90c      	bls.n	20000dc4 <memcmp+0x20>
20000daa:	0003      	movs	r3, r0
20000dac:	430b      	orrs	r3, r1
20000dae:	079b      	lsls	r3, r3, #30
20000db0:	d119      	bne.n	20000de6 <memcmp+0x42>
20000db2:	6803      	ldr	r3, [r0, #0]
20000db4:	680c      	ldr	r4, [r1, #0]
20000db6:	42a3      	cmp	r3, r4
20000db8:	d115      	bne.n	20000de6 <memcmp+0x42>
20000dba:	3a04      	subs	r2, #4
20000dbc:	3004      	adds	r0, #4
20000dbe:	3104      	adds	r1, #4
20000dc0:	2a03      	cmp	r2, #3
20000dc2:	d8f6      	bhi.n	20000db2 <memcmp+0xe>
20000dc4:	1e55      	subs	r5, r2, #1
20000dc6:	2a00      	cmp	r2, #0
20000dc8:	d00b      	beq.n	20000de2 <memcmp+0x3e>
20000dca:	2300      	movs	r3, #0
20000dcc:	e003      	b.n	20000dd6 <memcmp+0x32>
20000dce:	1c5a      	adds	r2, r3, #1
20000dd0:	429d      	cmp	r5, r3
20000dd2:	d006      	beq.n	20000de2 <memcmp+0x3e>
20000dd4:	0013      	movs	r3, r2
20000dd6:	5cc2      	ldrb	r2, [r0, r3]
20000dd8:	5ccc      	ldrb	r4, [r1, r3]
20000dda:	42a2      	cmp	r2, r4
20000ddc:	d0f7      	beq.n	20000dce <memcmp+0x2a>
20000dde:	1b10      	subs	r0, r2, r4
20000de0:	e000      	b.n	20000de4 <memcmp+0x40>
20000de2:	2000      	movs	r0, #0
20000de4:	bd30      	pop	{r4, r5, pc}
20000de6:	1e55      	subs	r5, r2, #1
20000de8:	e7ef      	b.n	20000dca <memcmp+0x26>
20000dea:	46c0      	nop			; (mov r8, r8)
20000dec:	0000      	movs	r0, r0
	...

20000df0 <____wrap_memcpy_veneer>:
20000df0:	b401      	push	{r0}
20000df2:	4802      	ldr	r0, [pc, #8]	; (20000dfc <____wrap_memcpy_veneer+0xc>)
20000df4:	4684      	mov	ip, r0
20000df6:	bc01      	pop	{r0}
20000df8:	4760      	bx	ip
20000dfa:	bf00      	nop
20000dfc:	1000459d 	.word	0x1000459d

20000e00 <____wrap___aeabi_lmul_veneer>:
20000e00:	b401      	push	{r0}
20000e02:	4802      	ldr	r0, [pc, #8]	; (20000e0c <____wrap___aeabi_lmul_veneer+0xc>)
20000e04:	4684      	mov	ip, r0
20000e06:	bc01      	pop	{r0}
20000e08:	4760      	bx	ip
20000e0a:	bf00      	nop
20000e0c:	100044bd 	.word	0x100044bd

20000e10 <__best_effort_wfe_or_timeout_veneer>:
20000e10:	b401      	push	{r0}
20000e12:	4802      	ldr	r0, [pc, #8]	; (20000e1c <__best_effort_wfe_or_timeout_veneer+0xc>)
20000e14:	4684      	mov	ip, r0
20000e16:	bc01      	pop	{r0}
20000e18:	4760      	bx	ip
20000e1a:	bf00      	nop
20000e1c:	100014d1 	.word	0x100014d1

20000e20 <__panic_veneer>:
20000e20:	b401      	push	{r0}
20000e22:	4802      	ldr	r0, [pc, #8]	; (20000e2c <__panic_veneer+0xc>)
20000e24:	4684      	mov	ip, r0
20000e26:	bc01      	pop	{r0}
20000e28:	4760      	bx	ip
20000e2a:	bf00      	nop
20000e2c:	100021bd 	.word	0x100021bd

20000e30 <____wrap_memset_veneer>:
20000e30:	b401      	push	{r0}
20000e32:	4802      	ldr	r0, [pc, #8]	; (20000e3c <____wrap_memset_veneer+0xc>)
20000e34:	4684      	mov	ip, r0
20000e36:	bc01      	pop	{r0}
20000e38:	4760      	bx	ip
20000e3a:	bf00      	nop
20000e3c:	10004591 	.word	0x10004591

20000e40 <__time_us_64_veneer>:
20000e40:	b401      	push	{r0}
20000e42:	4802      	ldr	r0, [pc, #8]	; (20000e4c <__time_us_64_veneer+0xc>)
20000e44:	4684      	mov	ip, r0
20000e46:	bc01      	pop	{r0}
20000e48:	4760      	bx	ip
20000e4a:	bf00      	nop
20000e4c:	1000161d 	.word	0x1000161d

20000e50 <__tu_fifo_write_veneer>:
20000e50:	b401      	push	{r0}
20000e52:	4802      	ldr	r0, [pc, #8]	; (20000e5c <__tu_fifo_write_veneer+0xc>)
20000e54:	4684      	mov	ip, r0
20000e56:	bc01      	pop	{r0}
20000e58:	4760      	bx	ip
20000e5a:	bf00      	nop
20000e5c:	10006a95 	.word	0x10006a95

20000e60 <auth_required>:
20000e60:	00000001                                ....

20000e64 <striped_spin_lock_num>:
20000e64:	00000010                                ....

20000e68 <irq_handler_chain_slots>:
20000e68:	00000000 	.word	0x00000000
20000e6c:	00010000 	.word	0x00010000
	...
20000e78:	00020000 	.word	0x00020000
	...
20000e84:	00030000 	.word	0x00030000
	...
20000e90:	00ff0000 	.word	0x00ff0000
20000e94:	00000000 	.word	0x00000000

20000e98 <irq_handler_chain_first_slot>:
20000e98:	b501      	push	{r0, lr}
20000e9a:	6848      	ldr	r0, [r1, #4]
20000e9c:	3101      	adds	r1, #1
20000e9e:	468e      	mov	lr, r1
20000ea0:	4700      	bx	r0

20000ea2 <irq_handler_chain_remove_tail>:
20000ea2:	4670      	mov	r0, lr
20000ea4:	3809      	subs	r0, #9
20000ea6:	4901      	ldr	r1, [pc, #4]	; (20000eac <irq_handler_chain_remove_tail+0xa>)
20000ea8:	4788      	blx	r1
20000eaa:	bd01      	pop	{r0, pc}
20000eac:	10000cd9 	.word	0x10000cd9

20000eb0 <default_alarm_pool>:
20000eb0:	20000ec8 00000000 20000f60 2000180c     ... ....`.. ... 
	...

20000ec8 <default_alarm_pool_heap>:
20000ec8:	2000181c 00000000 00000000 00000010     ... ............
	...

20000ee0 <aeabi_bits_funcs>:
20000ee0:	00003350 	.word	0x00003350
20000ee4:	0000334c 	.word	0x0000334c
20000ee8:	00003354 	.word	0x00003354
20000eec:	00003352 	.word	0x00003352

20000ef0 <aeabi_bits_funcs_end>:
20000ef0:	0000534d 	.word	0x0000534d
20000ef4:	0000434d 	.word	0x0000434d
20000ef8:	00003453 	.word	0x00003453
20000efc:	00003443 	.word	0x00003443

20000f00 <stdio_usb>:
20000f00:	10004c25 00000000 10004b95 10004b1d     %L.......K...K..
20000f10:	00000000 00000100                       ........

20000f18 <ep_dir_string>:
20000f18:	10007698 1000769c                       .v...v..

20000f20 <_usbd_qdef>:
20000f20:	20001608 000c0010 00000000 00000000     ... ............
	...

20000f3c <_usbd_rhport>:
20000f3c:	000000ff                                ....

20000f40 <print_mutex>:
	...

20000f48 <__mutex_array_end>:
20000f48:	10004581 	.word	0x10004581
20000f4c:	100037bd 	.word	0x100037bd
20000f50:	10003ec9 	.word	0x10003ec9
20000f54:	100044f1 	.word	0x100044f1

20000f58 <__frame_dummy_init_array_entry>:
20000f58:	100002e5 10004f59                       ....YO..
